---
triple:          'arm64-apple-darwin'
binary-path:     '/Users/adam/Developer/vcs3/github.fontlaborg/typg/target/debug/deps/libtypg_python.dylib'
relocations:
  - { offset: 0x1E, size: 0x8, addend: 0x0, symName: '__ZN103_$LT$pyo3..instance..Bound$LT$pyo3..types..any..PyAny$GT$$u20$as$u20$pyo3..types..any..PyAnyMethods$GT$7is_none17h505bbea6940ca8ecE', symObjAddr: 0x0, symBinAddr: 0x880, symSize: 0x4C }
  - { offset: 0x830, size: 0x8, addend: 0x0, symName: '__ZN103_$LT$pyo3..instance..Bound$LT$pyo3..types..any..PyAny$GT$$u20$as$u20$pyo3..types..any..PyAnyMethods$GT$7is_none17h505bbea6940ca8ecE', symObjAddr: 0x0, symBinAddr: 0x880, symSize: 0x4C }
  - { offset: 0x8A5, size: 0x8, addend: 0x0, symName: '__ZN123_$LT$pyo3..instance..Bound$LT$pyo3..types..sequence..PySequence$GT$$u20$as$u20$pyo3..types..sequence..PySequenceMethods$GT$3len17h821b8893bf1a8a92E', symObjAddr: 0x4C, symBinAddr: 0x8CC, symSize: 0xD4 }
  - { offset: 0x92F, size: 0x8, addend: 0x0, symName: '__ZN4pyo35types8iterator131_$LT$impl$u20$core..iter..traits..iterator..Iterator$u20$for$u20$pyo3..instance..Bound$LT$pyo3..types..iterator..PyIterator$GT$$GT$4next17hb55e04c1f2cf180dE', symObjAddr: 0x120, symBinAddr: 0x9A0, symSize: 0x30 }
  - { offset: 0xDC2, size: 0x8, addend: 0x0, symName: '__ZN4pyo38instance36Bound$LT$pyo3..types..any..PyAny$GT$14from_owned_ptr17haf8566b36b40c1adE', symObjAddr: 0x150, symBinAddr: 0x9D0, symSize: 0x2C }
  - { offset: 0xE14, size: 0x8, addend: 0x0, symName: '__ZN4pyo38instance39Borrowed$LT$pyo3..types..any..PyAny$GT$15from_ptr_or_opt17h3d0585cd0b5ded38E', symObjAddr: 0x17C, symBinAddr: 0x9FC, symSize: 0x2C }
  - { offset: 0xE52, size: 0x8, addend: 0x0, symName: '__ZN4pyo38instance39Borrowed$LT$pyo3..types..any..PyAny$GT$8from_ptr17hb02d83b3b1023c10E', symObjAddr: 0x1A8, symBinAddr: 0xA28, symSize: 0x34 }
  - { offset: 0x10DB, size: 0x8, addend: 0x0, symName: '__ZN11typg_python12default_name28_$u7b$$u7b$closure$u7d$$u7d$17h1042a728b7417318E', symObjAddr: 0x0, symBinAddr: 0xA5C, symSize: 0x44 }
  - { offset: 0x31D4, size: 0x8, addend: 0x0, symName: '__ZN11typg_python12default_name28_$u7b$$u7b$closure$u7d$$u7d$17h1042a728b7417318E', symObjAddr: 0x0, symBinAddr: 0xA5C, symSize: 0x44 }
  - { offset: 0x3204, size: 0x8, addend: 0x0, symName: '__ZN11typg_python12default_name28_$u7b$$u7b$closure$u7d$$u7d$17hc2c4fb76029378d3E', symObjAddr: 0x44, symBinAddr: 0xAA0, symSize: 0x74 }
  - { offset: 0x324A, size: 0x8, addend: 0x0, symName: '__ZN11typg_python13find_paths_py28_$u7b$$u7b$closure$u7d$$u7d$17hefdfb017f70c8e6eE', symObjAddr: 0xB8, symBinAddr: 0xB14, symSize: 0x60 }
  - { offset: 0x3291, size: 0x8, addend: 0x0, symName: '__ZN11typg_python13to_py_matches28_$u7b$$u7b$closure$u7d$$u7d$17hb7d2bebe30b690f7E', symObjAddr: 0x118, symBinAddr: 0xB74, symSize: 0xCE8 }
  - { offset: 0x3488, size: 0x8, addend: 0x0, symName: '__ZN11typg_python13to_py_matches28_$u7b$$u7b$closure$u7d$$u7d$28_$u7b$$u7b$closure$u7d$$u7d$17h3f012164869774a8E', symObjAddr: 0xE00, symBinAddr: 0x185C, symSize: 0x3C }
  - { offset: 0x34C1, size: 0x8, addend: 0x0, symName: '__ZN11typg_python13to_py_matches28_$u7b$$u7b$closure$u7d$$u7d$28_$u7b$$u7b$closure$u7d$$u7d$17h80f92b3e27f5f0b5E', symObjAddr: 0xE3C, symBinAddr: 0x1898, symSize: 0x30 }
  - { offset: 0x34FA, size: 0x8, addend: 0x0, symName: '__ZN11typg_python13to_py_matches28_$u7b$$u7b$closure$u7d$$u7d$28_$u7b$$u7b$closure$u7d$$u7d$17h89b4c66f7959518dE', symObjAddr: 0xE6C, symBinAddr: 0x18C8, symSize: 0x3C }
  - { offset: 0x3533, size: 0x8, addend: 0x0, symName: '__ZN11typg_python13to_py_matches28_$u7b$$u7b$closure$u7d$$u7d$28_$u7b$$u7b$closure$u7d$$u7d$17h9978a15ccc7bea21E', symObjAddr: 0xEA8, symBinAddr: 0x1904, symSize: 0x3C }
  - { offset: 0x356C, size: 0x8, addend: 0x0, symName: '__ZN11typg_python13to_py_matches28_$u7b$$u7b$closure$u7d$$u7d$28_$u7b$$u7b$closure$u7d$$u7d$17h9af03f637d910776E', symObjAddr: 0xEE4, symBinAddr: 0x1940, symSize: 0x3C }
  - { offset: 0x35E2, size: 0x8, addend: 0x0, symName: '__ZN11typg_python16compile_patterns28_$u7b$$u7b$closure$u7d$$u7d$17hb4e257b4c47673e9E', symObjAddr: 0xF20, symBinAddr: 0x197C, symSize: 0x50 }
  - { offset: 0x3620, size: 0x8, addend: 0x0, symName: '__ZN11typg_python16compile_patterns28_$u7b$$u7b$closure$u7d$$u7d$28_$u7b$$u7b$closure$u7d$$u7d$17h63e524f408abd104E', symObjAddr: 0xF70, symBinAddr: 0x19CC, symSize: 0xD8 }
  - { offset: 0x36A2, size: 0x8, addend: 0x0, symName: '__ZN11typg_python16convert_metadata28_$u7b$$u7b$closure$u7d$$u7d$17h9b549bedf16d7151E', symObjAddr: 0x1048, symBinAddr: 0x1AA4, symSize: 0xC58 }
  - { offset: 0x382A, size: 0x8, addend: 0x0, symName: '__ZN11typg_python16convert_metadata28_$u7b$$u7b$closure$u7d$$u7d$28_$u7b$$u7b$closure$u7d$$u7d$17h6169f4e333774912E', symObjAddr: 0x1CA0, symBinAddr: 0x26FC, symSize: 0x28 }
  - { offset: 0x3878, size: 0x8, addend: 0x0, symName: '__ZN11typg_python20__pyfunction_find_py28_$u7b$$u7b$closure$u7d$$u7d$17h10ac15e92aa0d60dE', symObjAddr: 0x1CC8, symBinAddr: 0x2724, symSize: 0x2C }
  - { offset: 0x38A0, size: 0x8, addend: 0x0, symName: '__ZN11typg_python20__pyfunction_find_py28_$u7b$$u7b$closure$u7d$$u7d$17h235764687e570ae3E', symObjAddr: 0x1CF4, symBinAddr: 0x2750, symSize: 0x2C }
  - { offset: 0x38C8, size: 0x8, addend: 0x0, symName: '__ZN11typg_python20__pyfunction_find_py28_$u7b$$u7b$closure$u7d$$u7d$17h45817f01a8d42988E', symObjAddr: 0x1D20, symBinAddr: 0x277C, symSize: 0x2C }
  - { offset: 0x38F0, size: 0x8, addend: 0x0, symName: '__ZN11typg_python20__pyfunction_find_py28_$u7b$$u7b$closure$u7d$$u7d$17h527679a5a9bdda0eE', symObjAddr: 0x1D4C, symBinAddr: 0x27A8, symSize: 0x2C }
  - { offset: 0x3918, size: 0x8, addend: 0x0, symName: '__ZN11typg_python20__pyfunction_find_py28_$u7b$$u7b$closure$u7d$$u7d$17h5aaf1c450a79306aE', symObjAddr: 0x1D78, symBinAddr: 0x27D4, symSize: 0x18 }
  - { offset: 0x3940, size: 0x8, addend: 0x0, symName: '__ZN11typg_python20__pyfunction_find_py28_$u7b$$u7b$closure$u7d$$u7d$17h6316173e4e92df8bE', symObjAddr: 0x1D90, symBinAddr: 0x27EC, symSize: 0x2C }
  - { offset: 0x3968, size: 0x8, addend: 0x0, symName: '__ZN11typg_python20__pyfunction_find_py28_$u7b$$u7b$closure$u7d$$u7d$17h634fb3ad76669e44E', symObjAddr: 0x1DBC, symBinAddr: 0x2818, symSize: 0x2C }
  - { offset: 0x3990, size: 0x8, addend: 0x0, symName: '__ZN11typg_python20__pyfunction_find_py28_$u7b$$u7b$closure$u7d$$u7d$17h636fd3de74e0529bE', symObjAddr: 0x1DE8, symBinAddr: 0x2844, symSize: 0x18 }
  - { offset: 0x39B8, size: 0x8, addend: 0x0, symName: '__ZN11typg_python20__pyfunction_find_py28_$u7b$$u7b$closure$u7d$$u7d$17h670f374174393bb4E', symObjAddr: 0x1E00, symBinAddr: 0x285C, symSize: 0x2C }
  - { offset: 0x39E0, size: 0x8, addend: 0x0, symName: '__ZN11typg_python20__pyfunction_find_py28_$u7b$$u7b$closure$u7d$$u7d$17h8f962b5376495301E', symObjAddr: 0x1E2C, symBinAddr: 0x2888, symSize: 0x2C }
  - { offset: 0x3A08, size: 0x8, addend: 0x0, symName: '__ZN11typg_python20__pyfunction_find_py28_$u7b$$u7b$closure$u7d$$u7d$17h9d109bafdf0a99d3E', symObjAddr: 0x1E58, symBinAddr: 0x28B4, symSize: 0x2C }
  - { offset: 0x3A30, size: 0x8, addend: 0x0, symName: '__ZN11typg_python20__pyfunction_find_py28_$u7b$$u7b$closure$u7d$$u7d$17hb8994d6aa574afc3E', symObjAddr: 0x1E84, symBinAddr: 0x28E0, symSize: 0x2C }
  - { offset: 0x3A58, size: 0x8, addend: 0x0, symName: '__ZN11typg_python20__pyfunction_find_py28_$u7b$$u7b$closure$u7d$$u7d$17hbc1e86a1fc52839eE', symObjAddr: 0x1EB0, symBinAddr: 0x290C, symSize: 0x2C }
  - { offset: 0x3A80, size: 0x8, addend: 0x0, symName: '__ZN11typg_python20__pyfunction_find_py28_$u7b$$u7b$closure$u7d$$u7d$17hcea4daa55cacc997E', symObjAddr: 0x1EDC, symBinAddr: 0x2938, symSize: 0x2C }
  - { offset: 0x3AA8, size: 0x8, addend: 0x0, symName: '__ZN11typg_python20__pyfunction_find_py28_$u7b$$u7b$closure$u7d$$u7d$17hf7334b93cc78f16eE', symObjAddr: 0x1F08, symBinAddr: 0x2964, symSize: 0x24 }
  - { offset: 0x3B3F, size: 0x8, addend: 0x0, symName: '__ZN11typg_python26__pyfunction_find_paths_py28_$u7b$$u7b$closure$u7d$$u7d$17h0449f49135c39ec6E', symObjAddr: 0x1F2C, symBinAddr: 0x2988, symSize: 0x2C }
  - { offset: 0x3B67, size: 0x8, addend: 0x0, symName: '__ZN11typg_python26__pyfunction_find_paths_py28_$u7b$$u7b$closure$u7d$$u7d$17h108bc710c83288bfE', symObjAddr: 0x1F58, symBinAddr: 0x29B4, symSize: 0x2C }
  - { offset: 0x3B8F, size: 0x8, addend: 0x0, symName: '__ZN11typg_python26__pyfunction_find_paths_py28_$u7b$$u7b$closure$u7d$$u7d$17h2c5d6eb7ee79218aE', symObjAddr: 0x1F84, symBinAddr: 0x29E0, symSize: 0x24 }
  - { offset: 0x3BB7, size: 0x8, addend: 0x0, symName: '__ZN11typg_python26__pyfunction_find_paths_py28_$u7b$$u7b$closure$u7d$$u7d$17h46efd94787cf7915E', symObjAddr: 0x1FA8, symBinAddr: 0x2A04, symSize: 0x2C }
  - { offset: 0x3BDF, size: 0x8, addend: 0x0, symName: '__ZN11typg_python26__pyfunction_find_paths_py28_$u7b$$u7b$closure$u7d$$u7d$17h55dec534c380e702E', symObjAddr: 0x1FD4, symBinAddr: 0x2A30, symSize: 0x18 }
  - { offset: 0x3C07, size: 0x8, addend: 0x0, symName: '__ZN11typg_python26__pyfunction_find_paths_py28_$u7b$$u7b$closure$u7d$$u7d$17h6877ae34a3e88b59E', symObjAddr: 0x1FEC, symBinAddr: 0x2A48, symSize: 0x2C }
  - { offset: 0x3C2F, size: 0x8, addend: 0x0, symName: '__ZN11typg_python26__pyfunction_find_paths_py28_$u7b$$u7b$closure$u7d$$u7d$17h77d87828f696cdfaE', symObjAddr: 0x2018, symBinAddr: 0x2A74, symSize: 0x2C }
  - { offset: 0x3C57, size: 0x8, addend: 0x0, symName: '__ZN11typg_python26__pyfunction_find_paths_py28_$u7b$$u7b$closure$u7d$$u7d$17h8aeebc27d068d4eaE', symObjAddr: 0x2044, symBinAddr: 0x2AA0, symSize: 0x2C }
  - { offset: 0x3C7F, size: 0x8, addend: 0x0, symName: '__ZN11typg_python26__pyfunction_find_paths_py28_$u7b$$u7b$closure$u7d$$u7d$17h935b97630fcc93d8E', symObjAddr: 0x2070, symBinAddr: 0x2ACC, symSize: 0x2C }
  - { offset: 0x3CA7, size: 0x8, addend: 0x0, symName: '__ZN11typg_python26__pyfunction_find_paths_py28_$u7b$$u7b$closure$u7d$$u7d$17hacc96597a2538c1dE', symObjAddr: 0x209C, symBinAddr: 0x2AF8, symSize: 0x2C }
  - { offset: 0x3CCF, size: 0x8, addend: 0x0, symName: '__ZN11typg_python26__pyfunction_find_paths_py28_$u7b$$u7b$closure$u7d$$u7d$17hc4ebedac2ba8efccE', symObjAddr: 0x20C8, symBinAddr: 0x2B24, symSize: 0x2C }
  - { offset: 0x3CF7, size: 0x8, addend: 0x0, symName: '__ZN11typg_python26__pyfunction_find_paths_py28_$u7b$$u7b$closure$u7d$$u7d$17hd78a13c342230b17E', symObjAddr: 0x20F4, symBinAddr: 0x2B50, symSize: 0x2C }
  - { offset: 0x3D1F, size: 0x8, addend: 0x0, symName: '__ZN11typg_python26__pyfunction_find_paths_py28_$u7b$$u7b$closure$u7d$$u7d$17hd80abe7cbb1e9915E', symObjAddr: 0x2120, symBinAddr: 0x2B7C, symSize: 0x2C }
  - { offset: 0x3D47, size: 0x8, addend: 0x0, symName: '__ZN11typg_python26__pyfunction_find_paths_py28_$u7b$$u7b$closure$u7d$$u7d$17hec94570efcbe92d9E', symObjAddr: 0x214C, symBinAddr: 0x2BA8, symSize: 0x2C }
  - { offset: 0x3D6F, size: 0x8, addend: 0x0, symName: '__ZN11typg_python26__pyfunction_find_paths_py28_$u7b$$u7b$closure$u7d$$u7d$17hefa741f3f9003556E', symObjAddr: 0x2178, symBinAddr: 0x2BD4, symSize: 0x18 }
  - { offset: 0x3E06, size: 0x8, addend: 0x0, symName: '__ZN11typg_python29__pyfunction_filter_cached_py28_$u7b$$u7b$closure$u7d$$u7d$17h1952e4d1aa122ed3E', symObjAddr: 0x2190, symBinAddr: 0x2BEC, symSize: 0x2C }
  - { offset: 0x3E30, size: 0x8, addend: 0x0, symName: '__ZN11typg_python29__pyfunction_filter_cached_py28_$u7b$$u7b$closure$u7d$$u7d$17h2ae59eb581165db9E', symObjAddr: 0x21BC, symBinAddr: 0x2C18, symSize: 0x2C }
  - { offset: 0x3E5A, size: 0x8, addend: 0x0, symName: '__ZN11typg_python29__pyfunction_filter_cached_py28_$u7b$$u7b$closure$u7d$$u7d$17h87c441c5dc19ffd3E', symObjAddr: 0x21E8, symBinAddr: 0x2C44, symSize: 0x2C }
  - { offset: 0x3E84, size: 0x8, addend: 0x0, symName: '__ZN11typg_python29__pyfunction_filter_cached_py28_$u7b$$u7b$closure$u7d$$u7d$17h89ec3dab04f6c6a2E', symObjAddr: 0x2214, symBinAddr: 0x2C70, symSize: 0x2C }
  - { offset: 0x3EAE, size: 0x8, addend: 0x0, symName: '__ZN11typg_python29__pyfunction_filter_cached_py28_$u7b$$u7b$closure$u7d$$u7d$17h91001fd01207e1a2E', symObjAddr: 0x2240, symBinAddr: 0x2C9C, symSize: 0x2C }
  - { offset: 0x3ED8, size: 0x8, addend: 0x0, symName: '__ZN11typg_python29__pyfunction_filter_cached_py28_$u7b$$u7b$closure$u7d$$u7d$17h923b30f5b06cd5fdE', symObjAddr: 0x226C, symBinAddr: 0x2CC8, symSize: 0x2C }
  - { offset: 0x3F02, size: 0x8, addend: 0x0, symName: '__ZN11typg_python29__pyfunction_filter_cached_py28_$u7b$$u7b$closure$u7d$$u7d$17h92eb79d12213fe18E', symObjAddr: 0x2298, symBinAddr: 0x2CF4, symSize: 0x2C }
  - { offset: 0x3F2C, size: 0x8, addend: 0x0, symName: '__ZN11typg_python29__pyfunction_filter_cached_py28_$u7b$$u7b$closure$u7d$$u7d$17hb46ff0d8d6954a1bE', symObjAddr: 0x22C4, symBinAddr: 0x2D20, symSize: 0x2C }
  - { offset: 0x3F56, size: 0x8, addend: 0x0, symName: '__ZN11typg_python29__pyfunction_filter_cached_py28_$u7b$$u7b$closure$u7d$$u7d$17hd1137fb3f46d30c8E', symObjAddr: 0x22F0, symBinAddr: 0x2D4C, symSize: 0x2C }
  - { offset: 0x3F80, size: 0x8, addend: 0x0, symName: '__ZN11typg_python29__pyfunction_filter_cached_py28_$u7b$$u7b$closure$u7d$$u7d$17hd453c7886ae18330E', symObjAddr: 0x231C, symBinAddr: 0x2D78, symSize: 0x2C }
  - { offset: 0x3FAA, size: 0x8, addend: 0x0, symName: '__ZN11typg_python29__pyfunction_filter_cached_py28_$u7b$$u7b$closure$u7d$$u7d$17hec2ec21000d97a9fE', symObjAddr: 0x2348, symBinAddr: 0x2DA4, symSize: 0x2C }
  - { offset: 0x3FD4, size: 0x8, addend: 0x0, symName: '__ZN11typg_python29__pyfunction_filter_cached_py28_$u7b$$u7b$closure$u7d$$u7d$17hedc47ab86e726459E', symObjAddr: 0x2374, symBinAddr: 0x2DD0, symSize: 0x18 }
  - { offset: 0x3FFE, size: 0x8, addend: 0x0, symName: '__ZN11typg_python29__pyfunction_filter_cached_py28_$u7b$$u7b$closure$u7d$$u7d$17hfbf224a1c43158e2E', symObjAddr: 0x238C, symBinAddr: 0x2DE8, symSize: 0x2C }
  - { offset: 0x4145, size: 0x8, addend: 0x0, symName: '__ZN57_$LT$T$u20$as$u20$pyo3..conversion..FromPyObjectBound$GT$20from_py_object_bound17h6ec5735900a410e1E', symObjAddr: 0x23B8, symBinAddr: 0x2E14, symSize: 0x34 }
  - { offset: 0x63EA, size: 0x8, addend: 0x0, symName: __ZN4core9panicking13assert_failed17he6046ed257e1b174E, symObjAddr: 0x0, symBinAddr: 0x2D4918, symSize: 0x54 }
  - { offset: 0x644E, size: 0x8, addend: 0x0, symName: __ZN4core9panicking13assert_failed17he6046ed257e1b174E, symObjAddr: 0x0, symBinAddr: 0x2D4918, symSize: 0x54 }
  - { offset: 0x6809, size: 0x8, addend: 0x0, symName: '__ZN111_$LT$alloc..vec..in_place_drop..InPlaceDstDataSrcBufDrop$LT$Src$C$Dest$GT$$u20$as$u20$core..ops..drop..Drop$GT$4drop17h3f3d0f9371ae68feE', symObjAddr: 0x0, symBinAddr: 0x2E48, symSize: 0xB4 }
  - { offset: 0x7466, size: 0x8, addend: 0x0, symName: '__ZN4core3ptr100drop_in_place$LT$alloc..raw_vec..RawVec$LT$pyo3..instance..Py$LT$pyo3..types..any..PyAny$GT$$GT$$GT$17h89e77ac2adb9770aE', symObjAddr: 0x10D0, symBinAddr: 0x3F18, symSize: 0x24 }
  - { offset: 0x7495, size: 0x8, addend: 0x0, symName: '__ZN4core3ptr103drop_in_place$LT$alloc..vec..in_place_drop..InPlaceDrop$LT$typg_core..search..TypgFontFaceMatch$GT$$GT$17h2c7dfec0c38ed322E', symObjAddr: 0x10F4, symBinAddr: 0x3F3C, symSize: 0x24 }
  - { offset: 0x74C4, size: 0x8, addend: 0x0, symName: '__ZN4core3ptr109drop_in_place$LT$alloc..vec..into_iter..IntoIter$LT$pyo3..instance..Py$LT$pyo3..types..any..PyAny$GT$$GT$$GT$17h537cee238fd6ff5bE', symObjAddr: 0x1118, symBinAddr: 0x3F60, symSize: 0x24 }
  - { offset: 0x74F3, size: 0x8, addend: 0x0, symName: '__ZN4core3ptr112drop_in_place$LT$core..result..Result$LT$alloc..vec..Vec$LT$alloc..string..String$GT$$C$pyo3..err..PyErr$GT$$GT$17h275a10e7dad18a56E', symObjAddr: 0x113C, symBinAddr: 0x3F84, symSize: 0x50 }
  - { offset: 0x7522, size: 0x8, addend: 0x0, symName: '__ZN4core3ptr116drop_in_place$LT$alloc..vec..in_place_drop..InPlaceDrop$LT$pyo3..instance..Py$LT$pyo3..types..any..PyAny$GT$$GT$$GT$17h87816feecf0b0ceaE', symObjAddr: 0x118C, symBinAddr: 0x3FD4, symSize: 0x24 }
  - { offset: 0x7551, size: 0x8, addend: 0x0, symName: '__ZN4core3ptr121drop_in_place$LT$core..option..Option$LT$core..result..Result$LT$core..convert..Infallible$C$pyo3..err..PyErr$GT$$GT$$GT$17h63b4177c9600891eE', symObjAddr: 0x11B0, symBinAddr: 0x3FF8, symSize: 0x40 }
  - { offset: 0x7580, size: 0x8, addend: 0x0, symName: '__ZN4core3ptr140drop_in_place$LT$alloc..vec..in_place_drop..InPlaceDstDataSrcBufDrop$LT$typg_core..search..TypgFontFaceMatch$C$alloc..string..String$GT$$GT$17ha7f3253a72279a5cE', symObjAddr: 0x11F0, symBinAddr: 0x4038, symSize: 0x24 }
  - { offset: 0x75AF, size: 0x8, addend: 0x0, symName: '__ZN4core3ptr140drop_in_place$LT$core..result..Result$LT$alloc..vec..Vec$LT$pyo3..instance..Py$LT$pyo3..types..any..PyAny$GT$$GT$$C$pyo3..err..PyErr$GT$$GT$17h8f3586c83a5f70a4E', symObjAddr: 0x1214, symBinAddr: 0x405C, symSize: 0x50 }
  - { offset: 0x75DE, size: 0x8, addend: 0x0, symName: '__ZN4core3ptr145drop_in_place$LT$alloc..vec..in_place_drop..InPlaceDstDataSrcBufDrop$LT$typg_python..MetadataInput$C$typg_core..search..TypgFontFaceMatch$GT$$GT$17h801d3e506edc3500E', symObjAddr: 0x1264, symBinAddr: 0x40AC, symSize: 0x24 }
  - { offset: 0x760D, size: 0x8, addend: 0x0, symName: '__ZN4core3ptr148drop_in_place$LT$core..option..Option$LT$core..result..Result$LT$pyo3..instance..Bound$LT$pyo3..types..any..PyAny$GT$$C$pyo3..err..PyErr$GT$$GT$$GT$17hdc616212560cda7bE', symObjAddr: 0x1288, symBinAddr: 0x40D0, symSize: 0x44 }
  - { offset: 0x763C, size: 0x8, addend: 0x0, symName: '__ZN4core3ptr168drop_in_place$LT$alloc..vec..in_place_drop..InPlaceDstDataSrcBufDrop$LT$typg_core..search..TypgFontFaceMatch$C$pyo3..instance..Py$LT$pyo3..types..any..PyAny$GT$$GT$$GT$17h80c2c13aef1d9c97E', symObjAddr: 0x12CC, symBinAddr: 0x4114, symSize: 0x24 }
  - { offset: 0x766B, size: 0x8, addend: 0x0, symName: '__ZN4core3ptr175drop_in_place$LT$$LT$alloc..vec..into_iter..IntoIter$LT$T$C$A$GT$$u20$as$u20$core..ops..drop..Drop$GT$..drop..DropGuard$LT$alloc..string..String$C$alloc..alloc..Global$GT$$GT$17h06c9c3803368c3fcE', symObjAddr: 0x12F0, symBinAddr: 0x4138, symSize: 0x24 }
  - { offset: 0x769A, size: 0x8, addend: 0x0, symName: '__ZN4core3ptr180drop_in_place$LT$$LT$alloc..vec..into_iter..IntoIter$LT$T$C$A$GT$$u20$as$u20$core..ops..drop..Drop$GT$..drop..DropGuard$LT$typg_python..MetadataInput$C$alloc..alloc..Global$GT$$GT$17h9b8f39ff110bbc3cE', symObjAddr: 0x1314, symBinAddr: 0x415C, symSize: 0x24 }
  - { offset: 0x76C9, size: 0x8, addend: 0x0, symName: '__ZN4core3ptr185drop_in_place$LT$core..iter..adapters..map..Map$LT$alloc..vec..into_iter..IntoIter$LT$typg_python..MetadataInput$GT$$C$typg_python..convert_metadata..$u7b$$u7b$closure$u7d$$u7d$$GT$$GT$17h6c3538df6da67049E', symObjAddr: 0x1338, symBinAddr: 0x4180, symSize: 0x24 }
  - { offset: 0x76F8, size: 0x8, addend: 0x0, symName: '__ZN4core3ptr190drop_in_place$LT$$LT$alloc..vec..into_iter..IntoIter$LT$T$C$A$GT$$u20$as$u20$core..ops..drop..Drop$GT$..drop..DropGuard$LT$typg_core..search..TypgFontFaceMatch$C$alloc..alloc..Global$GT$$GT$17hdf5d200d6e6c15fbE', symObjAddr: 0x135C, symBinAddr: 0x41A4, symSize: 0x24 }
  - { offset: 0x7727, size: 0x8, addend: 0x0, symName: '__ZN4core3ptr192drop_in_place$LT$core..iter..adapters..map..Map$LT$alloc..vec..into_iter..IntoIter$LT$typg_core..search..TypgFontFaceMatch$GT$$C$typg_python..find_paths_py..$u7b$$u7b$closure$u7d$$u7d$$GT$$GT$17hff2543e994330348E', symObjAddr: 0x1380, symBinAddr: 0x41C8, symSize: 0x24 }
  - { offset: 0x7756, size: 0x8, addend: 0x0, symName: '__ZN4core3ptr192drop_in_place$LT$core..iter..adapters..map..Map$LT$alloc..vec..into_iter..IntoIter$LT$typg_core..search..TypgFontFaceMatch$GT$$C$typg_python..to_py_matches..$u7b$$u7b$closure$u7d$$u7d$$GT$$GT$17hd0e8d5ac6a6d2bacE', symObjAddr: 0x13A4, symBinAddr: 0x41EC, symSize: 0x24 }
  - { offset: 0x7785, size: 0x8, addend: 0x0, symName: '__ZN4core3ptr203drop_in_place$LT$$LT$alloc..vec..into_iter..IntoIter$LT$T$C$A$GT$$u20$as$u20$core..ops..drop..Drop$GT$..drop..DropGuard$LT$pyo3..instance..Py$LT$pyo3..types..any..PyAny$GT$$C$alloc..alloc..Global$GT$$GT$17h58118ceeed6ce9d2E', symObjAddr: 0x13C8, symBinAddr: 0x4210, symSize: 0x24 }
  - { offset: 0x77B4, size: 0x8, addend: 0x0, symName: '__ZN4core3ptr278drop_in_place$LT$alloc..vec..Vec$LT$alloc..string..String$GT$..extend_trusted$LT$core..iter..adapters..map..Map$LT$core..slice..iter..Iter$LT$char$GT$$C$typg_python..to_py_matches..$u7b$$u7b$closure$u7d$$u7d$..$u7b$$u7b$closure$u7d$$u7d$$GT$$GT$..$u7b$$u7b$closure$u7d$$u7d$$GT$17he0e0e26e0379592fE', symObjAddr: 0x13EC, symBinAddr: 0x4234, symSize: 0x24 }
  - { offset: 0x77E3, size: 0x8, addend: 0x0, symName: '__ZN4core3ptr294drop_in_place$LT$alloc..vec..Vec$LT$alloc..string..String$GT$..extend_trusted$LT$core..iter..adapters..map..Map$LT$core..slice..iter..Iter$LT$font_types..tag..Tag$GT$$C$typg_python..to_py_matches..$u7b$$u7b$closure$u7d$$u7d$..$u7b$$u7b$closure$u7d$$u7d$$GT$$GT$..$u7b$$u7b$closure$u7d$$u7d$$GT$17h123a28b8e3b3ce6fE', symObjAddr: 0x1410, symBinAddr: 0x4258, symSize: 0x24 }
  - { offset: 0x7812, size: 0x8, addend: 0x0, symName: '__ZN4core3ptr294drop_in_place$LT$alloc..vec..Vec$LT$alloc..string..String$GT$..extend_trusted$LT$core..iter..adapters..map..Map$LT$core..slice..iter..Iter$LT$font_types..tag..Tag$GT$$C$typg_python..to_py_matches..$u7b$$u7b$closure$u7d$$u7d$..$u7b$$u7b$closure$u7d$$u7d$$GT$$GT$..$u7b$$u7b$closure$u7d$$u7d$$GT$17h5d73cdd3906bef73E', symObjAddr: 0x1434, symBinAddr: 0x427C, symSize: 0x24 }
  - { offset: 0x7841, size: 0x8, addend: 0x0, symName: '__ZN4core3ptr294drop_in_place$LT$alloc..vec..Vec$LT$alloc..string..String$GT$..extend_trusted$LT$core..iter..adapters..map..Map$LT$core..slice..iter..Iter$LT$font_types..tag..Tag$GT$$C$typg_python..to_py_matches..$u7b$$u7b$closure$u7d$$u7d$..$u7b$$u7b$closure$u7d$$u7d$$GT$$GT$..$u7b$$u7b$closure$u7d$$u7d$$GT$17h6d51650817e5ffd5E', symObjAddr: 0x1458, symBinAddr: 0x42A0, symSize: 0x24 }
  - { offset: 0x7870, size: 0x8, addend: 0x0, symName: '__ZN4core3ptr294drop_in_place$LT$alloc..vec..Vec$LT$alloc..string..String$GT$..extend_trusted$LT$core..iter..adapters..map..Map$LT$core..slice..iter..Iter$LT$font_types..tag..Tag$GT$$C$typg_python..to_py_matches..$u7b$$u7b$closure$u7d$$u7d$..$u7b$$u7b$closure$u7d$$u7d$$GT$$GT$..$u7b$$u7b$closure$u7d$$u7d$$GT$17hffbb318641e7f7e2E', symObjAddr: 0x147C, symBinAddr: 0x42C4, symSize: 0x24 }
  - { offset: 0x789F, size: 0x8, addend: 0x0, symName: '__ZN4core3ptr299drop_in_place$LT$core..iter..adapters..GenericShunt$LT$core..iter..adapters..map..Map$LT$alloc..vec..into_iter..IntoIter$LT$typg_python..MetadataInput$GT$$C$typg_python..convert_metadata..$u7b$$u7b$closure$u7d$$u7d$$GT$$C$core..result..Result$LT$core..convert..Infallible$C$anyhow..Error$GT$$GT$$GT$17hb0054ed894c2fca7E', symObjAddr: 0x14A0, symBinAddr: 0x42E8, symSize: 0x24 }
  - { offset: 0x78CE, size: 0x8, addend: 0x0, symName: '__ZN4core3ptr304drop_in_place$LT$core..iter..adapters..map..Map$LT$alloc..vec..into_iter..IntoIter$LT$alloc..string..String$GT$$C$$LT$alloc..string..String$u20$as$u20$pyo3..conversion..IntoPyObject$GT$..owned_sequence_into_pyobject$LT$alloc..vec..Vec$LT$alloc..string..String$GT$$GT$..$u7b$$u7b$closure$u7d$$u7d$$GT$$GT$17h8fcff59549000411E', symObjAddr: 0x14C4, symBinAddr: 0x430C, symSize: 0x24 }
  - { offset: 0x78FD, size: 0x8, addend: 0x0, symName: '__ZN4core3ptr309drop_in_place$LT$core..iter..adapters..GenericShunt$LT$core..iter..adapters..map..Map$LT$alloc..vec..into_iter..IntoIter$LT$typg_core..search..TypgFontFaceMatch$GT$$C$typg_python..to_py_matches..$u7b$$u7b$closure$u7d$$u7d$$GT$$C$core..result..Result$LT$core..convert..Infallible$C$pyo3..err..PyErr$GT$$GT$$GT$17h6aebc417e39d254bE', symObjAddr: 0x14E8, symBinAddr: 0x4330, symSize: 0x24 }
  - { offset: 0x792C, size: 0x8, addend: 0x0, symName: '__ZN4core3ptr388drop_in_place$LT$core..iter..adapters..map..Map$LT$alloc..vec..into_iter..IntoIter$LT$pyo3..instance..Py$LT$pyo3..types..any..PyAny$GT$$GT$$C$$LT$pyo3..instance..Py$LT$pyo3..types..any..PyAny$GT$$u20$as$u20$pyo3..conversion..IntoPyObject$GT$..owned_sequence_into_pyobject$LT$alloc..vec..Vec$LT$pyo3..instance..Py$LT$pyo3..types..any..PyAny$GT$$GT$$GT$..$u7b$$u7b$closure$u7d$$u7d$$GT$$GT$17h75f1c73471397c38E', symObjAddr: 0x150C, symBinAddr: 0x4354, symSize: 0x24 }
  - { offset: 0x795B, size: 0x8, addend: 0x0, symName: '__ZN4core3ptr393drop_in_place$LT$core..iter..traits..iterator..Iterator..for_each..call$LT$alloc..string..String$C$alloc..vec..Vec$LT$alloc..string..String$GT$..extend_trusted$LT$core..iter..adapters..map..Map$LT$core..slice..iter..Iter$LT$char$GT$$C$typg_python..to_py_matches..$u7b$$u7b$closure$u7d$$u7d$..$u7b$$u7b$closure$u7d$$u7d$$GT$$GT$..$u7b$$u7b$closure$u7d$$u7d$$GT$..$u7b$$u7b$closure$u7d$$u7d$$GT$17h5a2d6447f0932ae8E', symObjAddr: 0x1530, symBinAddr: 0x4378, symSize: 0x24 }
  - { offset: 0x798A, size: 0x8, addend: 0x0, symName: '__ZN4core3ptr409drop_in_place$LT$core..iter..traits..iterator..Iterator..for_each..call$LT$alloc..string..String$C$alloc..vec..Vec$LT$alloc..string..String$GT$..extend_trusted$LT$core..iter..adapters..map..Map$LT$core..slice..iter..Iter$LT$font_types..tag..Tag$GT$$C$typg_python..to_py_matches..$u7b$$u7b$closure$u7d$$u7d$..$u7b$$u7b$closure$u7d$$u7d$$GT$$GT$..$u7b$$u7b$closure$u7d$$u7d$$GT$..$u7b$$u7b$closure$u7d$$u7d$$GT$17h3313434c001ffddfE', symObjAddr: 0x1554, symBinAddr: 0x439C, symSize: 0x24 }
  - { offset: 0x79B9, size: 0x8, addend: 0x0, symName: '__ZN4core3ptr409drop_in_place$LT$core..iter..traits..iterator..Iterator..for_each..call$LT$alloc..string..String$C$alloc..vec..Vec$LT$alloc..string..String$GT$..extend_trusted$LT$core..iter..adapters..map..Map$LT$core..slice..iter..Iter$LT$font_types..tag..Tag$GT$$C$typg_python..to_py_matches..$u7b$$u7b$closure$u7d$$u7d$..$u7b$$u7b$closure$u7d$$u7d$$GT$$GT$..$u7b$$u7b$closure$u7d$$u7d$$GT$..$u7b$$u7b$closure$u7d$$u7d$$GT$17h611db47c343d66c2E', symObjAddr: 0x1578, symBinAddr: 0x43C0, symSize: 0x24 }
  - { offset: 0x79E8, size: 0x8, addend: 0x0, symName: '__ZN4core3ptr409drop_in_place$LT$core..iter..traits..iterator..Iterator..for_each..call$LT$alloc..string..String$C$alloc..vec..Vec$LT$alloc..string..String$GT$..extend_trusted$LT$core..iter..adapters..map..Map$LT$core..slice..iter..Iter$LT$font_types..tag..Tag$GT$$C$typg_python..to_py_matches..$u7b$$u7b$closure$u7d$$u7d$..$u7b$$u7b$closure$u7d$$u7d$$GT$$GT$..$u7b$$u7b$closure$u7d$$u7d$$GT$..$u7b$$u7b$closure$u7d$$u7d$$GT$17hb72e3ece3b8544caE', symObjAddr: 0x159C, symBinAddr: 0x43E4, symSize: 0x24 }
  - { offset: 0x7A17, size: 0x8, addend: 0x0, symName: '__ZN4core3ptr409drop_in_place$LT$core..iter..traits..iterator..Iterator..for_each..call$LT$alloc..string..String$C$alloc..vec..Vec$LT$alloc..string..String$GT$..extend_trusted$LT$core..iter..adapters..map..Map$LT$core..slice..iter..Iter$LT$font_types..tag..Tag$GT$$C$typg_python..to_py_matches..$u7b$$u7b$closure$u7d$$u7d$..$u7b$$u7b$closure$u7d$$u7d$$GT$$GT$..$u7b$$u7b$closure$u7d$$u7d$$GT$..$u7b$$u7b$closure$u7d$$u7d$$GT$17hc40e925c50038ef0E', symObjAddr: 0x15C0, symBinAddr: 0x4408, symSize: 0x24 }
  - { offset: 0x7A46, size: 0x8, addend: 0x0, symName: '__ZN4core3ptr47drop_in_place$LT$typg_python..MetadataInput$GT$17h55ebd417e6007d7cE', symObjAddr: 0x15E4, symBinAddr: 0x442C, symSize: 0x1B0 }
  - { offset: 0x7A75, size: 0x8, addend: 0x0, symName: '__ZN4core3ptr57drop_in_place$LT$$u5b$typg_python..MetadataInput$u5d$$GT$17hd9e40ce093327155E', symObjAddr: 0x17B8, symBinAddr: 0x45DC, symSize: 0xC4 }
  - { offset: 0x7AA4, size: 0x8, addend: 0x0, symName: '__ZN4core3ptr598drop_in_place$LT$core..iter..adapters..map..map_fold$LT$$RF$char$C$alloc..string..String$C$$LP$$RP$$C$typg_python..to_py_matches..$u7b$$u7b$closure$u7d$$u7d$..$u7b$$u7b$closure$u7d$$u7d$$C$core..iter..traits..iterator..Iterator..for_each..call$LT$alloc..string..String$C$alloc..vec..Vec$LT$alloc..string..String$GT$..extend_trusted$LT$core..iter..adapters..map..Map$LT$core..slice..iter..Iter$LT$char$GT$$C$typg_python..to_py_matches..$u7b$$u7b$closure$u7d$$u7d$..$u7b$$u7b$closure$u7d$$u7d$$GT$$GT$..$u7b$$u7b$closure$u7d$$u7d$$GT$..$u7b$$u7b$closure$u7d$$u7d$$GT$..$u7b$$u7b$closure$u7d$$u7d$$GT$17h5c2fbe3c54109bf4E', symObjAddr: 0x187C, symBinAddr: 0x46A0, symSize: 0x24 }
  - { offset: 0x7AD3, size: 0x8, addend: 0x0, symName: '__ZN4core3ptr630drop_in_place$LT$core..iter..adapters..map..map_fold$LT$$RF$font_types..tag..Tag$C$alloc..string..String$C$$LP$$RP$$C$typg_python..to_py_matches..$u7b$$u7b$closure$u7d$$u7d$..$u7b$$u7b$closure$u7d$$u7d$$C$core..iter..traits..iterator..Iterator..for_each..call$LT$alloc..string..String$C$alloc..vec..Vec$LT$alloc..string..String$GT$..extend_trusted$LT$core..iter..adapters..map..Map$LT$core..slice..iter..Iter$LT$font_types..tag..Tag$GT$$C$typg_python..to_py_matches..$u7b$$u7b$closure$u7d$$u7d$..$u7b$$u7b$closure$u7d$$u7d$$GT$$GT$..$u7b$$u7b$closure$u7d$$u7d$$GT$..$u7b$$u7b$closure$u7d$$u7d$$GT$..$u7b$$u7b$closure$u7d$$u7d$$GT$17h305f16ab45ce7b6aE', symObjAddr: 0x18A0, symBinAddr: 0x46C4, symSize: 0x24 }
  - { offset: 0x7B02, size: 0x8, addend: 0x0, symName: '__ZN4core3ptr630drop_in_place$LT$core..iter..adapters..map..map_fold$LT$$RF$font_types..tag..Tag$C$alloc..string..String$C$$LP$$RP$$C$typg_python..to_py_matches..$u7b$$u7b$closure$u7d$$u7d$..$u7b$$u7b$closure$u7d$$u7d$$C$core..iter..traits..iterator..Iterator..for_each..call$LT$alloc..string..String$C$alloc..vec..Vec$LT$alloc..string..String$GT$..extend_trusted$LT$core..iter..adapters..map..Map$LT$core..slice..iter..Iter$LT$font_types..tag..Tag$GT$$C$typg_python..to_py_matches..$u7b$$u7b$closure$u7d$$u7d$..$u7b$$u7b$closure$u7d$$u7d$$GT$$GT$..$u7b$$u7b$closure$u7d$$u7d$$GT$..$u7b$$u7b$closure$u7d$$u7d$$GT$..$u7b$$u7b$closure$u7d$$u7d$$GT$17h52655eeaf0e3b92fE', symObjAddr: 0x18C4, symBinAddr: 0x46E8, symSize: 0x24 }
  - { offset: 0x7B31, size: 0x8, addend: 0x0, symName: '__ZN4core3ptr630drop_in_place$LT$core..iter..adapters..map..map_fold$LT$$RF$font_types..tag..Tag$C$alloc..string..String$C$$LP$$RP$$C$typg_python..to_py_matches..$u7b$$u7b$closure$u7d$$u7d$..$u7b$$u7b$closure$u7d$$u7d$$C$core..iter..traits..iterator..Iterator..for_each..call$LT$alloc..string..String$C$alloc..vec..Vec$LT$alloc..string..String$GT$..extend_trusted$LT$core..iter..adapters..map..Map$LT$core..slice..iter..Iter$LT$font_types..tag..Tag$GT$$C$typg_python..to_py_matches..$u7b$$u7b$closure$u7d$$u7d$..$u7b$$u7b$closure$u7d$$u7d$$GT$$GT$..$u7b$$u7b$closure$u7d$$u7d$$GT$..$u7b$$u7b$closure$u7d$$u7d$$GT$..$u7b$$u7b$closure$u7d$$u7d$$GT$17hc0ee012d2fa70c7cE', symObjAddr: 0x18E8, symBinAddr: 0x470C, symSize: 0x24 }
  - { offset: 0x7B60, size: 0x8, addend: 0x0, symName: '__ZN4core3ptr630drop_in_place$LT$core..iter..adapters..map..map_fold$LT$$RF$font_types..tag..Tag$C$alloc..string..String$C$$LP$$RP$$C$typg_python..to_py_matches..$u7b$$u7b$closure$u7d$$u7d$..$u7b$$u7b$closure$u7d$$u7d$$C$core..iter..traits..iterator..Iterator..for_each..call$LT$alloc..string..String$C$alloc..vec..Vec$LT$alloc..string..String$GT$..extend_trusted$LT$core..iter..adapters..map..Map$LT$core..slice..iter..Iter$LT$font_types..tag..Tag$GT$$C$typg_python..to_py_matches..$u7b$$u7b$closure$u7d$$u7d$..$u7b$$u7b$closure$u7d$$u7d$$GT$$GT$..$u7b$$u7b$closure$u7d$$u7d$$GT$..$u7b$$u7b$closure$u7d$$u7d$$GT$..$u7b$$u7b$closure$u7d$$u7d$$GT$17hf1307d13fbe1cbf5E', symObjAddr: 0x190C, symBinAddr: 0x4730, symSize: 0x24 }
  - { offset: 0x7B8F, size: 0x8, addend: 0x0, symName: '__ZN4core3ptr70drop_in_place$LT$alloc..vec..Vec$LT$typg_python..MetadataInput$GT$$GT$17h7bd6e8ba9ddbfd3bE', symObjAddr: 0x1930, symBinAddr: 0x4754, symSize: 0x5C }
  - { offset: 0x7BBE, size: 0x8, addend: 0x0, symName: '__ZN4core3ptr73drop_in_place$LT$core..result..Result$LT$usize$C$pyo3..err..PyErr$GT$$GT$17h03ef74a63188ddc4E', symObjAddr: 0x198C, symBinAddr: 0x47B0, symSize: 0x40 }
  - { offset: 0x7BED, size: 0x8, addend: 0x0, symName: '__ZN4core3ptr77drop_in_place$LT$alloc..raw_vec..RawVec$LT$typg_python..MetadataInput$GT$$GT$17he05c406f497cf911E', symObjAddr: 0x19CC, symBinAddr: 0x47F0, symSize: 0x24 }
  - { offset: 0x7C1C, size: 0x8, addend: 0x0, symName: '__ZN4core3ptr77drop_in_place$LT$core..slice..sort..stable..merge..MergeState$LT$char$GT$$GT$17h1d92b2485e688b28E', symObjAddr: 0x19F0, symBinAddr: 0x4814, symSize: 0x24 }
  - { offset: 0x7C4B, size: 0x8, addend: 0x0, symName: '__ZN4core3ptr80drop_in_place$LT$$u5b$pyo3..instance..Py$LT$pyo3..types..any..PyAny$GT$$u5d$$GT$17hefa5c6ddf7ec2dc3E', symObjAddr: 0x1A14, symBinAddr: 0x4838, symSize: 0xB4 }
  - { offset: 0x7C7A, size: 0x8, addend: 0x0, symName: '__ZN4core3ptr81drop_in_place$LT$alloc..vec..into_iter..IntoIter$LT$alloc..string..String$GT$$GT$17h1002b50d2b0f2bc6E', symObjAddr: 0x1AC8, symBinAddr: 0x48EC, symSize: 0x24 }
  - { offset: 0x7CA9, size: 0x8, addend: 0x0, symName: '__ZN4core3ptr86drop_in_place$LT$alloc..vec..into_iter..IntoIter$LT$typg_python..MetadataInput$GT$$GT$17h821e80e467646048E', symObjAddr: 0x1AEC, symBinAddr: 0x4910, symSize: 0x24 }
  - { offset: 0x7CD8, size: 0x8, addend: 0x0, symName: '__ZN4core3ptr88drop_in_place$LT$alloc..vec..in_place_drop..InPlaceDrop$LT$alloc..string..String$GT$$GT$17h56af3650e9ce8ab2E', symObjAddr: 0x1B10, symBinAddr: 0x4934, symSize: 0x24 }
  - { offset: 0x7D07, size: 0x8, addend: 0x0, symName: '__ZN4core3ptr92drop_in_place$LT$core..ops..control_flow..ControlFlow$LT$regex..regex..string..Regex$GT$$GT$17h97dbea06f651e569E', symObjAddr: 0x1B34, symBinAddr: 0x4958, symSize: 0x44 }
  - { offset: 0x7D36, size: 0x8, addend: 0x0, symName: '__ZN4core3ptr93drop_in_place$LT$alloc..vec..Vec$LT$pyo3..instance..Py$LT$pyo3..types..any..PyAny$GT$$GT$$GT$17h29d6554faf2a8a3aE', symObjAddr: 0x1B78, symBinAddr: 0x499C, symSize: 0x5C }
  - { offset: 0x7D65, size: 0x8, addend: 0x0, symName: '__ZN4core3ptr93drop_in_place$LT$core..option..Option$LT$alloc..vec..Vec$LT$alloc..string..String$GT$$GT$$GT$17h4b5023fb68195da0E', symObjAddr: 0x1BD4, symBinAddr: 0x49F8, symSize: 0x48 }
  - { offset: 0x7D94, size: 0x8, addend: 0x0, symName: '__ZN4core3ptr93drop_in_place$LT$core..result..Result$LT$core..convert..Infallible$C$pyo3..err..PyErr$GT$$GT$17hc913a675dacf1b40E', symObjAddr: 0x1C1C, symBinAddr: 0x4A40, symSize: 0x30 }
  - { offset: 0x7DC3, size: 0x8, addend: 0x0, symName: '__ZN4core3ptr96drop_in_place$LT$alloc..vec..into_iter..IntoIter$LT$typg_core..search..TypgFontFaceMatch$GT$$GT$17h5e17b2f1c511da6aE', symObjAddr: 0x1C4C, symBinAddr: 0x4A70, symSize: 0x24 }
  - { offset: 0x9135, size: 0x8, addend: 0x0, symName: __ZN4core3ops8function5FnMut8call_mut17h8160b32798ec5d7fE, symObjAddr: 0x3CC, symBinAddr: 0x3214, symSize: 0x38 }
  - { offset: 0x9179, size: 0x8, addend: 0x0, symName: __ZN4core3ops8function5FnMut8call_mut17h8b227833b1948106E, symObjAddr: 0x404, symBinAddr: 0x324C, symSize: 0x40 }
  - { offset: 0x91E8, size: 0x8, addend: 0x0, symName: __ZN4core3ops8function6FnOnce9call_once17h054b07cad8fc33faE, symObjAddr: 0x444, symBinAddr: 0x328C, symSize: 0x44 }
  - { offset: 0x922C, size: 0x8, addend: 0x0, symName: __ZN4core3ops8function6FnOnce9call_once17h0736a3f265d6b39dE, symObjAddr: 0x488, symBinAddr: 0x32D0, symSize: 0x44 }
  - { offset: 0x9270, size: 0x8, addend: 0x0, symName: __ZN4core3ops8function6FnOnce9call_once17h18337941e74700b3E, symObjAddr: 0x4CC, symBinAddr: 0x3314, symSize: 0x24 }
  - { offset: 0x92B4, size: 0x8, addend: 0x0, symName: __ZN4core3ops8function6FnOnce9call_once17h1a66d90e66403c28E, symObjAddr: 0x4F0, symBinAddr: 0x3338, symSize: 0x3C }
  - { offset: 0x92F8, size: 0x8, addend: 0x0, symName: __ZN4core3ops8function6FnOnce9call_once17h1d205e8088b3fa92E, symObjAddr: 0x52C, symBinAddr: 0x3374, symSize: 0x3C }
  - { offset: 0x933C, size: 0x8, addend: 0x0, symName: __ZN4core3ops8function6FnOnce9call_once17h1d2d863799bbca9dE, symObjAddr: 0x568, symBinAddr: 0x33B0, symSize: 0x3C }
  - { offset: 0x9380, size: 0x8, addend: 0x0, symName: __ZN4core3ops8function6FnOnce9call_once17h1fd69325b9bd5106E, symObjAddr: 0x5A4, symBinAddr: 0x33EC, symSize: 0x3C }
  - { offset: 0x93C4, size: 0x8, addend: 0x0, symName: __ZN4core3ops8function6FnOnce9call_once17h2609e3b04a04d622E, symObjAddr: 0x5E0, symBinAddr: 0x3428, symSize: 0x3C }
  - { offset: 0x9408, size: 0x8, addend: 0x0, symName: __ZN4core3ops8function6FnOnce9call_once17h28e778ee1dbfd6afE, symObjAddr: 0x61C, symBinAddr: 0x3464, symSize: 0x3C }
  - { offset: 0x944C, size: 0x8, addend: 0x0, symName: __ZN4core3ops8function6FnOnce9call_once17h2c49c358bb64954cE, symObjAddr: 0x658, symBinAddr: 0x34A0, symSize: 0x3C }
  - { offset: 0x9490, size: 0x8, addend: 0x0, symName: __ZN4core3ops8function6FnOnce9call_once17h2e6b9e598088fa5cE, symObjAddr: 0x694, symBinAddr: 0x34DC, symSize: 0x4C }
  - { offset: 0x94D4, size: 0x8, addend: 0x0, symName: __ZN4core3ops8function6FnOnce9call_once17h337b3306bf97431aE, symObjAddr: 0x6E0, symBinAddr: 0x3528, symSize: 0x3C }
  - { offset: 0x9518, size: 0x8, addend: 0x0, symName: __ZN4core3ops8function6FnOnce9call_once17h37a621e14afe5118E, symObjAddr: 0x71C, symBinAddr: 0x3564, symSize: 0x3C }
  - { offset: 0x955C, size: 0x8, addend: 0x0, symName: __ZN4core3ops8function6FnOnce9call_once17h3d7c825687d6a2a2E, symObjAddr: 0x758, symBinAddr: 0x35A0, symSize: 0x3C }
  - { offset: 0x95A0, size: 0x8, addend: 0x0, symName: __ZN4core3ops8function6FnOnce9call_once17h3e4f65bebf4960bfE, symObjAddr: 0x794, symBinAddr: 0x35DC, symSize: 0x3C }
  - { offset: 0x95E4, size: 0x8, addend: 0x0, symName: __ZN4core3ops8function6FnOnce9call_once17h4079aecb0a400eb6E, symObjAddr: 0x7D0, symBinAddr: 0x3618, symSize: 0x3C }
  - { offset: 0x9628, size: 0x8, addend: 0x0, symName: __ZN4core3ops8function6FnOnce9call_once17h441ad7bf12927229E, symObjAddr: 0x80C, symBinAddr: 0x3654, symSize: 0x48 }
  - { offset: 0x966C, size: 0x8, addend: 0x0, symName: __ZN4core3ops8function6FnOnce9call_once17h44f6bbca1f443270E, symObjAddr: 0x854, symBinAddr: 0x369C, symSize: 0x3C }
  - { offset: 0x96B0, size: 0x8, addend: 0x0, symName: __ZN4core3ops8function6FnOnce9call_once17h498d6850cb946f55E, symObjAddr: 0x890, symBinAddr: 0x36D8, symSize: 0x3C }
  - { offset: 0x96F4, size: 0x8, addend: 0x0, symName: __ZN4core3ops8function6FnOnce9call_once17h503eee5f245b257fE, symObjAddr: 0x8CC, symBinAddr: 0x3714, symSize: 0x3C }
  - { offset: 0x9738, size: 0x8, addend: 0x0, symName: __ZN4core3ops8function6FnOnce9call_once17h52eef59cce57a809E, symObjAddr: 0x908, symBinAddr: 0x3750, symSize: 0x3C }
  - { offset: 0x977C, size: 0x8, addend: 0x0, symName: __ZN4core3ops8function6FnOnce9call_once17h560a2e367ec9b3adE, symObjAddr: 0x944, symBinAddr: 0x378C, symSize: 0x3C }
  - { offset: 0x97C0, size: 0x8, addend: 0x0, symName: __ZN4core3ops8function6FnOnce9call_once17h5c63de33fb458ce7E, symObjAddr: 0x980, symBinAddr: 0x37C8, symSize: 0x3C }
  - { offset: 0x9804, size: 0x8, addend: 0x0, symName: __ZN4core3ops8function6FnOnce9call_once17h5e8ed45eac556f00E, symObjAddr: 0x9BC, symBinAddr: 0x3804, symSize: 0x3C }
  - { offset: 0x9848, size: 0x8, addend: 0x0, symName: __ZN4core3ops8function6FnOnce9call_once17h67bd5e59474c08a8E, symObjAddr: 0x9F8, symBinAddr: 0x3840, symSize: 0x3C }
  - { offset: 0x988C, size: 0x8, addend: 0x0, symName: __ZN4core3ops8function6FnOnce9call_once17h69be019baca582b6E, symObjAddr: 0xA34, symBinAddr: 0x387C, symSize: 0x24 }
  - { offset: 0x98D0, size: 0x8, addend: 0x0, symName: __ZN4core3ops8function6FnOnce9call_once17h6c19439d9d7d7c3aE, symObjAddr: 0xA58, symBinAddr: 0x38A0, symSize: 0x3C }
  - { offset: 0x9914, size: 0x8, addend: 0x0, symName: __ZN4core3ops8function6FnOnce9call_once17h73ebbbced281c487E, symObjAddr: 0xA94, symBinAddr: 0x38DC, symSize: 0x34 }
  - { offset: 0x9958, size: 0x8, addend: 0x0, symName: __ZN4core3ops8function6FnOnce9call_once17h76ca4b827a1ae67cE, symObjAddr: 0xAC8, symBinAddr: 0x3910, symSize: 0x3C }
  - { offset: 0x999C, size: 0x8, addend: 0x0, symName: __ZN4core3ops8function6FnOnce9call_once17h77bcc09c936d63efE, symObjAddr: 0xB04, symBinAddr: 0x394C, symSize: 0x3C }
  - { offset: 0x99E0, size: 0x8, addend: 0x0, symName: __ZN4core3ops8function6FnOnce9call_once17h7bd5b355b4473c84E, symObjAddr: 0xB40, symBinAddr: 0x3988, symSize: 0x3C }
  - { offset: 0x9A24, size: 0x8, addend: 0x0, symName: __ZN4core3ops8function6FnOnce9call_once17h7d64de73a8f8e6c8E, symObjAddr: 0xB7C, symBinAddr: 0x39C4, symSize: 0x3C }
  - { offset: 0x9A68, size: 0x8, addend: 0x0, symName: __ZN4core3ops8function6FnOnce9call_once17h7dd717c61aad3e66E, symObjAddr: 0xBB8, symBinAddr: 0x3A00, symSize: 0x24 }
  - { offset: 0x9AAC, size: 0x8, addend: 0x0, symName: __ZN4core3ops8function6FnOnce9call_once17h7fcfd5c5d0c48c07E, symObjAddr: 0xBDC, symBinAddr: 0x3A24, symSize: 0x3C }
  - { offset: 0x9AF0, size: 0x8, addend: 0x0, symName: __ZN4core3ops8function6FnOnce9call_once17h81eac0368a4d1415E, symObjAddr: 0xC18, symBinAddr: 0x3A60, symSize: 0x3C }
  - { offset: 0x9B34, size: 0x8, addend: 0x0, symName: __ZN4core3ops8function6FnOnce9call_once17h92089d83135e1473E, symObjAddr: 0xC54, symBinAddr: 0x3A9C, symSize: 0x3C }
  - { offset: 0x9B78, size: 0x8, addend: 0x0, symName: __ZN4core3ops8function6FnOnce9call_once17h9507226868ffc4ecE, symObjAddr: 0xC90, symBinAddr: 0x3AD8, symSize: 0x24 }
  - { offset: 0x9BBC, size: 0x8, addend: 0x0, symName: __ZN4core3ops8function6FnOnce9call_once17ha247db02aae76efeE, symObjAddr: 0xCB4, symBinAddr: 0x3AFC, symSize: 0x4C }
  - { offset: 0x9C00, size: 0x8, addend: 0x0, symName: __ZN4core3ops8function6FnOnce9call_once17hb527865811f5452cE, symObjAddr: 0xD00, symBinAddr: 0x3B48, symSize: 0x24 }
  - { offset: 0x9C44, size: 0x8, addend: 0x0, symName: __ZN4core3ops8function6FnOnce9call_once17hb9893ff5a4a0b86bE, symObjAddr: 0xD24, symBinAddr: 0x3B6C, symSize: 0x3C }
  - { offset: 0x9C88, size: 0x8, addend: 0x0, symName: __ZN4core3ops8function6FnOnce9call_once17hbd26a71882759876E, symObjAddr: 0xD60, symBinAddr: 0x3BA8, symSize: 0x24 }
  - { offset: 0x9CCC, size: 0x8, addend: 0x0, symName: __ZN4core3ops8function6FnOnce9call_once17hca773820aa69225bE, symObjAddr: 0xD84, symBinAddr: 0x3BCC, symSize: 0x24 }
  - { offset: 0x9D10, size: 0x8, addend: 0x0, symName: __ZN4core3ops8function6FnOnce9call_once17hd12c635bd837612fE, symObjAddr: 0xDA8, symBinAddr: 0x3BF0, symSize: 0x3C }
  - { offset: 0x9D54, size: 0x8, addend: 0x0, symName: __ZN4core3ops8function6FnOnce9call_once17hd164e711e64d43b4E, symObjAddr: 0xDE4, symBinAddr: 0x3C2C, symSize: 0x3C }
  - { offset: 0x9D98, size: 0x8, addend: 0x0, symName: __ZN4core3ops8function6FnOnce9call_once17hd200c02de602c135E, symObjAddr: 0xE20, symBinAddr: 0x3C68, symSize: 0x3C }
  - { offset: 0x9DDC, size: 0x8, addend: 0x0, symName: __ZN4core3ops8function6FnOnce9call_once17hdacb1af25ea8bc70E, symObjAddr: 0xE5C, symBinAddr: 0x3CA4, symSize: 0x24 }
  - { offset: 0x9E20, size: 0x8, addend: 0x0, symName: __ZN4core3ops8function6FnOnce9call_once17hdb2e215cc3b54ad8E, symObjAddr: 0xE80, symBinAddr: 0x3CC8, symSize: 0x44 }
  - { offset: 0x9E64, size: 0x8, addend: 0x0, symName: __ZN4core3ops8function6FnOnce9call_once17he1d9a3360ab76196E, symObjAddr: 0xEC4, symBinAddr: 0x3D0C, symSize: 0x3C }
  - { offset: 0x9EA8, size: 0x8, addend: 0x0, symName: __ZN4core3ops8function6FnOnce9call_once17he56a404cea691301E, symObjAddr: 0xF00, symBinAddr: 0x3D48, symSize: 0x34 }
  - { offset: 0x9EEC, size: 0x8, addend: 0x0, symName: __ZN4core3ops8function6FnOnce9call_once17he81f05889f3a68fcE, symObjAddr: 0xF34, symBinAddr: 0x3D7C, symSize: 0x3C }
  - { offset: 0x9F30, size: 0x8, addend: 0x0, symName: __ZN4core3ops8function6FnOnce9call_once17heb1e3df8490142f8E, symObjAddr: 0xF70, symBinAddr: 0x3DB8, symSize: 0x3C }
  - { offset: 0x9F74, size: 0x8, addend: 0x0, symName: __ZN4core3ops8function6FnOnce9call_once17hf14859fb0e053a10E, symObjAddr: 0xFAC, symBinAddr: 0x3DF4, symSize: 0x44 }
  - { offset: 0x9FB8, size: 0x8, addend: 0x0, symName: __ZN4core3ops8function6FnOnce9call_once17hf31e8cb8f5ef429aE, symObjAddr: 0xFF0, symBinAddr: 0x3E38, symSize: 0x3C }
  - { offset: 0x9FFC, size: 0x8, addend: 0x0, symName: __ZN4core3ops8function6FnOnce9call_once17hf7f022555bfecbcfE, symObjAddr: 0x102C, symBinAddr: 0x3E74, symSize: 0x24 }
  - { offset: 0xA040, size: 0x8, addend: 0x0, symName: __ZN4core3ops8function6FnOnce9call_once17hfe2621b59490f67cE, symObjAddr: 0x1050, symBinAddr: 0x3E98, symSize: 0x3C }
  - { offset: 0xA084, size: 0x8, addend: 0x0, symName: __ZN4core3ops8function6FnOnce9call_once17hfe4e8a7e37d9f14dE, symObjAddr: 0x108C, symBinAddr: 0x3ED4, symSize: 0x44 }
  - { offset: 0xA376, size: 0x8, addend: 0x0, symName: '__ZN95_$LT$core..slice..sort..stable..merge..MergeState$LT$T$GT$$u20$as$u20$core..ops..drop..Drop$GT$4drop17h0c8d126092b4f159E', symObjAddr: 0x1FE4, symBinAddr: 0x4E08, symSize: 0xEC }
  - { offset: 0xB709, size: 0x8, addend: 0x0, symName: '__ZN111_$LT$alloc..vec..in_place_drop..InPlaceDstDataSrcBufDrop$LT$Src$C$Dest$GT$$u20$as$u20$core..ops..drop..Drop$GT$4drop17h3f3d0f9371ae68feE', symObjAddr: 0x0, symBinAddr: 0x2E48, symSize: 0xB4 }
  - { offset: 0xB885, size: 0x8, addend: 0x0, symName: '__ZN111_$LT$alloc..vec..in_place_drop..InPlaceDstDataSrcBufDrop$LT$Src$C$Dest$GT$$u20$as$u20$core..ops..drop..Drop$GT$4drop17h49eb07769da5a160E', symObjAddr: 0xB4, symBinAddr: 0x2EFC, symSize: 0xB4 }
  - { offset: 0xBA01, size: 0x8, addend: 0x0, symName: '__ZN111_$LT$alloc..vec..in_place_drop..InPlaceDstDataSrcBufDrop$LT$Src$C$Dest$GT$$u20$as$u20$core..ops..drop..Drop$GT$4drop17hadda638c260bc1dcE', symObjAddr: 0x168, symBinAddr: 0x2FB0, symSize: 0xB4 }
  - { offset: 0xBB83, size: 0x8, addend: 0x0, symName: '__ZN89_$LT$alloc..vec..in_place_drop..InPlaceDrop$LT$T$GT$$u20$as$u20$core..ops..drop..Drop$GT$4drop17h0c8d84e9b824b9efE', symObjAddr: 0x1F24, symBinAddr: 0x4D48, symSize: 0x40 }
  - { offset: 0xBBB4, size: 0x8, addend: 0x0, symName: '__ZN89_$LT$alloc..vec..in_place_drop..InPlaceDrop$LT$T$GT$$u20$as$u20$core..ops..drop..Drop$GT$4drop17h303d0047d12409f3E', symObjAddr: 0x1F64, symBinAddr: 0x4D88, symSize: 0x40 }
  - { offset: 0xBBE5, size: 0x8, addend: 0x0, symName: '__ZN89_$LT$alloc..vec..in_place_drop..InPlaceDrop$LT$T$GT$$u20$as$u20$core..ops..drop..Drop$GT$4drop17h65a2c0e25f555349E', symObjAddr: 0x1FA4, symBinAddr: 0x4DC8, symSize: 0x40 }
  - { offset: 0xBD8B, size: 0x8, addend: 0x0, symName: '__ZN157_$LT$$LT$alloc..vec..into_iter..IntoIter$LT$T$C$A$GT$$u20$as$u20$core..ops..drop..Drop$GT$..drop..DropGuard$LT$T$C$A$GT$$u20$as$u20$core..ops..drop..Drop$GT$4drop17h09da228c5f4141dbE', symObjAddr: 0x21C, symBinAddr: 0x3064, symSize: 0x6C }
  - { offset: 0xBECE, size: 0x8, addend: 0x0, symName: '__ZN157_$LT$$LT$alloc..vec..into_iter..IntoIter$LT$T$C$A$GT$$u20$as$u20$core..ops..drop..Drop$GT$..drop..DropGuard$LT$T$C$A$GT$$u20$as$u20$core..ops..drop..Drop$GT$4drop17h401f6d39cc0fb5a0E', symObjAddr: 0x288, symBinAddr: 0x30D0, symSize: 0x6C }
  - { offset: 0xC011, size: 0x8, addend: 0x0, symName: '__ZN157_$LT$$LT$alloc..vec..into_iter..IntoIter$LT$T$C$A$GT$$u20$as$u20$core..ops..drop..Drop$GT$..drop..DropGuard$LT$T$C$A$GT$$u20$as$u20$core..ops..drop..Drop$GT$4drop17hf1135993838908bcE', symObjAddr: 0x2F4, symBinAddr: 0x313C, symSize: 0x6C }
  - { offset: 0xC154, size: 0x8, addend: 0x0, symName: '__ZN157_$LT$$LT$alloc..vec..into_iter..IntoIter$LT$T$C$A$GT$$u20$as$u20$core..ops..drop..Drop$GT$..drop..DropGuard$LT$T$C$A$GT$$u20$as$u20$core..ops..drop..Drop$GT$4drop17hfdccb8313e364378E', symObjAddr: 0x360, symBinAddr: 0x31A8, symSize: 0x6C }
  - { offset: 0xC335, size: 0x8, addend: 0x0, symName: '__ZN86_$LT$alloc..vec..into_iter..IntoIter$LT$T$C$A$GT$$u20$as$u20$core..ops..drop..Drop$GT$4drop17h423272c675e89364E', symObjAddr: 0x1D44, symBinAddr: 0x4B68, symSize: 0x78 }
  - { offset: 0xC387, size: 0x8, addend: 0x0, symName: '__ZN86_$LT$alloc..vec..into_iter..IntoIter$LT$T$C$A$GT$$u20$as$u20$core..ops..drop..Drop$GT$4drop17hafcd9bd77162a88bE', symObjAddr: 0x1DBC, symBinAddr: 0x4BE0, symSize: 0x78 }
  - { offset: 0xC3D9, size: 0x8, addend: 0x0, symName: '__ZN86_$LT$alloc..vec..into_iter..IntoIter$LT$T$C$A$GT$$u20$as$u20$core..ops..drop..Drop$GT$4drop17hbf00d393ed53eb28E', symObjAddr: 0x1E34, symBinAddr: 0x4C58, symSize: 0x78 }
  - { offset: 0xC42B, size: 0x8, addend: 0x0, symName: '__ZN86_$LT$alloc..vec..into_iter..IntoIter$LT$T$C$A$GT$$u20$as$u20$core..ops..drop..Drop$GT$4drop17hc8e8fb7eab851370E', symObjAddr: 0x1EAC, symBinAddr: 0x4CD0, symSize: 0x78 }
  - { offset: 0xC66B, size: 0x8, addend: 0x0, symName: '__ZN70_$LT$alloc..vec..Vec$LT$T$C$A$GT$$u20$as$u20$core..ops..drop..Drop$GT$4drop17h7c2ec5e7fa988b9dE', symObjAddr: 0x1C70, symBinAddr: 0x4A94, symSize: 0x38 }
  - { offset: 0xC71B, size: 0x8, addend: 0x0, symName: '__ZN70_$LT$alloc..vec..Vec$LT$T$C$A$GT$$u20$as$u20$core..ops..drop..Drop$GT$4drop17haa15fc89265e8cb6E', symObjAddr: 0x1CA8, symBinAddr: 0x4ACC, symSize: 0x38 }
  - { offset: 0xD0EB, size: 0x8, addend: 0x0, symName: '__ZN77_$LT$alloc..raw_vec..RawVec$LT$T$C$A$GT$$u20$as$u20$core..ops..drop..Drop$GT$4drop17h377b906bda0d19e9E', symObjAddr: 0x1CE0, symBinAddr: 0x4B04, symSize: 0x34 }
  - { offset: 0xD127, size: 0x8, addend: 0x0, symName: '__ZN77_$LT$alloc..raw_vec..RawVec$LT$T$C$A$GT$$u20$as$u20$core..ops..drop..Drop$GT$4drop17ha7c8ef8127a3f097E', symObjAddr: 0x1D14, symBinAddr: 0x4B38, symSize: 0x30 }
  - { offset: 0xF173, size: 0x8, addend: 0x0, symName: __ZN4core5slice20copy_from_slice_impl17h8094492cd7ea1f8aE, symObjAddr: 0x0, symBinAddr: 0x4EF4, symSize: 0xAC }
  - { offset: 0xF245, size: 0x8, addend: 0x0, symName: __ZN4core5slice20copy_from_slice_impl17h8094492cd7ea1f8aE, symObjAddr: 0x0, symBinAddr: 0x4EF4, symSize: 0xAC }
  - { offset: 0xF64C, size: 0x8, addend: 0x0, symName: __ZN6anyhow9__private10format_err17h3fd99dccffdbcfe3E, symObjAddr: 0x0, symBinAddr: 0x2D496C, symSize: 0x8C }
  - { offset: 0xFD5C, size: 0x8, addend: 0x0, symName: __ZN6anyhow9__private10format_err17h3fd99dccffdbcfe3E, symObjAddr: 0x0, symBinAddr: 0x2D496C, symSize: 0x8C }
  - { offset: 0xFDC6, size: 0x8, addend: 0x0, symName: __ZN6anyhow9__private8must_use17h9fb76880bf2616d4E, symObjAddr: 0x8C, symBinAddr: 0x2D49F8, symSize: 0x14 }
  - { offset: 0x106D2, size: 0x8, addend: 0x0, symName: __ZN4core3fmt2rt8Argument11new_display17hca4bf663643292dbE, symObjAddr: 0x0, symBinAddr: 0x4FA0, symSize: 0x2C }
  - { offset: 0x10B52, size: 0x8, addend: 0x0, symName: __ZN4core3fmt2rt8Argument11new_display17hca4bf663643292dbE, symObjAddr: 0x0, symBinAddr: 0x4FA0, symSize: 0x2C }
  - { offset: 0x10B9B, size: 0x8, addend: 0x0, symName: __ZN4core5slice4sort6stable14driftsort_main17h446f46f988d404d2E, symObjAddr: 0x0, symBinAddr: 0x4FCC, symSize: 0x1EC }
  - { offset: 0x10C97, size: 0x8, addend: 0x0, symName: __ZN4core5slice4sort6stable14driftsort_main17h446f46f988d404d2E, symObjAddr: 0x0, symBinAddr: 0x4FCC, symSize: 0x1EC }
  - { offset: 0x1114E, size: 0x8, addend: 0x0, symName: '__ZN4core5slice4sort6stable27AlignedStorage$LT$T$C$_$GT$19as_uninit_slice_mut17h3e488e787759b998E', symObjAddr: 0x1EC, symBinAddr: 0x51B8, symSize: 0x80 }
  - { offset: 0x11341, size: 0x8, addend: 0x0, symName: '__ZN50_$LT$T$u20$as$u20$core..convert..Into$LT$U$GT$$GT$4into17h0dbe3107cb656cf0E', symObjAddr: 0x0, symBinAddr: 0x5238, symSize: 0x24 }
  - { offset: 0x113C4, size: 0x8, addend: 0x0, symName: '__ZN50_$LT$T$u20$as$u20$core..convert..Into$LT$U$GT$$GT$4into17h0dbe3107cb656cf0E', symObjAddr: 0x0, symBinAddr: 0x5238, symSize: 0x24 }
  - { offset: 0x116CE, size: 0x8, addend: 0x0, symName: __ZN5alloc5slice11stable_sort17h8cea5d0f90586c1bE, symObjAddr: 0x0, symBinAddr: 0x525C, symSize: 0xC4 }
  - { offset: 0x11900, size: 0x8, addend: 0x0, symName: __ZN5alloc5slice11stable_sort17h8cea5d0f90586c1bE, symObjAddr: 0x0, symBinAddr: 0x525C, symSize: 0xC4 }
  - { offset: 0x119BA, size: 0x8, addend: 0x0, symName: '__ZN5alloc5slice29_$LT$impl$u20$$u5b$T$u5d$$GT$4sort17hb8b22352a2d86b15E', symObjAddr: 0xC4, symBinAddr: 0x5320, symSize: 0x28 }
  - { offset: 0x11A5B, size: 0x8, addend: 0x0, symName: __ZN4core4hint16assert_unchecked18precondition_check17h9fe81c49f97bac31E, symObjAddr: 0x0, symBinAddr: 0x5348, symSize: 0x58 }
  - { offset: 0x11A77, size: 0x8, addend: 0x0, symName: __ZN4core4hint16assert_unchecked18precondition_check17h9fe81c49f97bac31E, symObjAddr: 0x0, symBinAddr: 0x5348, symSize: 0x58 }
  - { offset: 0x11B19, size: 0x8, addend: 0x0, symName: '__ZN58_$LT$alloc..string..String$u20$as$u20$core..fmt..Write$GT$10write_char17hbf064a6776d660d4E', symObjAddr: 0x0, symBinAddr: 0x53A0, symSize: 0x30 }
  - { offset: 0x11B35, size: 0x8, addend: 0x0, symName: '__ZN58_$LT$alloc..string..String$u20$as$u20$core..fmt..Write$GT$10write_char17hbf064a6776d660d4E', symObjAddr: 0x0, symBinAddr: 0x53A0, symSize: 0x30 }
  - { offset: 0x11B72, size: 0x8, addend: 0x0, symName: '__ZN58_$LT$alloc..string..String$u20$as$u20$core..fmt..Write$GT$9write_str17h744351b4f9c36dbcE', symObjAddr: 0x30, symBinAddr: 0x53D0, symSize: 0x38 }
  - { offset: 0x11C3B, size: 0x8, addend: 0x0, symName: '__ZN65_$LT$alloc..string..String$u20$as$u20$core..ops..deref..Deref$GT$5deref17hf5f40bf3c600c587E', symObjAddr: 0x258, symBinAddr: 0x55F8, symSize: 0x20 }
  - { offset: 0x12687, size: 0x8, addend: 0x0, symName: __ZN5alloc6string6String4push17h96185744441eb904E, symObjAddr: 0x68, symBinAddr: 0x5408, symSize: 0x114 }
  - { offset: 0x12A6E, size: 0x8, addend: 0x0, symName: __ZN5alloc6string6String8push_str17h25379a5ac352d146E, symObjAddr: 0x17C, symBinAddr: 0x551C, symSize: 0xDC }
  - { offset: 0x12E4A, size: 0x8, addend: 0x0, symName: __ZN4pyo35types4list17try_new_from_iter17h42f59017a98a0018E, symObjAddr: 0x0, symBinAddr: 0x5618, symSize: 0x2C8 }
  - { offset: 0x1367E, size: 0x8, addend: 0x0, symName: __ZN4pyo35types4list17try_new_from_iter17h42f59017a98a0018E, symObjAddr: 0x0, symBinAddr: 0x5618, symSize: 0x2C8 }
  - { offset: 0x1379F, size: 0x8, addend: 0x0, symName: __ZN4pyo35types4list17try_new_from_iter17h5f39a9fc9a3c0f34E, symObjAddr: 0x2C8, symBinAddr: 0x58E0, symSize: 0x2C8 }
  - { offset: 0x138C5, size: 0x8, addend: 0x0, symName: '__ZN4pyo35types4list17try_new_from_iter28_$u7b$$u7b$closure$u7d$$u7d$17h2328bd8ca4db72e3E', symObjAddr: 0x590, symBinAddr: 0x5BA8, symSize: 0x114 }
  - { offset: 0x1393A, size: 0x8, addend: 0x0, symName: '__ZN4pyo35types4list17try_new_from_iter28_$u7b$$u7b$closure$u7d$$u7d$17hbe162235ff06fdffE', symObjAddr: 0x6A4, symBinAddr: 0x5CBC, symSize: 0x114 }
  - { offset: 0x14190, size: 0x8, addend: 0x0, symName: '__ZN100_$LT$core..iter..adapters..take..Take$LT$I$GT$$u20$as$u20$core..iter..traits..iterator..Iterator$GT$8try_fold17h0c8e1ea8110647feE', symObjAddr: 0x0, symBinAddr: 0x5DD0, symSize: 0x100 }
  - { offset: 0x14886, size: 0x8, addend: 0x0, symName: '__ZN100_$LT$core..iter..adapters..take..Take$LT$I$GT$$u20$as$u20$core..iter..traits..iterator..Iterator$GT$8try_fold17h0c8e1ea8110647feE', symObjAddr: 0x0, symBinAddr: 0x5DD0, symSize: 0x100 }
  - { offset: 0x1493E, size: 0x8, addend: 0x0, symName: '__ZN100_$LT$core..iter..adapters..take..Take$LT$I$GT$$u20$as$u20$core..iter..traits..iterator..Iterator$GT$8try_fold17h75ea1df1829146e6E', symObjAddr: 0x100, symBinAddr: 0x5ED0, symSize: 0x100 }
  - { offset: 0x14A00, size: 0x8, addend: 0x0, symName: '__ZN100_$LT$core..iter..adapters..take..Take$LT$I$GT$$u20$as$u20$core..iter..traits..iterator..Iterator$GT$8try_fold5check28_$u7b$$u7b$closure$u7d$$u7d$17h114ecb55f68a0d37E', symObjAddr: 0x200, symBinAddr: 0x5FD0, symSize: 0x138 }
  - { offset: 0x14AE0, size: 0x8, addend: 0x0, symName: '__ZN100_$LT$core..iter..adapters..take..Take$LT$I$GT$$u20$as$u20$core..iter..traits..iterator..Iterator$GT$8try_fold5check28_$u7b$$u7b$closure$u7d$$u7d$17h341244a37c64374aE', symObjAddr: 0x338, symBinAddr: 0x6108, symSize: 0x138 }
  - { offset: 0x15603, size: 0x8, addend: 0x0, symName: __ZN4core4iter6traits8iterator8Iterator3zip17h0e386fb890f08eceE, symObjAddr: 0x0, symBinAddr: 0x6240, symSize: 0xB4 }
  - { offset: 0x15737, size: 0x8, addend: 0x0, symName: __ZN4core4iter6traits8iterator8Iterator3zip17h0e386fb890f08eceE, symObjAddr: 0x0, symBinAddr: 0x6240, symSize: 0xB4 }
  - { offset: 0x15D95, size: 0x8, addend: 0x0, symName: '__ZN4pyo35types5tuple76_$LT$impl$u20$pyo3..conversion..IntoPyObject$u20$for$u20$$LP$T0$C$T1$RP$$GT$13into_pyobject17h41da5da6de3a7b5fE', symObjAddr: 0xB4, symBinAddr: 0x62F4, symSize: 0x218 }
  - { offset: 0x164C5, size: 0x8, addend: 0x0, symName: __ZN3std5panic12catch_unwind17h31b6703148e45e7dE, symObjAddr: 0x0, symBinAddr: 0x650C, symSize: 0xD4 }
  - { offset: 0x16799, size: 0x8, addend: 0x0, symName: __ZN3std5panic12catch_unwind17h31b6703148e45e7dE, symObjAddr: 0x0, symBinAddr: 0x650C, symSize: 0xD4 }
  - { offset: 0x168BE, size: 0x8, addend: 0x0, symName: __ZN3std5panic12catch_unwind17hd4a52fd61c021dc0E, symObjAddr: 0xD4, symBinAddr: 0x65E0, symSize: 0x10C }
  - { offset: 0x1776B, size: 0x8, addend: 0x0, symName: '__ZN87_$LT$$BP$mut$u20$pyo3_ffi..object..PyObject$u20$as$u20$pyo3..ffi_ptr_ext..FfiPtrExt$GT$12assume_owned17hdca4a3cb91361fd9E', symObjAddr: 0x0, symBinAddr: 0x6740, symSize: 0x24 }
  - { offset: 0x177A0, size: 0x8, addend: 0x0, symName: __ZN8pyo3_ffi6object7Py_None17hd257719173b91265E, symObjAddr: 0x48, symBinAddr: 0x6788, symSize: 0xC }
  - { offset: 0x1780C, size: 0x8, addend: 0x0, symName: '__ZN87_$LT$$BP$mut$u20$pyo3_ffi..object..PyObject$u20$as$u20$pyo3..ffi_ptr_ext..FfiPtrExt$GT$12assume_owned17hdca4a3cb91361fd9E', symObjAddr: 0x0, symBinAddr: 0x6740, symSize: 0x24 }
  - { offset: 0x17851, size: 0x8, addend: 0x0, symName: '__ZN87_$LT$$BP$mut$u20$pyo3_ffi..object..PyObject$u20$as$u20$pyo3..ffi_ptr_ext..FfiPtrExt$GT$15assume_borrowed17ha06696190fa2ef43E', symObjAddr: 0x24, symBinAddr: 0x6764, symSize: 0x24 }
  - { offset: 0x17B70, size: 0x8, addend: 0x0, symName: '__ZN45_$LT$T$u20$as$u20$alloc..string..ToString$GT$9to_string17hed5fa0b431c5e64dE', symObjAddr: 0x0, symBinAddr: 0x6794, symSize: 0x24 }
  - { offset: 0x17BCC, size: 0x8, addend: 0x0, symName: '__ZN45_$LT$T$u20$as$u20$alloc..string..ToString$GT$9to_string17hed5fa0b431c5e64dE', symObjAddr: 0x0, symBinAddr: 0x6794, symSize: 0x24 }
  - { offset: 0x17C09, size: 0x8, addend: 0x0, symName: '__ZN49_$LT$T$u20$as$u20$alloc..string..SpecToString$GT$14spec_to_string17h4897d1de5486c702E', symObjAddr: 0x24, symBinAddr: 0x67B8, symSize: 0xF4 }
  - { offset: 0x18B03, size: 0x8, addend: 0x0, symName: '__ZN105_$LT$std..ffi..os_str..OsString$u20$as$u20$core..ops..index..Index$LT$core..ops..range..RangeFull$GT$$GT$5index17hf86e535a08f5dbccE', symObjAddr: 0x0, symBinAddr: 0x68AC, symSize: 0x20 }
  - { offset: 0x18F44, size: 0x8, addend: 0x0, symName: '__ZN105_$LT$std..ffi..os_str..OsString$u20$as$u20$core..ops..index..Index$LT$core..ops..range..RangeFull$GT$$GT$5index17hf86e535a08f5dbccE', symObjAddr: 0x0, symBinAddr: 0x68AC, symSize: 0x20 }
  - { offset: 0x190DC, size: 0x8, addend: 0x0, symName: __ZN3std3ffi6os_str5OsStr15to_string_lossy17h63a17f17aaf66736E, symObjAddr: 0x20, symBinAddr: 0x68CC, symSize: 0x24 }
  - { offset: 0x19147, size: 0x8, addend: 0x0, symName: '__ZN103_$LT$alloc..vec..into_iter..IntoIter$LT$T$C$A$GT$$u20$as$u20$core..iter..traits..iterator..Iterator$GT$4next17h17e91bbb07a9c5a9E', symObjAddr: 0x0, symBinAddr: 0x68F0, symSize: 0xAC }
  - { offset: 0x1ADBC, size: 0x8, addend: 0x0, symName: __ZN4core4iter6traits10exact_size17ExactSizeIterator3len17h01d01b6f2a3797a9E, symObjAddr: 0xCBC, symBinAddr: 0x75AC, symSize: 0xB8 }
  - { offset: 0x1AE88, size: 0x8, addend: 0x0, symName: __ZN4core4iter6traits10exact_size17ExactSizeIterator3len17h841e7bca9bbe5e77E, symObjAddr: 0xD74, symBinAddr: 0x7664, symSize: 0xB8 }
  - { offset: 0x1B1FD, size: 0x8, addend: 0x0, symName: __ZN4core4iter6traits8iterator8Iterator3map17h0f72541af2d857c5E, symObjAddr: 0xE2C, symBinAddr: 0x771C, symSize: 0x28 }
  - { offset: 0x1B26A, size: 0x8, addend: 0x0, symName: __ZN4core4iter6traits8iterator8Iterator3map17h393161a8e88dc6e7E, symObjAddr: 0xE54, symBinAddr: 0x7744, symSize: 0x1C }
  - { offset: 0x1B2D7, size: 0x8, addend: 0x0, symName: __ZN4core4iter6traits8iterator8Iterator3map17ha6dfc55f94375233E, symObjAddr: 0xE70, symBinAddr: 0x7760, symSize: 0x1C }
  - { offset: 0x1B344, size: 0x8, addend: 0x0, symName: __ZN4core4iter6traits8iterator8Iterator3map17hb32295ece2bd482dE, symObjAddr: 0xE8C, symBinAddr: 0x777C, symSize: 0x28 }
  - { offset: 0x1B3B1, size: 0x8, addend: 0x0, symName: __ZN4core4iter6traits8iterator8Iterator3map17hb7c8f2108ecc4b08E, symObjAddr: 0xEB4, symBinAddr: 0x77A4, symSize: 0x28 }
  - { offset: 0x1BFA5, size: 0x8, addend: 0x0, symName: '__ZN103_$LT$alloc..vec..into_iter..IntoIter$LT$T$C$A$GT$$u20$as$u20$core..iter..traits..iterator..Iterator$GT$4next17h17e91bbb07a9c5a9E', symObjAddr: 0x0, symBinAddr: 0x68F0, symSize: 0xAC }
  - { offset: 0x1C103, size: 0x8, addend: 0x0, symName: '__ZN103_$LT$alloc..vec..into_iter..IntoIter$LT$T$C$A$GT$$u20$as$u20$core..iter..traits..iterator..Iterator$GT$4next17h6589bbdc9dd9de6eE', symObjAddr: 0xAC, symBinAddr: 0x699C, symSize: 0x88 }
  - { offset: 0x1C25D, size: 0x8, addend: 0x0, symName: '__ZN103_$LT$alloc..vec..into_iter..IntoIter$LT$T$C$A$GT$$u20$as$u20$core..iter..traits..iterator..Iterator$GT$8try_fold17h0f2754986ecdf8beE', symObjAddr: 0x134, symBinAddr: 0x6A24, symSize: 0x1A4 }
  - { offset: 0x1C43D, size: 0x8, addend: 0x0, symName: '__ZN103_$LT$alloc..vec..into_iter..IntoIter$LT$T$C$A$GT$$u20$as$u20$core..iter..traits..iterator..Iterator$GT$8try_fold17h26b221e6dc6725d5E', symObjAddr: 0x2D8, symBinAddr: 0x6BC8, symSize: 0x1CC }
  - { offset: 0x1C61E, size: 0x8, addend: 0x0, symName: '__ZN103_$LT$alloc..vec..into_iter..IntoIter$LT$T$C$A$GT$$u20$as$u20$core..iter..traits..iterator..Iterator$GT$8try_fold17h2926e372aa3ebe1eE', symObjAddr: 0x4A4, symBinAddr: 0x6D94, symSize: 0x1CC }
  - { offset: 0x1C7FF, size: 0x8, addend: 0x0, symName: '__ZN103_$LT$alloc..vec..into_iter..IntoIter$LT$T$C$A$GT$$u20$as$u20$core..iter..traits..iterator..Iterator$GT$8try_fold17h325b45a27b3ba2beE', symObjAddr: 0x670, symBinAddr: 0x6F60, symSize: 0x17C }
  - { offset: 0x1C9DF, size: 0x8, addend: 0x0, symName: '__ZN103_$LT$alloc..vec..into_iter..IntoIter$LT$T$C$A$GT$$u20$as$u20$core..iter..traits..iterator..Iterator$GT$8try_fold17hfea905108c02b1edE', symObjAddr: 0x7EC, symBinAddr: 0x70DC, symSize: 0x1D8 }
  - { offset: 0x1CBA4, size: 0x8, addend: 0x0, symName: '__ZN103_$LT$alloc..vec..into_iter..IntoIter$LT$T$C$A$GT$$u20$as$u20$core..iter..traits..iterator..Iterator$GT$9size_hint17h04162db2318a86a6E', symObjAddr: 0x9C4, symBinAddr: 0x72B4, symSize: 0xB4 }
  - { offset: 0x1CCBD, size: 0x8, addend: 0x0, symName: '__ZN103_$LT$alloc..vec..into_iter..IntoIter$LT$T$C$A$GT$$u20$as$u20$core..iter..traits..iterator..Iterator$GT$9size_hint17h2595dc88901608d8E', symObjAddr: 0xA78, symBinAddr: 0x7368, symSize: 0xB4 }
  - { offset: 0x1CDD6, size: 0x8, addend: 0x0, symName: '__ZN103_$LT$alloc..vec..into_iter..IntoIter$LT$T$C$A$GT$$u20$as$u20$core..iter..traits..iterator..Iterator$GT$9size_hint17h6861d57b6e8b470cE', symObjAddr: 0xB2C, symBinAddr: 0x741C, symSize: 0xB4 }
  - { offset: 0x1CEEF, size: 0x8, addend: 0x0, symName: '__ZN103_$LT$alloc..vec..into_iter..IntoIter$LT$T$C$A$GT$$u20$as$u20$core..iter..traits..iterator..Iterator$GT$9size_hint17hc87e12956f9f8e12E', symObjAddr: 0xBE0, symBinAddr: 0x74D0, symSize: 0xB4 }
  - { offset: 0x1D00E, size: 0x8, addend: 0x0, symName: '__ZN104_$LT$alloc..vec..into_iter..IntoIter$LT$T$GT$$u20$as$u20$alloc..vec..in_place_collect..AsVecIntoIter$GT$12as_into_iter17h7d18d6df43c7c154E', symObjAddr: 0xC94, symBinAddr: 0x7584, symSize: 0x14 }
  - { offset: 0x1D045, size: 0x8, addend: 0x0, symName: '__ZN104_$LT$alloc..vec..into_iter..IntoIter$LT$T$GT$$u20$as$u20$alloc..vec..in_place_collect..AsVecIntoIter$GT$12as_into_iter17hdaf52aaa8e118c3eE', symObjAddr: 0xCA8, symBinAddr: 0x7598, symSize: 0x14 }
  - { offset: 0x1D37A, size: 0x8, addend: 0x0, symName: '__ZN97_$LT$alloc..vec..into_iter..IntoIter$LT$T$C$A$GT$$u20$as$u20$core..iter..adapters..SourceIter$GT$8as_inner17h340113402a4026e2E', symObjAddr: 0x1400, symBinAddr: 0x7CF0, symSize: 0x14 }
  - { offset: 0x1D3BA, size: 0x8, addend: 0x0, symName: '__ZN97_$LT$alloc..vec..into_iter..IntoIter$LT$T$C$A$GT$$u20$as$u20$core..iter..adapters..SourceIter$GT$8as_inner17h624bc2269d1ac928E', symObjAddr: 0x1414, symBinAddr: 0x7D04, symSize: 0x14 }
  - { offset: 0x1E7CB, size: 0x8, addend: 0x0, symName: '__ZN5alloc3vec9into_iter21IntoIter$LT$T$C$A$GT$16as_raw_mut_slice17h3a8329ab0349f8b9E', symObjAddr: 0xEDC, symBinAddr: 0x77CC, symSize: 0xCC }
  - { offset: 0x1E91B, size: 0x8, addend: 0x0, symName: '__ZN5alloc3vec9into_iter21IntoIter$LT$T$C$A$GT$16as_raw_mut_slice17h7d4a847a3f0e759eE', symObjAddr: 0xFA8, symBinAddr: 0x7898, symSize: 0xCC }
  - { offset: 0x1EA6B, size: 0x8, addend: 0x0, symName: '__ZN5alloc3vec9into_iter21IntoIter$LT$T$C$A$GT$16as_raw_mut_slice17h8fcadaecca19b6e8E', symObjAddr: 0x1074, symBinAddr: 0x7964, symSize: 0xCC }
  - { offset: 0x1EBBB, size: 0x8, addend: 0x0, symName: '__ZN5alloc3vec9into_iter21IntoIter$LT$T$C$A$GT$16as_raw_mut_slice17h9b3cd9069d8ac9f4E', symObjAddr: 0x1140, symBinAddr: 0x7A30, symSize: 0xCC }
  - { offset: 0x1ED2F, size: 0x8, addend: 0x0, symName: '__ZN5alloc3vec9into_iter21IntoIter$LT$T$C$A$GT$32forget_allocation_drop_remaining17h6ed1dca687d89864E', symObjAddr: 0x120C, symBinAddr: 0x7AFC, symSize: 0x80 }
  - { offset: 0x1EE4E, size: 0x8, addend: 0x0, symName: '__ZN5alloc3vec9into_iter21IntoIter$LT$T$C$A$GT$32forget_allocation_drop_remaining17ha359d7ac7c33fabcE', symObjAddr: 0x128C, symBinAddr: 0x7B7C, symSize: 0x80 }
  - { offset: 0x1EF3A, size: 0x8, addend: 0x0, symName: '__ZN5alloc3vec9into_iter21IntoIter$LT$T$C$A$GT$8as_slice17h2802e2d561c6baa7E', symObjAddr: 0x130C, symBinAddr: 0x7BFC, symSize: 0xF4 }
  - { offset: 0x1F4E4, size: 0x8, addend: 0x0, symName: '__ZN103_$LT$pyo3..instance..Bound$LT$pyo3..types..any..PyAny$GT$$u20$as$u20$pyo3..types..any..PyAnyMethods$GT$14is_instance_of17h40b8688bd571057dE', symObjAddr: 0x0, symBinAddr: 0x7D18, symSize: 0x24 }
  - { offset: 0x1F56C, size: 0x8, addend: 0x0, symName: '__ZN103_$LT$pyo3..instance..Bound$LT$pyo3..types..any..PyAny$GT$$u20$as$u20$pyo3..types..any..PyAnyMethods$GT$14is_instance_of17h40b8688bd571057dE', symObjAddr: 0x0, symBinAddr: 0x7D18, symSize: 0x24 }
  - { offset: 0x1F5A3, size: 0x8, addend: 0x0, symName: '__ZN103_$LT$pyo3..instance..Bound$LT$pyo3..types..any..PyAny$GT$$u20$as$u20$pyo3..types..any..PyAnyMethods$GT$7extract17h670cbfd6dad6ea05E', symObjAddr: 0x24, symBinAddr: 0x7D3C, symSize: 0x30 }
  - { offset: 0x1F5DA, size: 0x8, addend: 0x0, symName: '__ZN103_$LT$pyo3..instance..Bound$LT$pyo3..types..any..PyAny$GT$$u20$as$u20$pyo3..types..any..PyAnyMethods$GT$7extract17h6e3223c61e8fa22bE', symObjAddr: 0x54, symBinAddr: 0x7D6C, symSize: 0x30 }
  - { offset: 0x1F611, size: 0x8, addend: 0x0, symName: '__ZN103_$LT$pyo3..instance..Bound$LT$pyo3..types..any..PyAny$GT$$u20$as$u20$pyo3..types..any..PyAnyMethods$GT$7extract17h7712bc2d4a90fd2bE', symObjAddr: 0x84, symBinAddr: 0x7D9C, symSize: 0x30 }
  - { offset: 0x1F648, size: 0x8, addend: 0x0, symName: '__ZN103_$LT$pyo3..instance..Bound$LT$pyo3..types..any..PyAny$GT$$u20$as$u20$pyo3..types..any..PyAnyMethods$GT$7extract17h8163d344c3e35a44E', symObjAddr: 0xB4, symBinAddr: 0x7DCC, symSize: 0x30 }
  - { offset: 0x1F67F, size: 0x8, addend: 0x0, symName: '__ZN103_$LT$pyo3..instance..Bound$LT$pyo3..types..any..PyAny$GT$$u20$as$u20$pyo3..types..any..PyAnyMethods$GT$7extract17h882cce9e2eb8c9f3E', symObjAddr: 0xE4, symBinAddr: 0x7DFC, symSize: 0x30 }
  - { offset: 0x1F6B6, size: 0x8, addend: 0x0, symName: '__ZN103_$LT$pyo3..instance..Bound$LT$pyo3..types..any..PyAny$GT$$u20$as$u20$pyo3..types..any..PyAnyMethods$GT$7extract17had29f61c7bc9f1adE', symObjAddr: 0x114, symBinAddr: 0x7E2C, symSize: 0x30 }
  - { offset: 0x1F6ED, size: 0x8, addend: 0x0, symName: '__ZN103_$LT$pyo3..instance..Bound$LT$pyo3..types..any..PyAny$GT$$u20$as$u20$pyo3..types..any..PyAnyMethods$GT$7extract17hbab7c8b898cd6370E', symObjAddr: 0x144, symBinAddr: 0x7E5C, symSize: 0x30 }
  - { offset: 0x1F724, size: 0x8, addend: 0x0, symName: '__ZN103_$LT$pyo3..instance..Bound$LT$pyo3..types..any..PyAny$GT$$u20$as$u20$pyo3..types..any..PyAnyMethods$GT$7extract17hde74005b3999141bE', symObjAddr: 0x174, symBinAddr: 0x7E8C, symSize: 0x30 }
  - { offset: 0x1F75B, size: 0x8, addend: 0x0, symName: '__ZN103_$LT$pyo3..instance..Bound$LT$pyo3..types..any..PyAny$GT$$u20$as$u20$pyo3..types..any..PyAnyMethods$GT$7extract17hef8b0f8b6557c6a1E', symObjAddr: 0x1A4, symBinAddr: 0x7EBC, symSize: 0x30 }
  - { offset: 0x1F7B3, size: 0x8, addend: 0x0, symName: '__ZN107_$LT$pyo3..instance..Bound$LT$pyo3..types..dict..PyDict$GT$$u20$as$u20$pyo3..types..dict..PyDictMethods$GT$8set_item17h0c25ed45f6fff33aE', symObjAddr: 0x1D4, symBinAddr: 0x7EEC, symSize: 0x298 }
  - { offset: 0x1F861, size: 0x8, addend: 0x0, symName: '__ZN107_$LT$pyo3..instance..Bound$LT$pyo3..types..dict..PyDict$GT$$u20$as$u20$pyo3..types..dict..PyDictMethods$GT$8set_item17h5cea9f368b51131aE', symObjAddr: 0x46C, symBinAddr: 0x8184, symSize: 0x288 }
  - { offset: 0x1F90F, size: 0x8, addend: 0x0, symName: '__ZN107_$LT$pyo3..instance..Bound$LT$pyo3..types..dict..PyDict$GT$$u20$as$u20$pyo3..types..dict..PyDictMethods$GT$8set_item17hca9187fa25c7e709E', symObjAddr: 0x6F4, symBinAddr: 0x840C, symSize: 0x2AC }
  - { offset: 0x1F9BD, size: 0x8, addend: 0x0, symName: '__ZN107_$LT$pyo3..instance..Bound$LT$pyo3..types..dict..PyDict$GT$$u20$as$u20$pyo3..types..dict..PyDictMethods$GT$8set_item17hd157fe1f3f6f9acaE', symObjAddr: 0x9A0, symBinAddr: 0x86B8, symSize: 0x2AC }
  - { offset: 0x1FA6B, size: 0x8, addend: 0x0, symName: '__ZN107_$LT$pyo3..instance..Bound$LT$pyo3..types..dict..PyDict$GT$$u20$as$u20$pyo3..types..dict..PyDictMethods$GT$8set_item17hd81de08c0d107dc7E', symObjAddr: 0xC4C, symBinAddr: 0x8964, symSize: 0x288 }
  - { offset: 0x1FB19, size: 0x8, addend: 0x0, symName: '__ZN107_$LT$pyo3..instance..Bound$LT$pyo3..types..dict..PyDict$GT$$u20$as$u20$pyo3..types..dict..PyDictMethods$GT$8set_item17hff8ab5717b10ca39E', symObjAddr: 0xED4, symBinAddr: 0x8BEC, symSize: 0x2B8 }
  - { offset: 0x1FCA6, size: 0x8, addend: 0x0, symName: __ZN4pyo310conversion12IntoPyObject28owned_sequence_into_pyobject17h3bef760b36caea82E, symObjAddr: 0x11B4, symBinAddr: 0x8ECC, symSize: 0xDC }
  - { offset: 0x1FD5C, size: 0x8, addend: 0x0, symName: __ZN4pyo310conversion15IntoPyObjectExt17into_bound_py_any17h190a1e12cb94dd43E, symObjAddr: 0x1290, symBinAddr: 0x8FA8, symSize: 0x50 }
  - { offset: 0x1FDC7, size: 0x8, addend: 0x0, symName: __ZN4pyo310conversion15IntoPyObjectExt22into_pyobject_or_pyerr17h220309c805884eeaE, symObjAddr: 0x12E0, symBinAddr: 0x8FF8, symSize: 0x48 }
  - { offset: 0x1FE38, size: 0x8, addend: 0x0, symName: '__ZN81_$LT$pyo3..instance..Bound$LT$T$GT$$u20$as$u20$pyo3..conversion..IntoPyObject$GT$13into_pyobject17h0a42c4ca5078bdc2E', symObjAddr: 0x151C, symBinAddr: 0x9234, symSize: 0x14 }
  - { offset: 0x1FEA5, size: 0x8, addend: 0x0, symName: '__ZN4pyo35impl_9pymethods133_$LT$impl$u20$core..convert..From$LT$pyo3..impl_..pymethods..BoundRef$LT$T$GT$$GT$$u20$for$u20$$RF$pyo3..instance..Bound$LT$T$GT$$GT$4from17h8f3578c8eaa908f8E', symObjAddr: 0x1328, symBinAddr: 0x9040, symSize: 0x14 }
  - { offset: 0x201C0, size: 0x8, addend: 0x0, symName: '__ZN4pyo38instance39Borrowed$LT$pyo3..types..any..PyAny$GT$15from_ptr_or_opt28_$u7b$$u7b$closure$u7d$$u7d$17h8074a30cbf11977eE', symObjAddr: 0x14E8, symBinAddr: 0x9200, symSize: 0x20 }
  - { offset: 0x20223, size: 0x8, addend: 0x0, symName: '__ZN87_$LT$pyo3..instance..Bound$LT$T$GT$$u20$as$u20$pyo3..instance..BoundObject$LT$T$GT$$GT$8into_any17h3b2d77619e7ec4dfE', symObjAddr: 0x1530, symBinAddr: 0x9248, symSize: 0x24 }
  - { offset: 0x204EF, size: 0x8, addend: 0x0, symName: '__ZN4core5slice29_$LT$impl$u20$$u5b$T$u5d$$GT$4iter17hf90ebd8d399e451cE', symObjAddr: 0x118C, symBinAddr: 0x8EA4, symSize: 0x28 }
  - { offset: 0x209EC, size: 0x8, addend: 0x0, symName: '__ZN63_$LT$I$u20$as$u20$core..iter..traits..collect..IntoIterator$GT$9into_iter17hea0eff2b20c07c7dE', symObjAddr: 0x1508, symBinAddr: 0x9220, symSize: 0x14 }
  - { offset: 0x2152C, size: 0x8, addend: 0x0, symName: '__ZN4pyo38instance11Py$LT$T$GT$8into_any17h4da7ed0ac2db1ae5E', symObjAddr: 0x133C, symBinAddr: 0x9054, symSize: 0x3C }
  - { offset: 0x21558, size: 0x8, addend: 0x0, symName: '__ZN4pyo38instance11Py$LT$T$GT$8into_any17h668b237fee11d023E', symObjAddr: 0x1378, symBinAddr: 0x9090, symSize: 0x3C }
  - { offset: 0x21591, size: 0x8, addend: 0x0, symName: '__ZN4pyo38instance11Py$LT$T$GT$8into_ptr17h68b965a4d826b5acE', symObjAddr: 0x13B4, symBinAddr: 0x90CC, symSize: 0x30 }
  - { offset: 0x215D7, size: 0x8, addend: 0x0, symName: '__ZN4pyo38instance14Bound$LT$T$GT$6unbind17h8bc5ccc97f7116f2E', symObjAddr: 0x13E4, symBinAddr: 0x90FC, symSize: 0x48 }
  - { offset: 0x21621, size: 0x8, addend: 0x0, symName: '__ZN4pyo38instance14Bound$LT$T$GT$6unbind17hfc1851641054ab2eE', symObjAddr: 0x142C, symBinAddr: 0x9144, symSize: 0x48 }
  - { offset: 0x2166B, size: 0x8, addend: 0x0, symName: '__ZN4pyo38instance14Bound$LT$T$GT$8into_any17h345fc7a64198fce1E', symObjAddr: 0x1474, symBinAddr: 0x918C, symSize: 0x30 }
  - { offset: 0x21697, size: 0x8, addend: 0x0, symName: '__ZN4pyo38instance14Bound$LT$T$GT$8into_any17h85c555e23f006b3cE', symObjAddr: 0x14A4, symBinAddr: 0x91BC, symSize: 0x30 }
  - { offset: 0x216DD, size: 0x8, addend: 0x0, symName: '__ZN4pyo38instance39Borrowed$LT$pyo3..types..any..PyAny$GT$14cast_unchecked17hfecf86e6eb65eebfE', symObjAddr: 0x14D4, symBinAddr: 0x91EC, symSize: 0x14 }
  - { offset: 0x21E09, size: 0x8, addend: 0x0, symName: '__ZN4core3ptr9const_ptr33_$LT$impl$u20$$BP$const$u20$T$GT$7is_null17h35be5ae880431264E', symObjAddr: 0x0, symBinAddr: 0x926C, symSize: 0x18 }
  - { offset: 0x21EA8, size: 0x8, addend: 0x0, symName: '__ZN4core3ptr9const_ptr33_$LT$impl$u20$$BP$const$u20$T$GT$7is_null17h35be5ae880431264E', symObjAddr: 0x0, symBinAddr: 0x926C, symSize: 0x18 }
  - { offset: 0x21FC2, size: 0x8, addend: 0x0, symName: '__ZN4core5slice29_$LT$impl$u20$$u5b$T$u5d$$GT$15copy_from_slice17h9e65662249de8c60E', symObjAddr: 0x18, symBinAddr: 0x9284, symSize: 0x34 }
  - { offset: 0x2202B, size: 0x8, addend: 0x0, symName: '__ZN4core5slice29_$LT$impl$u20$$u5b$T$u5d$$GT$18split_at_unchecked17h49edb5ca6b142ebdE', symObjAddr: 0x4C, symBinAddr: 0x92B8, symSize: 0xE8 }
  - { offset: 0x22170, size: 0x8, addend: 0x0, symName: '__ZN4core5slice29_$LT$impl$u20$$u5b$T$u5d$$GT$8split_at17h5dc43b65213eeb66E', symObjAddr: 0x134, symBinAddr: 0x93A0, symSize: 0xAC }
  - { offset: 0x22B27, size: 0x8, addend: 0x0, symName: __ZN4core6option6Option4Some17h52d86c60de85c73aE, symObjAddr: 0x7A8, symBinAddr: 0x9A14, symSize: 0x1C }
  - { offset: 0x22B5A, size: 0x8, addend: 0x0, symName: __ZN4core6option6Option4Some17h5dcce23a13878b0bE, symObjAddr: 0x7C4, symBinAddr: 0x9A30, symSize: 0x18 }
  - { offset: 0x22B8D, size: 0x8, addend: 0x0, symName: __ZN4core6option6Option4Some17h61b9a66c8489efb9E, symObjAddr: 0x7DC, symBinAddr: 0x9A48, symSize: 0x18 }
  - { offset: 0x22BC0, size: 0x8, addend: 0x0, symName: __ZN4core6option6Option4Some17h6c3070d55cfc014bE, symObjAddr: 0x7F4, symBinAddr: 0x9A60, symSize: 0x18 }
  - { offset: 0x22BF3, size: 0x8, addend: 0x0, symName: __ZN4core6option6Option4Some17hf4d2e2828967010bE, symObjAddr: 0x80C, symBinAddr: 0x9A78, symSize: 0x18 }
  - { offset: 0x22C2D, size: 0x8, addend: 0x0, symName: '__ZN72_$LT$core..option..Option$LT$T$GT$$u20$as$u20$core..default..Default$GT$7default17h37457ecb12a3da3cE', symObjAddr: 0xBC0, symBinAddr: 0x9E2C, symSize: 0x8 }
  - { offset: 0x23656, size: 0x8, addend: 0x0, symName: '__ZN4pyo311conversions3std6option90_$LT$impl$u20$pyo3..conversion..IntoPyObject$u20$for$u20$core..option..Option$LT$T$GT$$GT$13into_pyobject17h108a5df1072fed58E', symObjAddr: 0xA94, symBinAddr: 0x9D00, symSize: 0x2C }
  - { offset: 0x236A4, size: 0x8, addend: 0x0, symName: '__ZN4pyo311conversions3std6option90_$LT$impl$u20$pyo3..conversion..IntoPyObject$u20$for$u20$core..option..Option$LT$T$GT$$GT$13into_pyobject17h742b00bda7f2c501E', symObjAddr: 0xAC0, symBinAddr: 0x9D2C, symSize: 0x2C }
  - { offset: 0x236F2, size: 0x8, addend: 0x0, symName: '__ZN4pyo311conversions3std6option90_$LT$impl$u20$pyo3..conversion..IntoPyObject$u20$for$u20$core..option..Option$LT$T$GT$$GT$13into_pyobject17hd240dc67dccbb65fE', symObjAddr: 0xAEC, symBinAddr: 0x9D58, symSize: 0x6C }
  - { offset: 0x23746, size: 0x8, addend: 0x0, symName: '__ZN4pyo311conversions3std6option90_$LT$impl$u20$pyo3..conversion..FromPyObject$u20$for$u20$core..option..Option$LT$T$GT$$GT$13extract_bound17h4bb5add486556ce1E', symObjAddr: 0x9BC, symBinAddr: 0x9C28, symSize: 0x6C }
  - { offset: 0x2377B, size: 0x8, addend: 0x0, symName: '__ZN4pyo311conversions3std6option90_$LT$impl$u20$pyo3..conversion..FromPyObject$u20$for$u20$core..option..Option$LT$T$GT$$GT$13extract_bound17ha674e3c3ff991089E', symObjAddr: 0xA28, symBinAddr: 0x9C94, symSize: 0x6C }
  - { offset: 0x237DC, size: 0x8, addend: 0x0, symName: '__ZN86_$LT$core..option..Option$LT$T$GT$$u20$as$u20$pyo3..impl_..wrap..SomeWrap$LT$T$GT$$GT$4wrap17h04f9cea942b4c41dE', symObjAddr: 0xBC8, symBinAddr: 0x9E34, symSize: 0x14 }
  - { offset: 0x23811, size: 0x8, addend: 0x0, symName: '__ZN86_$LT$core..option..Option$LT$T$GT$$u20$as$u20$pyo3..impl_..wrap..SomeWrap$LT$T$GT$$GT$4wrap17h59e357a8ac8e8b74E', symObjAddr: 0xBDC, symBinAddr: 0x9E48, symSize: 0x18 }
  - { offset: 0x23846, size: 0x8, addend: 0x0, symName: '__ZN86_$LT$core..option..Option$LT$T$GT$$u20$as$u20$pyo3..impl_..wrap..SomeWrap$LT$T$GT$$GT$4wrap17h5c31bc778f021023E', symObjAddr: 0xBF4, symBinAddr: 0x9E60, symSize: 0x18 }
  - { offset: 0x23888, size: 0x8, addend: 0x0, symName: __ZN4pyo310conversion15IntoPyObjectExt22into_pyobject_or_pyerr17h47635f89bb93d890E, symObjAddr: 0x824, symBinAddr: 0x9A90, symSize: 0x48 }
  - { offset: 0x238F3, size: 0x8, addend: 0x0, symName: __ZN4pyo310conversion15IntoPyObjectExt22into_pyobject_or_pyerr17h5aae64c591eeb4dfE, symObjAddr: 0x86C, symBinAddr: 0x9AD8, symSize: 0x48 }
  - { offset: 0x2395E, size: 0x8, addend: 0x0, symName: __ZN4pyo310conversion15IntoPyObjectExt22into_pyobject_or_pyerr17hc891b6c888b341abE, symObjAddr: 0x8B4, symBinAddr: 0x9B20, symSize: 0x108 }
  - { offset: 0x239F0, size: 0x8, addend: 0x0, symName: '__ZN57_$LT$T$u20$as$u20$pyo3..conversion..FromPyObjectBound$GT$20from_py_object_bound17h28e7f7aa3eb041baE', symObjAddr: 0xB58, symBinAddr: 0x9DC4, symSize: 0x34 }
  - { offset: 0x23A27, size: 0x8, addend: 0x0, symName: '__ZN57_$LT$T$u20$as$u20$pyo3..conversion..FromPyObjectBound$GT$20from_py_object_bound17hcd3c850db6251b6bE', symObjAddr: 0xB8C, symBinAddr: 0x9DF8, symSize: 0x34 }
  - { offset: 0x23DAB, size: 0x8, addend: 0x0, symName: '__ZN4core6option15Option$LT$T$GT$11map_or_else17h3f08a9515f472b55E', symObjAddr: 0x1E0, symBinAddr: 0x944C, symSize: 0xD8 }
  - { offset: 0x23E2E, size: 0x8, addend: 0x0, symName: '__ZN4core6option15Option$LT$T$GT$11map_or_else17h9d7e6948eefe938cE', symObjAddr: 0x2B8, symBinAddr: 0x9524, symSize: 0xD4 }
  - { offset: 0x23EB0, size: 0x8, addend: 0x0, symName: '__ZN4core6option15Option$LT$T$GT$11map_or_else17he2b33096f59da00aE', symObjAddr: 0x38C, symBinAddr: 0x95F8, symSize: 0xD4 }
  - { offset: 0x24127, size: 0x8, addend: 0x0, symName: '__ZN4core6option15Option$LT$T$GT$14unwrap_or_else17hfeae39b40d8e4796E', symObjAddr: 0x460, symBinAddr: 0x96CC, symSize: 0x78 }
  - { offset: 0x2416C, size: 0x8, addend: 0x0, symName: '__ZN4core6option15Option$LT$T$GT$17unwrap_or_default17h02849853691dcc52E', symObjAddr: 0x4D8, symBinAddr: 0x9744, symSize: 0x60 }
  - { offset: 0x24199, size: 0x8, addend: 0x0, symName: '__ZN4core6option15Option$LT$T$GT$3map17h14ba217249f09673E', symObjAddr: 0x538, symBinAddr: 0x97A4, symSize: 0x5C }
  - { offset: 0x2422B, size: 0x8, addend: 0x0, symName: '__ZN4core6option15Option$LT$T$GT$3map17h333029edab222a4fE', symObjAddr: 0x594, symBinAddr: 0x9800, symSize: 0x78 }
  - { offset: 0x242A3, size: 0x8, addend: 0x0, symName: '__ZN4core6option15Option$LT$T$GT$3map17h9008a54d9163757bE', symObjAddr: 0x60C, symBinAddr: 0x9878, symSize: 0x50 }
  - { offset: 0x2430E, size: 0x8, addend: 0x0, symName: '__ZN4core6option15Option$LT$T$GT$3map17hb94cc4bee2feeafcE', symObjAddr: 0x65C, symBinAddr: 0x98C8, symSize: 0x68 }
  - { offset: 0x243A2, size: 0x8, addend: 0x0, symName: '__ZN4core6option15Option$LT$T$GT$7is_none17h5244aa3283a83be9E', symObjAddr: 0x6C4, symBinAddr: 0x9930, symSize: 0x28 }
  - { offset: 0x243F9, size: 0x8, addend: 0x0, symName: '__ZN4core6option15Option$LT$T$GT$7is_some17hb64e21a252b66a46E', symObjAddr: 0x6EC, symBinAddr: 0x9958, symSize: 0x28 }
  - { offset: 0x24432, size: 0x8, addend: 0x0, symName: '__ZN4core6option15Option$LT$T$GT$7replace17h0eb21af9675eec07E', symObjAddr: 0x714, symBinAddr: 0x9980, symSize: 0x28 }
  - { offset: 0x24545, size: 0x8, addend: 0x0, symName: '__ZN4core6option15Option$LT$T$GT$8as_deref17h97af7514a42e6017E', symObjAddr: 0x73C, symBinAddr: 0x99A8, symSize: 0x6C }
  - { offset: 0x2462A, size: 0x8, addend: 0x0, symName: '__ZN4pyo35impl_4wrap62IntoPyObjectConverter$LT$core..result..Result$LT$T$C$E$GT$$GT$12map_into_ptr17h269c09ed9d4500e2E', symObjAddr: 0x0, symBinAddr: 0x9E78, symSize: 0x54 }
  - { offset: 0x24861, size: 0x8, addend: 0x0, symName: '__ZN4pyo35impl_4wrap62IntoPyObjectConverter$LT$core..result..Result$LT$T$C$E$GT$$GT$12map_into_ptr28_$u7b$$u7b$closure$u7d$$u7d$17h15076c437eb58053E', symObjAddr: 0xA8, symBinAddr: 0x9F20, symSize: 0x34 }
  - { offset: 0x248B9, size: 0x8, addend: 0x0, symName: '__ZN4pyo35impl_4wrap62IntoPyObjectConverter$LT$core..result..Result$LT$T$C$E$GT$$GT$12map_into_ptr28_$u7b$$u7b$closure$u7d$$u7d$17h2b0a7a63789e47a4E', symObjAddr: 0xDC, symBinAddr: 0x9F54, symSize: 0x34 }
  - { offset: 0x24939, size: 0x8, addend: 0x0, symName: __ZN4pyo35impl_4wrap9converter17h16537247866694e6E, symObjAddr: 0x178, symBinAddr: 0x9FF0, symSize: 0x10 }
  - { offset: 0x24966, size: 0x8, addend: 0x0, symName: __ZN4pyo35impl_4wrap9converter17h8314c97de4344c9aE, symObjAddr: 0x188, symBinAddr: 0xA000, symSize: 0x10 }
  - { offset: 0x24998, size: 0x8, addend: 0x0, symName: '__ZN81_$LT$pyo3..impl_..wrap..Converter$LT$T$GT$$u20$as$u20$core..ops..deref..Deref$GT$5deref17h9e00c65f01a0512fE', symObjAddr: 0x198, symBinAddr: 0xA010, symSize: 0x14 }
  - { offset: 0x249CD, size: 0x8, addend: 0x0, symName: '__ZN81_$LT$pyo3..impl_..wrap..Converter$LT$T$GT$$u20$as$u20$core..ops..deref..Deref$GT$5deref17hd26858b2d47dac88E', symObjAddr: 0x1AC, symBinAddr: 0xA024, symSize: 0x14 }
  - { offset: 0x24A08, size: 0x8, addend: 0x0, symName: '__ZN91_$LT$pyo3..impl_..wrap..EmptyTupleConverter$LT$T$GT$$u20$as$u20$core..ops..deref..Deref$GT$5deref17h49887690aa822561E', symObjAddr: 0x1C0, symBinAddr: 0xA038, symSize: 0x14 }
  - { offset: 0x24A3D, size: 0x8, addend: 0x0, symName: '__ZN91_$LT$pyo3..impl_..wrap..EmptyTupleConverter$LT$T$GT$$u20$as$u20$core..ops..deref..Deref$GT$5deref17hbbad69b27c75c9f4E', symObjAddr: 0x1D4, symBinAddr: 0xA04C, symSize: 0x14 }
  - { offset: 0x25841, size: 0x8, addend: 0x0, symName: '__ZN4pyo35impl_4wrap62IntoPyObjectConverter$LT$core..result..Result$LT$T$C$E$GT$$GT$12map_into_ptr17h269c09ed9d4500e2E', symObjAddr: 0x0, symBinAddr: 0x9E78, symSize: 0x54 }
  - { offset: 0x258AC, size: 0x8, addend: 0x0, symName: '__ZN4pyo35impl_4wrap62IntoPyObjectConverter$LT$core..result..Result$LT$T$C$E$GT$$GT$12map_into_ptr17h7d0c021a80ff0166E', symObjAddr: 0x54, symBinAddr: 0x9ECC, symSize: 0x54 }
  - { offset: 0x2590A, size: 0x8, addend: 0x0, symName: '__ZN4pyo35impl_4wrap62IntoPyObjectConverter$LT$core..result..Result$LT$T$C$E$GT$$GT$4wrap17ha2fa512d961f94c4E', symObjAddr: 0x110, symBinAddr: 0x9F88, symSize: 0x34 }
  - { offset: 0x2594D, size: 0x8, addend: 0x0, symName: '__ZN4pyo35impl_4wrap62IntoPyObjectConverter$LT$core..result..Result$LT$T$C$E$GT$$GT$4wrap17ha7cdfc3c734ca087E', symObjAddr: 0x144, symBinAddr: 0x9FBC, symSize: 0x34 }
  - { offset: 0x25A09, size: 0x8, addend: 0x0, symName: __ZN4core5slice4sort6stable9quicksort16stable_partition17h6f0e7c71eb330703E, symObjAddr: 0x0, symBinAddr: 0xA060, symSize: 0x420 }
  - { offset: 0x26253, size: 0x8, addend: 0x0, symName: __ZN4core5slice4sort6stable9quicksort16stable_partition17h6f0e7c71eb330703E, symObjAddr: 0x0, symBinAddr: 0xA060, symSize: 0x420 }
  - { offset: 0x266DD, size: 0x8, addend: 0x0, symName: __ZN4core5slice4sort6stable9quicksort16stable_partition17hae9932c8a66dcea7E, symObjAddr: 0x420, symBinAddr: 0xA480, symSize: 0x420 }
  - { offset: 0x26B67, size: 0x8, addend: 0x0, symName: __ZN4core5slice4sort6stable9quicksort9quicksort17h848e1f6a59436c21E, symObjAddr: 0x978, symBinAddr: 0xA9D8, symSize: 0x340 }
  - { offset: 0x26E18, size: 0x8, addend: 0x0, symName: '__ZN4core5slice4sort6stable9quicksort9quicksort28_$u7b$$u7b$closure$u7d$$u7d$17h99bee9b8988e78c1E', symObjAddr: 0xCB8, symBinAddr: 0xAD18, symSize: 0x48 }
  - { offset: 0x26E8E, size: 0x8, addend: 0x0, symName: '__ZN68_$LT$T$u20$as$u20$core..slice..sort..stable..quicksort..IsFreeze$GT$9is_freeze17had4473a38120c8a3E', symObjAddr: 0xD00, symBinAddr: 0xAD60, symSize: 0xC }
  - { offset: 0x2727E, size: 0x8, addend: 0x0, symName: '__ZN4core5slice4sort6stable9quicksort23PartitionState$LT$T$GT$13partition_one17h63e12f0cffd0a372E', symObjAddr: 0x840, symBinAddr: 0xA8A0, symSize: 0x138 }
  - { offset: 0x27435, size: 0x8, addend: 0x0, symName: '__ZN4core3str21_$LT$impl$u20$str$GT$5chars17h869f54a1822bba68E', symObjAddr: 0x0, symBinAddr: 0xAD6C, symSize: 0x20 }
  - { offset: 0x2753B, size: 0x8, addend: 0x0, symName: '__ZN4core3str21_$LT$impl$u20$str$GT$5chars17h869f54a1822bba68E', symObjAddr: 0x0, symBinAddr: 0xAD6C, symSize: 0x20 }
  - { offset: 0x2766F, size: 0x8, addend: 0x0, symName: '__ZN4core4iter6traits8iterator8Iterator12try_for_each4call28_$u7b$$u7b$closure$u7d$$u7d$17h47ffcf78fd9f4e10E', symObjAddr: 0x0, symBinAddr: 0xAD8C, symSize: 0x3C }
  - { offset: 0x27EB6, size: 0x8, addend: 0x0, symName: '__ZN4core4iter6traits8iterator8Iterator12try_for_each4call28_$u7b$$u7b$closure$u7d$$u7d$17h47ffcf78fd9f4e10E', symObjAddr: 0x0, symBinAddr: 0xAD8C, symSize: 0x3C }
  - { offset: 0x27F28, size: 0x8, addend: 0x0, symName: '__ZN4core4iter6traits8iterator8Iterator8for_each4call28_$u7b$$u7b$closure$u7d$$u7d$17h0fbbbe78c4149bedE', symObjAddr: 0x3C, symBinAddr: 0xADC8, symSize: 0x3C }
  - { offset: 0x27F81, size: 0x8, addend: 0x0, symName: '__ZN4core4iter6traits8iterator8Iterator8for_each4call28_$u7b$$u7b$closure$u7d$$u7d$17ha9f7ad3fb1cff8bbE', symObjAddr: 0x78, symBinAddr: 0xAE04, symSize: 0x3C }
  - { offset: 0x27FDA, size: 0x8, addend: 0x0, symName: '__ZN4core4iter6traits8iterator8Iterator8for_each4call28_$u7b$$u7b$closure$u7d$$u7d$17hcbb77ca70924ad21E', symObjAddr: 0xB4, symBinAddr: 0xAE40, symSize: 0x3C }
  - { offset: 0x28033, size: 0x8, addend: 0x0, symName: '__ZN4core4iter6traits8iterator8Iterator8for_each4call28_$u7b$$u7b$closure$u7d$$u7d$17hdaabc3bbabcac8d5E', symObjAddr: 0xF0, symBinAddr: 0xAE7C, symSize: 0x3C }
  - { offset: 0x2808C, size: 0x8, addend: 0x0, symName: '__ZN4core4iter6traits8iterator8Iterator8for_each4call28_$u7b$$u7b$closure$u7d$$u7d$17hdbbd9c2ceadffc05E', symObjAddr: 0x12C, symBinAddr: 0xAEB8, symSize: 0x3C }
  - { offset: 0x29DD1, size: 0x8, addend: 0x0, symName: __ZN4core5alloc6layout6Layout25from_size_align_unchecked18precondition_check17hea3c645500fc4057E, symObjAddr: 0x0, symBinAddr: 0xAEF4, symSize: 0xBC }
  - { offset: 0x2A1F9, size: 0x8, addend: 0x0, symName: __ZN4core5alloc6layout6Layout25from_size_align_unchecked18precondition_check17hea3c645500fc4057E, symObjAddr: 0x0, symBinAddr: 0xAEF4, symSize: 0xBC }
  - { offset: 0x2A45C, size: 0x8, addend: 0x0, symName: '__ZN102_$LT$core..iter..adapters..zip..Zip$LT$A$C$B$GT$$u20$as$u20$core..iter..traits..iterator..Iterator$GT$4next17hb307a6abfb808144E', symObjAddr: 0x0, symBinAddr: 0xAFB0, symSize: 0x24 }
  - { offset: 0x2A4E9, size: 0x8, addend: 0x0, symName: '__ZN102_$LT$core..iter..adapters..zip..Zip$LT$A$C$B$GT$$u20$as$u20$core..iter..traits..iterator..Iterator$GT$4next17hb307a6abfb808144E', symObjAddr: 0x0, symBinAddr: 0xAFB0, symSize: 0x24 }
  - { offset: 0x2A52D, size: 0x8, addend: 0x0, symName: '__ZN111_$LT$core..iter..adapters..zip..Zip$LT$A$C$B$GT$$u20$as$u20$core..iter..adapters..zip..ZipImpl$LT$A$C$B$GT$$GT$3new17h1160444e01e37101E', symObjAddr: 0x24, symBinAddr: 0xAFD4, symSize: 0x3C }
  - { offset: 0x2A579, size: 0x8, addend: 0x0, symName: '__ZN111_$LT$core..iter..adapters..zip..Zip$LT$A$C$B$GT$$u20$as$u20$core..iter..adapters..zip..ZipImpl$LT$A$C$B$GT$$GT$4next17h6cffaecb90b0b3b1E', symObjAddr: 0x60, symBinAddr: 0xB010, symSize: 0xE0 }
  - { offset: 0x2A7A6, size: 0x8, addend: 0x0, symName: '__ZN63_$LT$I$u20$as$u20$core..iter..traits..collect..IntoIterator$GT$9into_iter17h71f0cf5fc802f8d8E', symObjAddr: 0x140, symBinAddr: 0xB0F0, symSize: 0x30 }
  - { offset: 0x2A7DE, size: 0x8, addend: 0x0, symName: '__ZN63_$LT$I$u20$as$u20$core..iter..traits..collect..IntoIterator$GT$9into_iter17h79f9dd77379bba40E', symObjAddr: 0x170, symBinAddr: 0xB120, symSize: 0x30 }
  - { offset: 0x2AF8A, size: 0x8, addend: 0x0, symName: __ZN4core5slice3raw14from_raw_parts17h5df3c498925fc859E, symObjAddr: 0x0, symBinAddr: 0xB150, symSize: 0x58 }
  - { offset: 0x2B00D, size: 0x8, addend: 0x0, symName: __ZN4core5slice3raw14from_raw_parts17h5df3c498925fc859E, symObjAddr: 0x0, symBinAddr: 0xB150, symSize: 0x58 }
  - { offset: 0x2B050, size: 0x8, addend: 0x0, symName: __ZN4core5slice3raw14from_raw_parts17hf4cd843d609f4014E, symObjAddr: 0x58, symBinAddr: 0xB1A8, symSize: 0x58 }
  - { offset: 0x2B3C5, size: 0x8, addend: 0x0, symName: '__ZN11typg_python11typg_python11__pyo3_init28_$u7b$$u7b$closure$u7d$$u7d$17h7034cf42f4e30ebfE', symObjAddr: 0x0, symBinAddr: 0xB200, symSize: 0x30 }
  - { offset: 0x2B448, size: 0x8, addend: 0x0, symName: '__ZN11typg_python11typg_python11__pyo3_init28_$u7b$$u7b$closure$u7d$$u7d$17h7034cf42f4e30ebfE', symObjAddr: 0x0, symBinAddr: 0xB200, symSize: 0x30 }
  - { offset: 0x2BDB7, size: 0x8, addend: 0x0, symName: '__ZN57_$LT$T$u20$as$u20$pyo3..conversion..FromPyObjectBound$GT$20from_py_object_bound17h2c9f443242469982E', symObjAddr: 0x0, symBinAddr: 0xB230, symSize: 0x34 }
  - { offset: 0x2BE3A, size: 0x8, addend: 0x0, symName: '__ZN57_$LT$T$u20$as$u20$pyo3..conversion..FromPyObjectBound$GT$20from_py_object_bound17h2c9f443242469982E', symObjAddr: 0x0, symBinAddr: 0xB230, symSize: 0x34 }
  - { offset: 0x2C956, size: 0x8, addend: 0x0, symName: '__ZN5alloc7raw_vec19RawVec$LT$T$C$A$GT$8grow_one17h2238e7033432f8ffE', symObjAddr: 0x0, symBinAddr: 0xB264, symSize: 0x88 }
  - { offset: 0x2D15D, size: 0x8, addend: 0x0, symName: '__ZN5alloc7raw_vec19RawVec$LT$T$C$A$GT$8grow_one17h2238e7033432f8ffE', symObjAddr: 0x0, symBinAddr: 0xB264, symSize: 0x88 }
  - { offset: 0x2D276, size: 0x8, addend: 0x0, symName: '__ZN5alloc7raw_vec19RawVec$LT$T$C$A$GT$8grow_one17h4d219681ab802b58E', symObjAddr: 0x88, symBinAddr: 0xB2EC, symSize: 0x88 }
  - { offset: 0x2D3F2, size: 0x8, addend: 0x0, symName: '__ZN5alloc7raw_vec19RawVec$LT$T$C$A$GT$8grow_one17h79f3394c8ebd691cE', symObjAddr: 0x110, symBinAddr: 0xB374, symSize: 0x88 }
  - { offset: 0x2D47B, size: 0x8, addend: 0x0, symName: __ZN5alloc3fmt6format17hbd396e2bf9ce3470E, symObjAddr: 0x0, symBinAddr: 0xB3FC, symSize: 0xD8 }
  - { offset: 0x2D993, size: 0x8, addend: 0x0, symName: __ZN5alloc3fmt6format17hbd396e2bf9ce3470E, symObjAddr: 0x0, symBinAddr: 0xB3FC, symSize: 0xD8 }
  - { offset: 0x2DB43, size: 0x8, addend: 0x0, symName: '__ZN5alloc3vec13in_place_drop20InPlaceDrop$LT$T$GT$3len17h375050edb4822077E', symObjAddr: 0x0, symBinAddr: 0xB4D4, symSize: 0x84 }
  - { offset: 0x2E296, size: 0x8, addend: 0x0, symName: '__ZN5alloc3vec13in_place_drop20InPlaceDrop$LT$T$GT$3len17h375050edb4822077E', symObjAddr: 0x0, symBinAddr: 0xB4D4, symSize: 0x84 }
  - { offset: 0x2E430, size: 0x8, addend: 0x0, symName: '__ZN5alloc3vec13in_place_drop20InPlaceDrop$LT$T$GT$3len17h895fa9397fc43a28E', symObjAddr: 0x84, symBinAddr: 0xB558, symSize: 0x84 }
  - { offset: 0x2E6B4, size: 0x8, addend: 0x0, symName: '__ZN5alloc3vec13in_place_drop20InPlaceDrop$LT$T$GT$3len17hb1111fb3e3fbe416E', symObjAddr: 0x108, symBinAddr: 0xB5DC, symSize: 0x84 }
  - { offset: 0x2E777, size: 0x8, addend: 0x0, symName: '__ZN4core3fmt3num52_$LT$impl$u20$core..fmt..Debug$u20$for$u20$isize$GT$3fmt17h665fdae5a77f6b6fE', symObjAddr: 0x0, symBinAddr: 0xB660, symSize: 0x90 }
  - { offset: 0x2E812, size: 0x8, addend: 0x0, symName: '__ZN4core3fmt3num52_$LT$impl$u20$core..fmt..Debug$u20$for$u20$isize$GT$3fmt17h665fdae5a77f6b6fE', symObjAddr: 0x0, symBinAddr: 0xB660, symSize: 0x90 }
  - { offset: 0x2EA03, size: 0x8, addend: 0x0, symName: __ZN4core5slice3raw14from_raw_parts18precondition_check17h8dfc0979d6e68b50E, symObjAddr: 0x0, symBinAddr: 0xB6F0, symSize: 0x10C }
  - { offset: 0x2EBA2, size: 0x8, addend: 0x0, symName: __ZN4core5slice3raw14from_raw_parts18precondition_check17h8dfc0979d6e68b50E, symObjAddr: 0x0, symBinAddr: 0xB6F0, symSize: 0x10C }
  - { offset: 0x2ECBE, size: 0x8, addend: 0x0, symName: __ZN4core5slice3raw18from_raw_parts_mut18precondition_check17h8ab82a41528ca6ceE, symObjAddr: 0x10C, symBinAddr: 0xB7FC, symSize: 0x10C }
  - { offset: 0x2EE53, size: 0x8, addend: 0x0, symName: '__ZN100_$LT$pyo3..types..tuple..BorrowedTupleIterator$u20$as$u20$core..iter..traits..iterator..Iterator$GT$4next17h794f0be9ba4fb12fE', symObjAddr: 0x0, symBinAddr: 0xB908, symSize: 0x9C }
  - { offset: 0x2EEDB, size: 0x8, addend: 0x0, symName: '__ZN100_$LT$pyo3..types..tuple..BorrowedTupleIterator$u20$as$u20$core..iter..traits..iterator..Iterator$GT$4next17h794f0be9ba4fb12fE', symObjAddr: 0x0, symBinAddr: 0xB908, symSize: 0x9C }
  - { offset: 0x2F2C4, size: 0x8, addend: 0x0, symName: __ZN4core3ptr19copy_nonoverlapping18precondition_check17h94df62b77a65e670E, symObjAddr: 0x0, symBinAddr: 0xB9A4, symSize: 0x168 }
  - { offset: 0x2F3AC, size: 0x8, addend: 0x0, symName: __ZN4core3ptr19copy_nonoverlapping18precondition_check17h94df62b77a65e670E, symObjAddr: 0x0, symBinAddr: 0xB9A4, symSize: 0x168 }
  - { offset: 0x2F5DE, size: 0x8, addend: 0x0, symName: __ZN4pyo35types8sequence16extract_sequence17h3c53605bc654e856E, symObjAddr: 0x0, symBinAddr: 0xBB0C, symSize: 0x438 }
  - { offset: 0x2F661, size: 0x8, addend: 0x0, symName: __ZN4pyo35types8sequence16extract_sequence17h3c53605bc654e856E, symObjAddr: 0x0, symBinAddr: 0xBB0C, symSize: 0x438 }
  - { offset: 0x2F761, size: 0x8, addend: 0x0, symName: __ZN4pyo35types8sequence16extract_sequence17h688b06af2645c56cE, symObjAddr: 0x438, symBinAddr: 0xBF44, symSize: 0x420 }
  - { offset: 0x2F861, size: 0x8, addend: 0x0, symName: __ZN4pyo35types8sequence16extract_sequence17hcf8e3d30a63e4534E, symObjAddr: 0x858, symBinAddr: 0xC364, symSize: 0x420 }
  - { offset: 0x30B00, size: 0x8, addend: 0x0, symName: '__ZN136_$LT$core..result..Result$LT$V$C$E$GT$$u20$as$u20$core..iter..traits..collect..FromIterator$LT$core..result..Result$LT$A$C$E$GT$$GT$$GT$9from_iter17h409934a1e3ee7af0E', symObjAddr: 0x0, symBinAddr: 0xC784, symSize: 0x34 }
  - { offset: 0x30B3A, size: 0x8, addend: 0x0, symName: '__ZN136_$LT$core..result..Result$LT$V$C$E$GT$$u20$as$u20$core..iter..traits..collect..FromIterator$LT$core..result..Result$LT$A$C$E$GT$$GT$$GT$9from_iter17h409934a1e3ee7af0E', symObjAddr: 0x0, symBinAddr: 0xC784, symSize: 0x34 }
  - { offset: 0x30B8D, size: 0x8, addend: 0x0, symName: '__ZN136_$LT$core..result..Result$LT$V$C$E$GT$$u20$as$u20$core..iter..traits..collect..FromIterator$LT$core..result..Result$LT$A$C$E$GT$$GT$$GT$9from_iter17h55eb691a9fd10cb4E', symObjAddr: 0x34, symBinAddr: 0xC7B8, symSize: 0x38 }
  - { offset: 0x30BDF, size: 0x8, addend: 0x0, symName: '__ZN136_$LT$core..result..Result$LT$V$C$E$GT$$u20$as$u20$core..iter..traits..collect..FromIterator$LT$core..result..Result$LT$A$C$E$GT$$GT$$GT$9from_iter17h87a13d5587204181E', symObjAddr: 0x6C, symBinAddr: 0xC7F0, symSize: 0x34 }
  - { offset: 0x30C37, size: 0x8, addend: 0x0, symName: '__ZN136_$LT$core..result..Result$LT$V$C$E$GT$$u20$as$u20$core..iter..traits..collect..FromIterator$LT$core..result..Result$LT$A$C$E$GT$$GT$$GT$9from_iter28_$u7b$$u7b$closure$u7d$$u7d$17h29dc83697b5aaf17E', symObjAddr: 0xA0, symBinAddr: 0xC824, symSize: 0x28 }
  - { offset: 0x30CB3, size: 0x8, addend: 0x0, symName: '__ZN136_$LT$core..result..Result$LT$V$C$E$GT$$u20$as$u20$core..iter..traits..collect..FromIterator$LT$core..result..Result$LT$A$C$E$GT$$GT$$GT$9from_iter28_$u7b$$u7b$closure$u7d$$u7d$17h5bcfcc183d1356f1E', symObjAddr: 0xC8, symBinAddr: 0xC84C, symSize: 0x28 }
  - { offset: 0x30D2F, size: 0x8, addend: 0x0, symName: '__ZN136_$LT$core..result..Result$LT$V$C$E$GT$$u20$as$u20$core..iter..traits..collect..FromIterator$LT$core..result..Result$LT$A$C$E$GT$$GT$$GT$9from_iter28_$u7b$$u7b$closure$u7d$$u7d$17hbdc5dcdf91650825E', symObjAddr: 0xF0, symBinAddr: 0xC874, symSize: 0x28 }
  - { offset: 0x30F2D, size: 0x8, addend: 0x0, symName: '__ZN153_$LT$core..result..Result$LT$T$C$F$GT$$u20$as$u20$core..ops..try_trait..FromResidual$LT$core..result..Result$LT$core..convert..Infallible$C$E$GT$$GT$$GT$13from_residual17h14dfbba6b5625ec7E', symObjAddr: 0x118, symBinAddr: 0xC89C, symSize: 0x34 }
  - { offset: 0x30F94, size: 0x8, addend: 0x0, symName: '__ZN153_$LT$core..result..Result$LT$T$C$F$GT$$u20$as$u20$core..ops..try_trait..FromResidual$LT$core..result..Result$LT$core..convert..Infallible$C$E$GT$$GT$$GT$13from_residual17h2615a2e6b9fd406fE', symObjAddr: 0x154, symBinAddr: 0xC8D0, symSize: 0x34 }
  - { offset: 0x30FFB, size: 0x8, addend: 0x0, symName: '__ZN153_$LT$core..result..Result$LT$T$C$F$GT$$u20$as$u20$core..ops..try_trait..FromResidual$LT$core..result..Result$LT$core..convert..Infallible$C$E$GT$$GT$$GT$13from_residual17h479bde7b95a6ef4eE', symObjAddr: 0x188, symBinAddr: 0xC904, symSize: 0x6C }
  - { offset: 0x31081, size: 0x8, addend: 0x0, symName: '__ZN153_$LT$core..result..Result$LT$T$C$F$GT$$u20$as$u20$core..ops..try_trait..FromResidual$LT$core..result..Result$LT$core..convert..Infallible$C$E$GT$$GT$$GT$13from_residual17h6d193c4acfd56ec6E', symObjAddr: 0x1FC, symBinAddr: 0xC970, symSize: 0x6C }
  - { offset: 0x31107, size: 0x8, addend: 0x0, symName: '__ZN153_$LT$core..result..Result$LT$T$C$F$GT$$u20$as$u20$core..ops..try_trait..FromResidual$LT$core..result..Result$LT$core..convert..Infallible$C$E$GT$$GT$$GT$13from_residual17h945a2ed6c6855a2eE', symObjAddr: 0x268, symBinAddr: 0xC9DC, symSize: 0x6C }
  - { offset: 0x3118D, size: 0x8, addend: 0x0, symName: '__ZN153_$LT$core..result..Result$LT$T$C$F$GT$$u20$as$u20$core..ops..try_trait..FromResidual$LT$core..result..Result$LT$core..convert..Infallible$C$E$GT$$GT$$GT$13from_residual17h95a9285f1eb1cba3E', symObjAddr: 0x2D4, symBinAddr: 0xCA48, symSize: 0x6C }
  - { offset: 0x31213, size: 0x8, addend: 0x0, symName: '__ZN153_$LT$core..result..Result$LT$T$C$F$GT$$u20$as$u20$core..ops..try_trait..FromResidual$LT$core..result..Result$LT$core..convert..Infallible$C$E$GT$$GT$$GT$13from_residual17h9af4d8c95bbc4385E', symObjAddr: 0x340, symBinAddr: 0xCAB4, symSize: 0x6C }
  - { offset: 0x31299, size: 0x8, addend: 0x0, symName: '__ZN153_$LT$core..result..Result$LT$T$C$F$GT$$u20$as$u20$core..ops..try_trait..FromResidual$LT$core..result..Result$LT$core..convert..Infallible$C$E$GT$$GT$$GT$13from_residual17hc3859a9e344cdaa7E', symObjAddr: 0x3B4, symBinAddr: 0xCB20, symSize: 0x6C }
  - { offset: 0x3131F, size: 0x8, addend: 0x0, symName: '__ZN153_$LT$core..result..Result$LT$T$C$F$GT$$u20$as$u20$core..ops..try_trait..FromResidual$LT$core..result..Result$LT$core..convert..Infallible$C$E$GT$$GT$$GT$13from_residual17hc8940249ea5eabc3E', symObjAddr: 0x420, symBinAddr: 0xCB8C, symSize: 0x6C }
  - { offset: 0x313A5, size: 0x8, addend: 0x0, symName: '__ZN153_$LT$core..result..Result$LT$T$C$F$GT$$u20$as$u20$core..ops..try_trait..FromResidual$LT$core..result..Result$LT$core..convert..Infallible$C$E$GT$$GT$$GT$13from_residual17hce61d25d66e091b7E', symObjAddr: 0x48C, symBinAddr: 0xCBF8, symSize: 0x34 }
  - { offset: 0x3140C, size: 0x8, addend: 0x0, symName: '__ZN153_$LT$core..result..Result$LT$T$C$F$GT$$u20$as$u20$core..ops..try_trait..FromResidual$LT$core..result..Result$LT$core..convert..Infallible$C$E$GT$$GT$$GT$13from_residual17hd38a017c057c0c6eE', symObjAddr: 0x4C0, symBinAddr: 0xCC2C, symSize: 0x34 }
  - { offset: 0x31473, size: 0x8, addend: 0x0, symName: '__ZN153_$LT$core..result..Result$LT$T$C$F$GT$$u20$as$u20$core..ops..try_trait..FromResidual$LT$core..result..Result$LT$core..convert..Infallible$C$E$GT$$GT$$GT$13from_residual17hea5f1c37b63c16dcE', symObjAddr: 0x4F4, symBinAddr: 0xCC60, symSize: 0x34 }
  - { offset: 0x314DA, size: 0x8, addend: 0x0, symName: '__ZN153_$LT$core..result..Result$LT$T$C$F$GT$$u20$as$u20$core..ops..try_trait..FromResidual$LT$core..result..Result$LT$core..convert..Infallible$C$E$GT$$GT$$GT$13from_residual17hf8b919bb086ba442E', symObjAddr: 0x528, symBinAddr: 0xCC94, symSize: 0x6C }
  - { offset: 0x32706, size: 0x8, addend: 0x0, symName: '__ZN79_$LT$core..result..Result$LT$T$C$E$GT$$u20$as$u20$core..ops..try_trait..Try$GT$11from_output17h41b0ab251dd99dc2E', symObjAddr: 0x11A8, symBinAddr: 0xD914, symSize: 0x18 }
  - { offset: 0x32746, size: 0x8, addend: 0x0, symName: '__ZN79_$LT$core..result..Result$LT$T$C$E$GT$$u20$as$u20$core..ops..try_trait..Try$GT$11from_output17h73609e2f23afdcf8E', symObjAddr: 0x11C0, symBinAddr: 0xD92C, symSize: 0x18 }
  - { offset: 0x32786, size: 0x8, addend: 0x0, symName: '__ZN79_$LT$core..result..Result$LT$T$C$E$GT$$u20$as$u20$core..ops..try_trait..Try$GT$11from_output17h9e1c93f604a02b51E', symObjAddr: 0x11D8, symBinAddr: 0xD944, symSize: 0x18 }
  - { offset: 0x327C6, size: 0x8, addend: 0x0, symName: '__ZN79_$LT$core..result..Result$LT$T$C$E$GT$$u20$as$u20$core..ops..try_trait..Try$GT$11from_output17ha857fb04e3e621fcE', symObjAddr: 0x11F0, symBinAddr: 0xD95C, symSize: 0x1C }
  - { offset: 0x32806, size: 0x8, addend: 0x0, symName: '__ZN79_$LT$core..result..Result$LT$T$C$E$GT$$u20$as$u20$core..ops..try_trait..Try$GT$11from_output17hb045d6bb2bb6e17aE', symObjAddr: 0x120C, symBinAddr: 0xD978, symSize: 0x1C }
  - { offset: 0x32846, size: 0x8, addend: 0x0, symName: '__ZN79_$LT$core..result..Result$LT$T$C$E$GT$$u20$as$u20$core..ops..try_trait..Try$GT$11from_output17hc8876e2f7a89474bE', symObjAddr: 0x1228, symBinAddr: 0xD994, symSize: 0x1C }
  - { offset: 0x32886, size: 0x8, addend: 0x0, symName: '__ZN79_$LT$core..result..Result$LT$T$C$E$GT$$u20$as$u20$core..ops..try_trait..Try$GT$11from_output17hfbfd8189ca77d407E', symObjAddr: 0x1244, symBinAddr: 0xD9B0, symSize: 0x18 }
  - { offset: 0x328C6, size: 0x8, addend: 0x0, symName: '__ZN79_$LT$core..result..Result$LT$T$C$E$GT$$u20$as$u20$core..ops..try_trait..Try$GT$6branch17h07c02255dc7c2d4cE', symObjAddr: 0x125C, symBinAddr: 0xD9C8, symSize: 0xCC }
  - { offset: 0x32945, size: 0x8, addend: 0x0, symName: '__ZN79_$LT$core..result..Result$LT$T$C$E$GT$$u20$as$u20$core..ops..try_trait..Try$GT$6branch17h09bfc0d794be7d0fE', symObjAddr: 0x1328, symBinAddr: 0xDA94, symSize: 0xB4 }
  - { offset: 0x329C2, size: 0x8, addend: 0x0, symName: '__ZN79_$LT$core..result..Result$LT$T$C$E$GT$$u20$as$u20$core..ops..try_trait..Try$GT$6branch17h28fb639bfc039116E', symObjAddr: 0x13DC, symBinAddr: 0xDB48, symSize: 0x78 }
  - { offset: 0x32A3F, size: 0x8, addend: 0x0, symName: '__ZN79_$LT$core..result..Result$LT$T$C$E$GT$$u20$as$u20$core..ops..try_trait..Try$GT$6branch17h2ca726f4dd36f81dE', symObjAddr: 0x1454, symBinAddr: 0xDBC0, symSize: 0x3C }
  - { offset: 0x32A9D, size: 0x8, addend: 0x0, symName: '__ZN79_$LT$core..result..Result$LT$T$C$E$GT$$u20$as$u20$core..ops..try_trait..Try$GT$6branch17h39783605417b039aE', symObjAddr: 0x1490, symBinAddr: 0xDBFC, symSize: 0x78 }
  - { offset: 0x32B1A, size: 0x8, addend: 0x0, symName: '__ZN79_$LT$core..result..Result$LT$T$C$E$GT$$u20$as$u20$core..ops..try_trait..Try$GT$6branch17h4559f93e26921a4bE', symObjAddr: 0x1508, symBinAddr: 0xDC74, symSize: 0x7C }
  - { offset: 0x32B97, size: 0x8, addend: 0x0, symName: '__ZN79_$LT$core..result..Result$LT$T$C$E$GT$$u20$as$u20$core..ops..try_trait..Try$GT$6branch17h48cabdbc86abe4caE', symObjAddr: 0x1584, symBinAddr: 0xDCF0, symSize: 0x74 }
  - { offset: 0x32C14, size: 0x8, addend: 0x0, symName: '__ZN79_$LT$core..result..Result$LT$T$C$E$GT$$u20$as$u20$core..ops..try_trait..Try$GT$6branch17h5435f9c6808678d8E', symObjAddr: 0x15F8, symBinAddr: 0xDD64, symSize: 0x94 }
  - { offset: 0x32C91, size: 0x8, addend: 0x0, symName: '__ZN79_$LT$core..result..Result$LT$T$C$E$GT$$u20$as$u20$core..ops..try_trait..Try$GT$6branch17h59a4c66d66331e29E', symObjAddr: 0x168C, symBinAddr: 0xDDF8, symSize: 0x7C }
  - { offset: 0x32D0E, size: 0x8, addend: 0x0, symName: '__ZN79_$LT$core..result..Result$LT$T$C$E$GT$$u20$as$u20$core..ops..try_trait..Try$GT$6branch17h638bb7ad83a642b0E', symObjAddr: 0x1708, symBinAddr: 0xDE74, symSize: 0xCC }
  - { offset: 0x32D8D, size: 0x8, addend: 0x0, symName: '__ZN79_$LT$core..result..Result$LT$T$C$E$GT$$u20$as$u20$core..ops..try_trait..Try$GT$6branch17h65ecce4eb3036c18E', symObjAddr: 0x17D4, symBinAddr: 0xDF40, symSize: 0xB4 }
  - { offset: 0x32E0B, size: 0x8, addend: 0x0, symName: '__ZN79_$LT$core..result..Result$LT$T$C$E$GT$$u20$as$u20$core..ops..try_trait..Try$GT$6branch17h6ea0548c17f0a2eeE', symObjAddr: 0x1888, symBinAddr: 0xDFF4, symSize: 0xB4 }
  - { offset: 0x32E88, size: 0x8, addend: 0x0, symName: '__ZN79_$LT$core..result..Result$LT$T$C$E$GT$$u20$as$u20$core..ops..try_trait..Try$GT$6branch17h7bb259f17051b811E', symObjAddr: 0x193C, symBinAddr: 0xE0A8, symSize: 0x90 }
  - { offset: 0x32F05, size: 0x8, addend: 0x0, symName: '__ZN79_$LT$core..result..Result$LT$T$C$E$GT$$u20$as$u20$core..ops..try_trait..Try$GT$6branch17h7ce0d7659050cda2E', symObjAddr: 0x19CC, symBinAddr: 0xE138, symSize: 0xAC }
  - { offset: 0x32F82, size: 0x8, addend: 0x0, symName: '__ZN79_$LT$core..result..Result$LT$T$C$E$GT$$u20$as$u20$core..ops..try_trait..Try$GT$6branch17h7cfc03a0ab5bbb4bE', symObjAddr: 0x1A78, symBinAddr: 0xE1E4, symSize: 0x3C }
  - { offset: 0x32FE0, size: 0x8, addend: 0x0, symName: '__ZN79_$LT$core..result..Result$LT$T$C$E$GT$$u20$as$u20$core..ops..try_trait..Try$GT$6branch17h7dd4c118d32e0c68E', symObjAddr: 0x1AB4, symBinAddr: 0xE220, symSize: 0xB4 }
  - { offset: 0x3305E, size: 0x8, addend: 0x0, symName: '__ZN79_$LT$core..result..Result$LT$T$C$E$GT$$u20$as$u20$core..ops..try_trait..Try$GT$6branch17h7eacd1b366d08b7cE', symObjAddr: 0x1B68, symBinAddr: 0xE2D4, symSize: 0x78 }
  - { offset: 0x330DB, size: 0x8, addend: 0x0, symName: '__ZN79_$LT$core..result..Result$LT$T$C$E$GT$$u20$as$u20$core..ops..try_trait..Try$GT$6branch17h91a6a3223cf2a812E', symObjAddr: 0x1BE0, symBinAddr: 0xE34C, symSize: 0xA0 }
  - { offset: 0x33158, size: 0x8, addend: 0x0, symName: '__ZN79_$LT$core..result..Result$LT$T$C$E$GT$$u20$as$u20$core..ops..try_trait..Try$GT$6branch17haf693a2cc51c350fE', symObjAddr: 0x1C80, symBinAddr: 0xE3EC, symSize: 0x3C }
  - { offset: 0x331B6, size: 0x8, addend: 0x0, symName: '__ZN79_$LT$core..result..Result$LT$T$C$E$GT$$u20$as$u20$core..ops..try_trait..Try$GT$6branch17hb72e0c574ee97634E', symObjAddr: 0x1CBC, symBinAddr: 0xE428, symSize: 0xB4 }
  - { offset: 0x33234, size: 0x8, addend: 0x0, symName: '__ZN79_$LT$core..result..Result$LT$T$C$E$GT$$u20$as$u20$core..ops..try_trait..Try$GT$6branch17hb86530ffc0cbe53bE', symObjAddr: 0x1D70, symBinAddr: 0xE4DC, symSize: 0xB4 }
  - { offset: 0x332B2, size: 0x8, addend: 0x0, symName: '__ZN79_$LT$core..result..Result$LT$T$C$E$GT$$u20$as$u20$core..ops..try_trait..Try$GT$6branch17hbe3f55fd184109e9E', symObjAddr: 0x1E24, symBinAddr: 0xE590, symSize: 0x7C }
  - { offset: 0x3332F, size: 0x8, addend: 0x0, symName: '__ZN79_$LT$core..result..Result$LT$T$C$E$GT$$u20$as$u20$core..ops..try_trait..Try$GT$6branch17hd95be4fcff16129aE', symObjAddr: 0x1EA0, symBinAddr: 0xE60C, symSize: 0xB4 }
  - { offset: 0x333AD, size: 0x8, addend: 0x0, symName: '__ZN79_$LT$core..result..Result$LT$T$C$E$GT$$u20$as$u20$core..ops..try_trait..Try$GT$6branch17hdb865dde77fe6857E', symObjAddr: 0x1F54, symBinAddr: 0xE6C0, symSize: 0xB4 }
  - { offset: 0x3342B, size: 0x8, addend: 0x0, symName: '__ZN79_$LT$core..result..Result$LT$T$C$E$GT$$u20$as$u20$core..ops..try_trait..Try$GT$6branch17he1fa55933266678eE', symObjAddr: 0x2008, symBinAddr: 0xE774, symSize: 0x78 }
  - { offset: 0x334A8, size: 0x8, addend: 0x0, symName: '__ZN79_$LT$core..result..Result$LT$T$C$E$GT$$u20$as$u20$core..ops..try_trait..Try$GT$6branch17hf35b8d0251ee0ca9E', symObjAddr: 0x2080, symBinAddr: 0xE7EC, symSize: 0xB4 }
  - { offset: 0x33526, size: 0x8, addend: 0x0, symName: '__ZN79_$LT$core..result..Result$LT$T$C$E$GT$$u20$as$u20$core..ops..try_trait..Try$GT$6branch17hfbd99527b7d91317E', symObjAddr: 0x2134, symBinAddr: 0xE8A0, symSize: 0xB4 }
  - { offset: 0x39651, size: 0x8, addend: 0x0, symName: '__ZN4core6result19Result$LT$T$C$E$GT$3map17h131744da2c34c0ebE', symObjAddr: 0x594, symBinAddr: 0xCD00, symSize: 0x9C }
  - { offset: 0x396FC, size: 0x8, addend: 0x0, symName: '__ZN4core6result19Result$LT$T$C$E$GT$3map17h2b96920d3dbca53fE', symObjAddr: 0x630, symBinAddr: 0xCD9C, symSize: 0x90 }
  - { offset: 0x3978F, size: 0x8, addend: 0x0, symName: '__ZN4core6result19Result$LT$T$C$E$GT$3map17h31d94c4ca97a9031E', symObjAddr: 0x6C0, symBinAddr: 0xCE2C, symSize: 0x38 }
  - { offset: 0x3981B, size: 0x8, addend: 0x0, symName: '__ZN4core6result19Result$LT$T$C$E$GT$3map17h48e87c8008eb9772E', symObjAddr: 0x6F8, symBinAddr: 0xCE64, symSize: 0x90 }
  - { offset: 0x398C6, size: 0x8, addend: 0x0, symName: '__ZN4core6result19Result$LT$T$C$E$GT$3map17h6b99cef79d2b3281E', symObjAddr: 0x788, symBinAddr: 0xCEF4, symSize: 0x90 }
  - { offset: 0x39971, size: 0x8, addend: 0x0, symName: '__ZN4core6result19Result$LT$T$C$E$GT$3map17h82e548b9b42e639aE', symObjAddr: 0x818, symBinAddr: 0xCF84, symSize: 0xBC }
  - { offset: 0x39A2A, size: 0x8, addend: 0x0, symName: '__ZN4core6result19Result$LT$T$C$E$GT$3map17hb9b8ff59cead24edE', symObjAddr: 0x8D4, symBinAddr: 0xD040, symSize: 0x90 }
  - { offset: 0x39AD5, size: 0x8, addend: 0x0, symName: '__ZN4core6result19Result$LT$T$C$E$GT$3map17he003264e098c5770E', symObjAddr: 0x964, symBinAddr: 0xD0D0, symSize: 0x94 }
  - { offset: 0x39B80, size: 0x8, addend: 0x0, symName: '__ZN4core6result19Result$LT$T$C$E$GT$3map17hea3f96b8a58a9ee2E', symObjAddr: 0x9F8, symBinAddr: 0xD164, symSize: 0x38 }
  - { offset: 0x39BF4, size: 0x8, addend: 0x0, symName: '__ZN4core6result19Result$LT$T$C$E$GT$3map17heee27668bd0199bdE', symObjAddr: 0xA30, symBinAddr: 0xD19C, symSize: 0x90 }
  - { offset: 0x39C9F, size: 0x8, addend: 0x0, symName: '__ZN4core6result19Result$LT$T$C$E$GT$3map17hf71d233101ba7d13E', symObjAddr: 0xAC0, symBinAddr: 0xD22C, symSize: 0xBC }
  - { offset: 0x39D4B, size: 0x8, addend: 0x0, symName: '__ZN4core6result19Result$LT$T$C$E$GT$3map17hfcd969631945c14cE', symObjAddr: 0xB7C, symBinAddr: 0xD2E8, symSize: 0x9C }
  - { offset: 0x39E10, size: 0x8, addend: 0x0, symName: '__ZN4core6result19Result$LT$T$C$E$GT$6is_err17h37cd5708bb3aed08E', symObjAddr: 0xC18, symBinAddr: 0xD384, symSize: 0x20 }
  - { offset: 0x39E70, size: 0x8, addend: 0x0, symName: '__ZN4core6result19Result$LT$T$C$E$GT$7map_err17h71c3c48eb0a78d5aE', symObjAddr: 0xC38, symBinAddr: 0xD3A4, symSize: 0xAC }
  - { offset: 0x39F1C, size: 0x8, addend: 0x0, symName: '__ZN4core6result19Result$LT$T$C$E$GT$7map_err17hb5d03b6023af9e86E', symObjAddr: 0xCE4, symBinAddr: 0xD450, symSize: 0xCC }
  - { offset: 0x39FC8, size: 0x8, addend: 0x0, symName: '__ZN4core6result19Result$LT$T$C$E$GT$7map_err17hd7975605c6d8b763E', symObjAddr: 0xDB0, symBinAddr: 0xD51C, symSize: 0xB4 }
  - { offset: 0x3A05B, size: 0x8, addend: 0x0, symName: '__ZN4core6result19Result$LT$T$C$E$GT$7map_err17he80ee736a5c4148bE', symObjAddr: 0xE64, symBinAddr: 0xD5D0, symSize: 0xAC }
  - { offset: 0x3A0EE, size: 0x8, addend: 0x0, symName: '__ZN4core6result19Result$LT$T$C$E$GT$7map_err17hffe626ba0c192389E', symObjAddr: 0xF10, symBinAddr: 0xD67C, symSize: 0xCC }
  - { offset: 0x3A182, size: 0x8, addend: 0x0, symName: '__ZN4core6result19Result$LT$T$C$E$GT$8and_then17h81af16bb61894e91E', symObjAddr: 0xFDC, symBinAddr: 0xD748, symSize: 0xB0 }
  - { offset: 0x3A216, size: 0x8, addend: 0x0, symName: '__ZN4core6result19Result$LT$T$C$E$GT$8and_then17ha5b7225619d296f5E', symObjAddr: 0x108C, symBinAddr: 0xD7F8, symSize: 0xB0 }
  - { offset: 0x3A2AA, size: 0x8, addend: 0x0, symName: '__ZN4core6result19Result$LT$T$C$E$GT$9unwrap_or17h77c1eaeaa6a86bf7E', symObjAddr: 0x113C, symBinAddr: 0xD8A8, symSize: 0x6C }
  - { offset: 0x3A379, size: 0x8, addend: 0x0, symName: '__ZN81_$LT$core..str..iter..Chars$u20$as$u20$core..iter..traits..iterator..Iterator$GT$4next17he4d62ed0818d17e3E', symObjAddr: 0x0, symBinAddr: 0xE954, symSize: 0x80 }
  - { offset: 0x3A527, size: 0x8, addend: 0x0, symName: '__ZN81_$LT$core..str..iter..Chars$u20$as$u20$core..iter..traits..iterator..Iterator$GT$4next17he4d62ed0818d17e3E', symObjAddr: 0x0, symBinAddr: 0xE954, symSize: 0x80 }
  - { offset: 0x3A5C2, size: 0x8, addend: 0x0, symName: '__ZN81_$LT$core..str..iter..Chars$u20$as$u20$core..iter..traits..iterator..Iterator$GT$9size_hint17hada1fabd93087853E', symObjAddr: 0x80, symBinAddr: 0xE9D4, symSize: 0xF4 }
  - { offset: 0x3AB03, size: 0x8, addend: 0x0, symName: __ZN4core4char7convert18from_u32_unchecked18precondition_check17h19b90ba156ea01d0E, symObjAddr: 0x0, symBinAddr: 0xEAC8, symSize: 0x7C }
  - { offset: 0x3AB8E, size: 0x8, addend: 0x0, symName: __ZN4core4char7convert18from_u32_unchecked18precondition_check17h19b90ba156ea01d0E, symObjAddr: 0x0, symBinAddr: 0xEAC8, symSize: 0x7C }
  - { offset: 0x3AD02, size: 0x8, addend: 0x0, symName: '__ZN42_$LT$$RF$T$u20$as$u20$core..fmt..Debug$GT$3fmt17haa178ff301d02dd8E', symObjAddr: 0x0, symBinAddr: 0xEB44, symSize: 0x30 }
  - { offset: 0x3AD1E, size: 0x8, addend: 0x0, symName: '__ZN42_$LT$$RF$T$u20$as$u20$core..fmt..Debug$GT$3fmt17haa178ff301d02dd8E', symObjAddr: 0x0, symBinAddr: 0xEB44, symSize: 0x30 }
  - { offset: 0x3AF01, size: 0x8, addend: 0x0, symName: __ZN4pyo35impl_10trampoline10trampoline17ha7c2888ba0ef6aefE, symObjAddr: 0x0, symBinAddr: 0xEB74, symSize: 0x160 }
  - { offset: 0x3AF84, size: 0x8, addend: 0x0, symName: __ZN4pyo35impl_10trampoline10trampoline17ha7c2888ba0ef6aefE, symObjAddr: 0x0, symBinAddr: 0xEB74, symSize: 0x160 }
  - { offset: 0x3B028, size: 0x8, addend: 0x0, symName: __ZN4pyo35impl_10trampoline10trampoline17hd9901510577d697bE, symObjAddr: 0x160, symBinAddr: 0xECD4, symSize: 0x14C }
  - { offset: 0x3B0D0, size: 0x8, addend: 0x0, symName: '__ZN4pyo35impl_10trampoline10trampoline28_$u7b$$u7b$closure$u7d$$u7d$17hae09377ee006ff61E', symObjAddr: 0x2AC, symBinAddr: 0xEE20, symSize: 0x24 }
  - { offset: 0x3B11E, size: 0x8, addend: 0x0, symName: '__ZN4pyo35impl_10trampoline10trampoline28_$u7b$$u7b$closure$u7d$$u7d$17he256918e02d61a25E', symObjAddr: 0x2D0, symBinAddr: 0xEE44, symSize: 0x40 }
  - { offset: 0x3B173, size: 0x8, addend: 0x0, symName: '__ZN4pyo35impl_10trampoline11module_init28_$u7b$$u7b$closure$u7d$$u7d$17h89bd4882871e379bE', symObjAddr: 0x310, symBinAddr: 0xEE84, symSize: 0x40 }
  - { offset: 0x3B1BF, size: 0x8, addend: 0x0, symName: '__ZN4pyo35impl_10trampoline11module_init28_$u7b$$u7b$closure$u7d$$u7d$28_$u7b$$u7b$closure$u7d$$u7d$17h55edd819ff9ab1f7E', symObjAddr: 0x350, symBinAddr: 0xEEC4, symSize: 0x24 }
  - { offset: 0x3B216, size: 0x8, addend: 0x0, symName: '__ZN4pyo35impl_10trampoline22fastcall_with_keywords28_$u7b$$u7b$closure$u7d$$u7d$17h598c155f3d06e3c1E', symObjAddr: 0x374, symBinAddr: 0xEEE8, symSize: 0x48 }
  - { offset: 0x3BD4E, size: 0x8, addend: 0x0, symName: '__ZN4core5slice4iter87_$LT$impl$u20$core..iter..traits..collect..IntoIterator$u20$for$u20$$RF$$u5b$T$u5d$$GT$9into_iter17h4f96b22d3b80561bE', symObjAddr: 0x0, symBinAddr: 0xEF30, symSize: 0x58 }
  - { offset: 0x3BE2A, size: 0x8, addend: 0x0, symName: '__ZN4core5slice4iter87_$LT$impl$u20$core..iter..traits..collect..IntoIterator$u20$for$u20$$RF$$u5b$T$u5d$$GT$9into_iter17h4f96b22d3b80561bE', symObjAddr: 0x0, symBinAddr: 0xEF30, symSize: 0x58 }
  - { offset: 0x3CAC6, size: 0x8, addend: 0x0, symName: __ZN4pyo310conversion12IntoPyObject28owned_sequence_into_pyobject17h0204fca4ddc609a5E, symObjAddr: 0x58, symBinAddr: 0xEF88, symSize: 0xDC }
  - { offset: 0x3CB7C, size: 0x8, addend: 0x0, symName: __ZN4pyo310conversion15IntoPyObjectExt22into_pyobject_or_pyerr17h56506acbaef25409E, symObjAddr: 0x134, symBinAddr: 0xF064, symSize: 0x58 }
  - { offset: 0x3CBEE, size: 0x8, addend: 0x0, symName: '__ZN57_$LT$T$u20$as$u20$pyo3..conversion..FromPyObjectBound$GT$20from_py_object_bound17ha990356068ab435cE', symObjAddr: 0x18C, symBinAddr: 0xF0BC, symSize: 0x34 }
  - { offset: 0x3CC44, size: 0x8, addend: 0x0, symName: '__ZN80_$LT$T$u20$as$u20$pyo3..impl_..extract_argument..PyFunctionArgument$LT$_$GT$$GT$7extract17h9c6d1039503e6345E', symObjAddr: 0x1C0, symBinAddr: 0xF0F0, symSize: 0x28 }
  - { offset: 0x3D2FF, size: 0x8, addend: 0x0, symName: __ZN4pyo36marker6Python15assume_attached17hc751c543b1e6d91fE, symObjAddr: 0x0, symBinAddr: 0xF118, symSize: 0x4 }
  - { offset: 0x3D53E, size: 0x8, addend: 0x0, symName: __ZN4pyo36marker6Python15assume_attached17hc751c543b1e6d91fE, symObjAddr: 0x0, symBinAddr: 0xF118, symSize: 0x4 }
  - { offset: 0x3D58D, size: 0x8, addend: 0x0, symName: __ZN4pyo36marker6Python4None17h53ec74118b1844beE, symObjAddr: 0x4, symBinAddr: 0xF11C, symSize: 0x28 }
  - { offset: 0x3D5DA, size: 0x8, addend: 0x0, symName: __ZN5alloc5alloc6Global18alloc_impl_runtime17h6853ca2002d0537dE, symObjAddr: 0x0, symBinAddr: 0xF144, symSize: 0x194 }
  - { offset: 0x3E50E, size: 0x8, addend: 0x0, symName: __ZN5alloc5alloc6Global18alloc_impl_runtime17h6853ca2002d0537dE, symObjAddr: 0x0, symBinAddr: 0xF144, symSize: 0x194 }
  - { offset: 0x3EA56, size: 0x8, addend: 0x0, symName: __ZN5alloc5alloc6Global19shrink_impl_runtime17h5cf30c39a4b25954E, symObjAddr: 0x194, symBinAddr: 0xF2D8, symSize: 0x304 }
  - { offset: 0x3F105, size: 0x8, addend: 0x0, symName: __ZN4core3fmt9Arguments17from_str_nonconst17h49da0a669346ec85E, symObjAddr: 0x0, symBinAddr: 0xF5DC, symSize: 0x28 }
  - { offset: 0x3F571, size: 0x8, addend: 0x0, symName: __ZN4core3fmt9Arguments17from_str_nonconst17h49da0a669346ec85E, symObjAddr: 0x0, symBinAddr: 0xF5DC, symSize: 0x28 }
  - { offset: 0x3F5DD, size: 0x8, addend: 0x0, symName: __ZN4core3fmt9Arguments6as_str17h7394cd6cb4a85abbE, symObjAddr: 0x28, symBinAddr: 0xF604, symSize: 0xD0 }
  - { offset: 0x3F67F, size: 0x8, addend: 0x0, symName: __ZN4core3fmt9Arguments8from_str17h2e8cb2f3a1647279E, symObjAddr: 0xF8, symBinAddr: 0xF6D4, symSize: 0x20 }
  - { offset: 0x3F6C0, size: 0x8, addend: 0x0, symName: __ZN4pyo35impl_10trampoline11module_init17h3cb8e98812d95a3aE, symObjAddr: 0x0, symBinAddr: 0xF6F4, symSize: 0x28 }
  - { offset: 0x3F743, size: 0x8, addend: 0x0, symName: __ZN4pyo35impl_10trampoline11module_init17h3cb8e98812d95a3aE, symObjAddr: 0x0, symBinAddr: 0xF6F4, symSize: 0x28 }
  - { offset: 0x3F76F, size: 0x8, addend: 0x0, symName: __ZN4pyo35impl_10trampoline22fastcall_with_keywords17hf189cca6823aaa7bE, symObjAddr: 0x28, symBinAddr: 0xF71C, symSize: 0x5C }
  - { offset: 0x401C1, size: 0x8, addend: 0x0, symName: '__ZN106_$LT$pyo3..impl_..extract_argument..NoVarargs$u20$as$u20$pyo3..impl_..extract_argument..VarargsHandler$GT$23handle_varargs_fastcall17h8e715dfa04192feeE', symObjAddr: 0x0, symBinAddr: 0xF778, symSize: 0xB4 }
  - { offset: 0x40249, size: 0x8, addend: 0x0, symName: '__ZN106_$LT$pyo3..impl_..extract_argument..NoVarargs$u20$as$u20$pyo3..impl_..extract_argument..VarargsHandler$GT$23handle_varargs_fastcall17h8e715dfa04192feeE', symObjAddr: 0x0, symBinAddr: 0xF778, symSize: 0xB4 }
  - { offset: 0x402BD, size: 0x8, addend: 0x0, symName: '__ZN114_$LT$pyo3..impl_..extract_argument..NoVarkeywords$u20$as$u20$pyo3..impl_..extract_argument..VarkeywordsHandler$GT$17handle_varkeyword17h282915d43342e57eE', symObjAddr: 0xB4, symBinAddr: 0xF82C, symSize: 0x6C }
  - { offset: 0x403FC, size: 0x8, addend: 0x0, symName: __ZN4pyo35impl_16extract_argument24unwrap_required_argument17h62a7514809318de1E, symObjAddr: 0x4D4, symBinAddr: 0xFC4C, symSize: 0x58 }
  - { offset: 0x41030, size: 0x8, addend: 0x0, symName: __ZN4pyo35impl_16extract_argument19FunctionDescription36find_keyword_parameter_in_positional17h85a6bb7c58384cf8E, symObjAddr: 0x120, symBinAddr: 0xF898, symSize: 0x5C }
  - { offset: 0x41062, size: 0x8, addend: 0x0, symName: __ZN4pyo35impl_16extract_argument19FunctionDescription38find_keyword_parameter_in_keyword_only17h50b0d9be82d39646E, symObjAddr: 0x17C, symBinAddr: 0xF8F4, symSize: 0x5C }
  - { offset: 0x4131D, size: 0x8, addend: 0x0, symName: __ZN4pyo35impl_16extract_argument19FunctionDescription44ensure_no_missing_required_keyword_arguments17hab404623e5bb8e6aE, symObjAddr: 0x1D8, symBinAddr: 0xF950, symSize: 0x160 }
  - { offset: 0x413E9, size: 0x8, addend: 0x0, symName: __ZN4pyo35impl_16extract_argument19FunctionDescription47ensure_no_missing_required_positional_arguments17h9e19ee39d3f398caE, symObjAddr: 0x338, symBinAddr: 0xFAB0, symSize: 0x19C }
  - { offset: 0x41571, size: 0x8, addend: 0x0, symName: __ZN4pyo35impl_16extract_argument16extract_argument17h19dffe3441d4c6e8E, symObjAddr: 0x0, symBinAddr: 0xFCA4, symSize: 0x150 }
  - { offset: 0x426A2, size: 0x8, addend: 0x0, symName: __ZN4pyo35impl_16extract_argument16extract_argument17h19dffe3441d4c6e8E, symObjAddr: 0x0, symBinAddr: 0xFCA4, symSize: 0x150 }
  - { offset: 0x42727, size: 0x8, addend: 0x0, symName: __ZN4pyo35impl_16extract_argument16extract_argument17h22ad5bd2495d962cE, symObjAddr: 0x150, symBinAddr: 0xFDF4, symSize: 0x150 }
  - { offset: 0x427AC, size: 0x8, addend: 0x0, symName: __ZN4pyo35impl_16extract_argument16extract_argument17h3b685c84d5027715E, symObjAddr: 0x2A0, symBinAddr: 0xFF44, symSize: 0x138 }
  - { offset: 0x42831, size: 0x8, addend: 0x0, symName: __ZN4pyo35impl_16extract_argument16extract_argument17h421ffc46c8dc8001E, symObjAddr: 0x3D8, symBinAddr: 0x1007C, symSize: 0x150 }
  - { offset: 0x428B6, size: 0x8, addend: 0x0, symName: __ZN4pyo35impl_16extract_argument16extract_argument17h95b78e8becea4acdE, symObjAddr: 0x528, symBinAddr: 0x101CC, symSize: 0x144 }
  - { offset: 0x4293B, size: 0x8, addend: 0x0, symName: __ZN4pyo35impl_16extract_argument16extract_argument17heb40f6651bba877eE, symObjAddr: 0x66C, symBinAddr: 0x10310, symSize: 0x150 }
  - { offset: 0x42AC9, size: 0x8, addend: 0x0, symName: '__ZN4pyo35impl_16extract_argument19FunctionDescription26extract_arguments_fastcall28_$u7b$$u7b$closure$u7d$$u7d$17h25922147d4ef11a3E', symObjAddr: 0x1500, symBinAddr: 0x111A4, symSize: 0x24 }
  - { offset: 0x42B21, size: 0x8, addend: 0x0, symName: '__ZN4pyo35impl_16extract_argument19FunctionDescription36find_keyword_parameter_in_positional28_$u7b$$u7b$closure$u7d$$u7d$17h5ea1869a1b28c9e0E', symObjAddr: 0x1524, symBinAddr: 0x111C8, symSize: 0x48 }
  - { offset: 0x42B81, size: 0x8, addend: 0x0, symName: '__ZN4pyo35impl_16extract_argument19FunctionDescription38find_keyword_parameter_in_keyword_only28_$u7b$$u7b$closure$u7d$$u7d$17h78d1d2d357e49eeaE', symObjAddr: 0x156C, symBinAddr: 0x11210, symSize: 0x38 }
  - { offset: 0x42BC3, size: 0x8, addend: 0x0, symName: __ZN4pyo35impl_16extract_argument25extract_optional_argument17h48e7654d63495fc5E, symObjAddr: 0x15A4, symBinAddr: 0x11248, symSize: 0xE4 }
  - { offset: 0x42C37, size: 0x8, addend: 0x0, symName: __ZN4pyo35impl_16extract_argument25extract_optional_argument17h4f9c3fc898ad0029E, symObjAddr: 0x1688, symBinAddr: 0x1132C, symSize: 0xE4 }
  - { offset: 0x42CAB, size: 0x8, addend: 0x0, symName: __ZN4pyo35impl_16extract_argument25extract_optional_argument17h9e3e910e306b2698E, symObjAddr: 0x176C, symBinAddr: 0x11410, symSize: 0xCC }
  - { offset: 0x42D20, size: 0x8, addend: 0x0, symName: __ZN4pyo35impl_16extract_argument29extract_argument_with_default17hc83ec98c12034485E, symObjAddr: 0x1838, symBinAddr: 0x114DC, symSize: 0x8C }
  - { offset: 0x42DA1, size: 0x8, addend: 0x0, symName: '__ZN80_$LT$T$u20$as$u20$pyo3..impl_..extract_argument..PyFunctionArgument$LT$_$GT$$GT$7extract17h029085bec4d25289E', symObjAddr: 0x18C4, symBinAddr: 0x11568, symSize: 0x28 }
  - { offset: 0x42DE0, size: 0x8, addend: 0x0, symName: '__ZN80_$LT$T$u20$as$u20$pyo3..impl_..extract_argument..PyFunctionArgument$LT$_$GT$$GT$7extract17h3bd219e6a126fd2dE', symObjAddr: 0x18EC, symBinAddr: 0x11590, symSize: 0x28 }
  - { offset: 0x43568, size: 0x8, addend: 0x0, symName: __ZN4pyo35impl_16extract_argument19FunctionDescription13handle_kwargs17h19ef5f1940c856bbE, symObjAddr: 0x7BC, symBinAddr: 0x10460, symSize: 0x70C }
  - { offset: 0x437A1, size: 0x8, addend: 0x0, symName: __ZN4pyo35impl_16extract_argument19FunctionDescription26extract_arguments_fastcall17hdf93225bf4e2d690E, symObjAddr: 0xEC8, symBinAddr: 0x10B6C, symSize: 0x638 }
  - { offset: 0x43EED, size: 0x8, addend: 0x0, symName: __ZN4pyo34sync8Interned3get17h79d4ad04b5b8c1bdE, symObjAddr: 0x0, symBinAddr: 0x115B8, symSize: 0x48 }
  - { offset: 0x447EF, size: 0x8, addend: 0x0, symName: __ZN4pyo34sync8Interned3get17h79d4ad04b5b8c1bdE, symObjAddr: 0x0, symBinAddr: 0x115B8, symSize: 0x48 }
  - { offset: 0x4484B, size: 0x8, addend: 0x0, symName: __ZN11typg_python11build_query17h1fbbf79e5d89676eE, symObjAddr: 0x0, symBinAddr: 0x11600, symSize: 0x12FC }
  - { offset: 0x44874, size: 0x8, addend: 0x0, symName: '__ZN77_$LT$typg_python..MetadataInput$u20$as$u20$pyo3..conversion..FromPyObject$GT$13extract_bound8INTERNED17h2ccc7d626acf43c8E', symObjAddr: 0x10990, symBinAddr: 0x480478, symSize: 0x0 }
  - { offset: 0x4488E, size: 0x8, addend: 0x0, symName: '__ZN77_$LT$typg_python..MetadataInput$u20$as$u20$pyo3..conversion..FromPyObject$GT$13extract_bound8INTERNED17h4fc5d94c020381a4E', symObjAddr: 0x109B0, symBinAddr: 0x480498, symSize: 0x0 }
  - { offset: 0x448A8, size: 0x8, addend: 0x0, symName: '__ZN77_$LT$typg_python..MetadataInput$u20$as$u20$pyo3..conversion..FromPyObject$GT$13extract_bound8INTERNED17h5119c374716eea7bE', symObjAddr: 0x109D0, symBinAddr: 0x4804B8, symSize: 0x0 }
  - { offset: 0x448C2, size: 0x8, addend: 0x0, symName: '__ZN77_$LT$typg_python..MetadataInput$u20$as$u20$pyo3..conversion..FromPyObject$GT$13extract_bound8INTERNED17h57021d634e0a11c5E', symObjAddr: 0x109F0, symBinAddr: 0x4804D8, symSize: 0x0 }
  - { offset: 0x448DC, size: 0x8, addend: 0x0, symName: '__ZN77_$LT$typg_python..MetadataInput$u20$as$u20$pyo3..conversion..FromPyObject$GT$13extract_bound8INTERNED17h5bbd9ae53355331cE', symObjAddr: 0x10A10, symBinAddr: 0x4804F8, symSize: 0x0 }
  - { offset: 0x448F6, size: 0x8, addend: 0x0, symName: '__ZN77_$LT$typg_python..MetadataInput$u20$as$u20$pyo3..conversion..FromPyObject$GT$13extract_bound8INTERNED17h6b04e00fb3ec4742E', symObjAddr: 0x10A30, symBinAddr: 0x480518, symSize: 0x0 }
  - { offset: 0x44910, size: 0x8, addend: 0x0, symName: '__ZN77_$LT$typg_python..MetadataInput$u20$as$u20$pyo3..conversion..FromPyObject$GT$13extract_bound8INTERNED17h74cf75686187c580E', symObjAddr: 0x10A50, symBinAddr: 0x480538, symSize: 0x0 }
  - { offset: 0x4492A, size: 0x8, addend: 0x0, symName: '__ZN77_$LT$typg_python..MetadataInput$u20$as$u20$pyo3..conversion..FromPyObject$GT$13extract_bound8INTERNED17h85ea8c71cb678f08E', symObjAddr: 0x10A70, symBinAddr: 0x480558, symSize: 0x0 }
  - { offset: 0x44944, size: 0x8, addend: 0x0, symName: '__ZN77_$LT$typg_python..MetadataInput$u20$as$u20$pyo3..conversion..FromPyObject$GT$13extract_bound8INTERNED17h8975f39e17212eebE', symObjAddr: 0x10A90, symBinAddr: 0x480578, symSize: 0x0 }
  - { offset: 0x4495E, size: 0x8, addend: 0x0, symName: '__ZN77_$LT$typg_python..MetadataInput$u20$as$u20$pyo3..conversion..FromPyObject$GT$13extract_bound8INTERNED17h8bd78f23114444d1E', symObjAddr: 0x10AB0, symBinAddr: 0x480598, symSize: 0x0 }
  - { offset: 0x44978, size: 0x8, addend: 0x0, symName: '__ZN77_$LT$typg_python..MetadataInput$u20$as$u20$pyo3..conversion..FromPyObject$GT$13extract_bound8INTERNED17h983ba5e867e88fa7E', symObjAddr: 0x10AD0, symBinAddr: 0x4805B8, symSize: 0x0 }
  - { offset: 0x44992, size: 0x8, addend: 0x0, symName: '__ZN77_$LT$typg_python..MetadataInput$u20$as$u20$pyo3..conversion..FromPyObject$GT$13extract_bound8INTERNED17hb85522b41cd1bcfbE', symObjAddr: 0x10AF0, symBinAddr: 0x4805D8, symSize: 0x0 }
  - { offset: 0x449AC, size: 0x8, addend: 0x0, symName: '__ZN77_$LT$typg_python..MetadataInput$u20$as$u20$pyo3..conversion..FromPyObject$GT$13extract_bound8INTERNED17hd5c984b7fac24980E', symObjAddr: 0x10B10, symBinAddr: 0x4805F8, symSize: 0x0 }
  - { offset: 0x449C6, size: 0x8, addend: 0x0, symName: '__ZN77_$LT$typg_python..MetadataInput$u20$as$u20$pyo3..conversion..FromPyObject$GT$13extract_bound8INTERNED17hf7d6344fe8df36cdE', symObjAddr: 0x10B30, symBinAddr: 0x480618, symSize: 0x0 }
  - { offset: 0x449D4, size: 0x8, addend: 0x0, symName: '__ZN77_$LT$typg_python..MetadataInput$u20$as$u20$pyo3..conversion..FromPyObject$GT$13extract_bound17h632641b92b213649E', symObjAddr: 0xB1A4, symBinAddr: 0x1C7A4, symSize: 0x2548 }
  - { offset: 0x44ECE, size: 0x8, addend: 0x0, symName: __ZN11typg_python11build_query17h1fbbf79e5d89676eE, symObjAddr: 0x0, symBinAddr: 0x11600, symSize: 0x12FC }
  - { offset: 0x45300, size: 0x8, addend: 0x0, symName: __ZN11typg_python11dedup_chars17hd16c87a02c6eb781E, symObjAddr: 0x12FC, symBinAddr: 0x128FC, symSize: 0x34 }
  - { offset: 0x4532A, size: 0x8, addend: 0x0, symName: __ZN11typg_python11typg_python17h5fe2945846e0e268E, symObjAddr: 0x1330, symBinAddr: 0x12930, symSize: 0x324 }
  - { offset: 0x45430, size: 0x8, addend: 0x0, symName: __ZN11typg_python12default_name17h2c4f31c70e0fbc23E, symObjAddr: 0x1654, symBinAddr: 0x12C54, symSize: 0x5C }
  - { offset: 0x4545E, size: 0x8, addend: 0x0, symName: __ZN11typg_python13find_paths_py17h3343e6c551c39ce8E, symObjAddr: 0x16B0, symBinAddr: 0x12CB0, symSize: 0x908 }
  - { offset: 0x4561E, size: 0x8, addend: 0x0, symName: __ZN11typg_python13to_py_matches17h6905fde2d5b954d2E, symObjAddr: 0x1FB8, symBinAddr: 0x135B8, symSize: 0x60 }
  - { offset: 0x45668, size: 0x8, addend: 0x0, symName: __ZN11typg_python16compile_patterns17h1eb8e6a26bda3380E, symObjAddr: 0x2018, symBinAddr: 0x13618, symSize: 0x38 }
  - { offset: 0x45696, size: 0x8, addend: 0x0, symName: __ZN11typg_python16convert_metadata17hd907ff05337fac55E, symObjAddr: 0x2050, symBinAddr: 0x13650, symSize: 0x5C }
  - { offset: 0x456C5, size: 0x8, addend: 0x0, symName: __ZN11typg_python16filter_cached_py17h80be593e997cb8a8E, symObjAddr: 0x20AC, symBinAddr: 0x136AC, symSize: 0x788 }
  - { offset: 0x458A2, size: 0x8, addend: 0x0, symName: __ZN11typg_python16parse_codepoints17h006aa5014e7a3feaE, symObjAddr: 0x2834, symBinAddr: 0x13E34, symSize: 0x1BC }
  - { offset: 0x45933, size: 0x8, addend: 0x0, symName: __ZN11typg_python20__pyfunction_find_py17hf6000324687e8383E, symObjAddr: 0x29F0, symBinAddr: 0x13FF0, symSize: 0x2B24 }
  - { offset: 0x45F3E, size: 0x8, addend: 0x0, symName: __ZN11typg_python20parse_optional_range17h1e059987861dadf8E, symObjAddr: 0x5514, symBinAddr: 0x16B14, symSize: 0x154 }
  - { offset: 0x45FA1, size: 0x8, addend: 0x0, symName: __ZN11typg_python26__pyfunction_find_paths_py17hc452e2d9ceeea536E, symObjAddr: 0x5668, symBinAddr: 0x16C68, symSize: 0x2B24 }
  - { offset: 0x465AC, size: 0x8, addend: 0x0, symName: __ZN11typg_python27parse_optional_family_class17hcf86a857afbfbf61E, symObjAddr: 0x818C, symBinAddr: 0x1978C, symSize: 0x158 }
  - { offset: 0x4660F, size: 0x8, addend: 0x0, symName: __ZN11typg_python29__pyfunction_filter_cached_py17hfb2361a0a0ca6181E, symObjAddr: 0x82E4, symBinAddr: 0x198E4, symSize: 0x244C }
  - { offset: 0x46BF5, size: 0x8, addend: 0x0, symName: '__ZN11typg_python47_$LT$impl$u20$typg_python..find_py..MakeDef$GT$9_PYO3_DEF10trampoline17hd40e6b062cc60b6cE', symObjAddr: 0xA730, symBinAddr: 0x1BD30, symSize: 0x50 }
  - { offset: 0x46C57, size: 0x8, addend: 0x0, symName: '__ZN11typg_python51_$LT$impl$u20$typg_python..typg_python..MakeDef$GT$8make_def15__pyo3_pymodule17hf3c358b6275f980fE', symObjAddr: 0xA780, symBinAddr: 0x1BD80, symSize: 0x44 }
  - { offset: 0x46C91, size: 0x8, addend: 0x0, symName: '__ZN11typg_python53_$LT$impl$u20$typg_python..find_paths_py..MakeDef$GT$9_PYO3_DEF10trampoline17hd044f8038ba08d01E', symObjAddr: 0xA7C4, symBinAddr: 0x1BDC4, symSize: 0x50 }
  - { offset: 0x46CF3, size: 0x8, addend: 0x0, symName: '__ZN11typg_python56_$LT$impl$u20$typg_python..filter_cached_py..MakeDef$GT$9_PYO3_DEF10trampoline17hdefc885e690988baE', symObjAddr: 0xA814, symBinAddr: 0x1BE14, symSize: 0x50 }
  - { offset: 0x46D50, size: 0x8, addend: 0x0, symName: __ZN11typg_python7find_py17hed75249c7e4924e4E, symObjAddr: 0xA864, symBinAddr: 0x1BE64, symSize: 0x8CC }
  - { offset: 0x46F33, size: 0x8, addend: 0x0, symName: __ZN11typg_python9to_py_err17h567526873b7361c9E, symObjAddr: 0xB130, symBinAddr: 0x1C730, symSize: 0x74 }
  - { offset: 0x4BDFF, size: 0x8, addend: 0x0, symName: __ZN4core5slice4sort6stable5drift10create_run17h07f557dc0893fed1E, symObjAddr: 0x0, symBinAddr: 0x1ECEC, symSize: 0x3D8 }
  - { offset: 0x4C340, size: 0x8, addend: 0x0, symName: __ZN4core5slice4sort6stable5drift10create_run17h07f557dc0893fed1E, symObjAddr: 0x0, symBinAddr: 0x1ECEC, symSize: 0x3D8 }
  - { offset: 0x4C84F, size: 0x8, addend: 0x0, symName: __ZN4core5slice4sort6stable5drift16stable_quicksort17hef2da437b1cd8d5bE, symObjAddr: 0x3D8, symBinAddr: 0x1F0C4, symSize: 0xB4 }
  - { offset: 0x4CA74, size: 0x8, addend: 0x0, symName: __ZN4core5slice4sort6stable5drift4sort17heea8f26d4475fe0dE, symObjAddr: 0x48C, symBinAddr: 0x1F178, symSize: 0x61C }
  - { offset: 0x4DB83, size: 0x8, addend: 0x0, symName: '__ZN4core5slice29_$LT$impl$u20$$u5b$T$u5d$$GT$18split_at_unchecked18precondition_check17h7783e6a61e6fd5f4E', symObjAddr: 0x0, symBinAddr: 0x1F794, symSize: 0x60 }
  - { offset: 0x4DBA4, size: 0x8, addend: 0x0, symName: '__ZN4core5slice29_$LT$impl$u20$$u5b$T$u5d$$GT$18split_at_unchecked18precondition_check17h7783e6a61e6fd5f4E', symObjAddr: 0x0, symBinAddr: 0x1F794, symSize: 0x60 }
  - { offset: 0x4DC4E, size: 0x8, addend: 0x0, symName: __ZN4core4char7methods25encode_utf8_raw_unchecked17hd9bcc35de9fd633bE, symObjAddr: 0x0, symBinAddr: 0x1F7F4, symSize: 0x188 }
  - { offset: 0x4DCCE, size: 0x8, addend: 0x0, symName: __ZN4core4char7methods25encode_utf8_raw_unchecked17hd9bcc35de9fd633bE, symObjAddr: 0x0, symBinAddr: 0x1F7F4, symSize: 0x188 }
  - { offset: 0x4DEBB, size: 0x8, addend: 0x0, symName: '__ZN106_$LT$core..ops..range..Range$LT$usize$GT$$u20$as$u20$core..slice..index..SliceIndex$LT$$u5b$T$u5d$$GT$$GT$9index_mut17h851243a8212c06bbE', symObjAddr: 0x0, symBinAddr: 0x1F97C, symSize: 0xBC }
  - { offset: 0x4E07D, size: 0x8, addend: 0x0, symName: '__ZN106_$LT$core..ops..range..Range$LT$usize$GT$$u20$as$u20$core..slice..index..SliceIndex$LT$$u5b$T$u5d$$GT$$GT$9index_mut17h851243a8212c06bbE', symObjAddr: 0x0, symBinAddr: 0x1F97C, symSize: 0xBC }
  - { offset: 0x4E12E, size: 0x8, addend: 0x0, symName: '__ZN108_$LT$core..ops..range..RangeTo$LT$usize$GT$$u20$as$u20$core..slice..index..SliceIndex$LT$$u5b$T$u5d$$GT$$GT$9index_mut17h90550605acbb5b53E', symObjAddr: 0xBC, symBinAddr: 0x1FA38, symSize: 0x54 }
  - { offset: 0x4E1B5, size: 0x8, addend: 0x0, symName: '__ZN110_$LT$core..ops..range..RangeFrom$LT$usize$GT$$u20$as$u20$core..slice..index..SliceIndex$LT$$u5b$T$u5d$$GT$$GT$5index17h66e1a53d534be3e3E', symObjAddr: 0x110, symBinAddr: 0x1FA8C, symSize: 0x70 }
  - { offset: 0x4E59E, size: 0x8, addend: 0x0, symName: '__ZN106_$LT$core..ops..range..Range$LT$usize$GT$$u20$as$u20$core..slice..index..SliceIndex$LT$$u5b$T$u5d$$GT$$GT$17get_unchecked_mut18precondition_check17hb964917f426336d2E', symObjAddr: 0x0, symBinAddr: 0x1FAFC, symSize: 0x80 }
  - { offset: 0x4E5C4, size: 0x8, addend: 0x0, symName: '__ZN106_$LT$core..ops..range..Range$LT$usize$GT$$u20$as$u20$core..slice..index..SliceIndex$LT$$u5b$T$u5d$$GT$$GT$17get_unchecked_mut18precondition_check17hb964917f426336d2E', symObjAddr: 0x0, symBinAddr: 0x1FAFC, symSize: 0x80 }
  - { offset: 0x4E631, size: 0x8, addend: 0x0, symName: '__ZN75_$LT$usize$u20$as$u20$core..slice..index..SliceIndex$LT$$u5b$T$u5d$$GT$$GT$13get_unchecked18precondition_check17hcba2d2a906c10427E', symObjAddr: 0x80, symBinAddr: 0x1FB7C, symSize: 0x60 }
  - { offset: 0x4E6DC, size: 0x8, addend: 0x0, symName: '__ZN4pyo310conversion12IntoPyObject28owned_sequence_into_pyobject28_$u7b$$u7b$closure$u7d$$u7d$17ha19bd0a2cb33fd54E', symObjAddr: 0x0, symBinAddr: 0x1FBDC, symSize: 0x34 }
  - { offset: 0x4E764, size: 0x8, addend: 0x0, symName: '__ZN4pyo310conversion12IntoPyObject28owned_sequence_into_pyobject28_$u7b$$u7b$closure$u7d$$u7d$17ha19bd0a2cb33fd54E', symObjAddr: 0x0, symBinAddr: 0x1FBDC, symSize: 0x34 }
  - { offset: 0x4E7BC, size: 0x8, addend: 0x0, symName: '__ZN4pyo310conversion12IntoPyObject28owned_sequence_into_pyobject28_$u7b$$u7b$closure$u7d$$u7d$17hd452b0e82d891e49E', symObjAddr: 0x34, symBinAddr: 0x1FC10, symSize: 0x30 }
  - { offset: 0x4E840, size: 0x8, addend: 0x0, symName: '__ZN57_$LT$T$u20$as$u20$pyo3..conversion..FromPyObjectBound$GT$20from_py_object_bound17h417b1f902047dd99E', symObjAddr: 0x64, symBinAddr: 0x1FC40, symSize: 0x34 }
  - { offset: 0x4F530, size: 0x8, addend: 0x0, symName: '__ZN185_$LT$core..ops..control_flow..ControlFlow$LT$B$C$C$GT$$u20$as$u20$core..ops..try_trait..FromResidual$LT$core..ops..control_flow..ControlFlow$LT$B$C$core..convert..Infallible$GT$$GT$$GT$13from_residual17h155cebac1f5de174E', symObjAddr: 0x0, symBinAddr: 0x1FC74, symSize: 0x2C }
  - { offset: 0x4FD68, size: 0x8, addend: 0x0, symName: '__ZN185_$LT$core..ops..control_flow..ControlFlow$LT$B$C$C$GT$$u20$as$u20$core..ops..try_trait..FromResidual$LT$core..ops..control_flow..ControlFlow$LT$B$C$core..convert..Infallible$GT$$GT$$GT$13from_residual17h155cebac1f5de174E', symObjAddr: 0x0, symBinAddr: 0x1FC74, symSize: 0x2C }
  - { offset: 0x4FDA6, size: 0x8, addend: 0x0, symName: '__ZN185_$LT$core..ops..control_flow..ControlFlow$LT$B$C$C$GT$$u20$as$u20$core..ops..try_trait..FromResidual$LT$core..ops..control_flow..ControlFlow$LT$B$C$core..convert..Infallible$GT$$GT$$GT$13from_residual17h3086b02288cbc2fdE', symObjAddr: 0x2C, symBinAddr: 0x1FCA0, symSize: 0x48 }
  - { offset: 0x4FDE5, size: 0x8, addend: 0x0, symName: '__ZN185_$LT$core..ops..control_flow..ControlFlow$LT$B$C$C$GT$$u20$as$u20$core..ops..try_trait..FromResidual$LT$core..ops..control_flow..ControlFlow$LT$B$C$core..convert..Infallible$GT$$GT$$GT$13from_residual17h474498dc8fda5387E', symObjAddr: 0x74, symBinAddr: 0x1FCE8, symSize: 0x30 }
  - { offset: 0x4FE23, size: 0x8, addend: 0x0, symName: '__ZN185_$LT$core..ops..control_flow..ControlFlow$LT$B$C$C$GT$$u20$as$u20$core..ops..try_trait..FromResidual$LT$core..ops..control_flow..ControlFlow$LT$B$C$core..convert..Infallible$GT$$GT$$GT$13from_residual17hb9ca480ef186c1f9E', symObjAddr: 0xA4, symBinAddr: 0x1FD18, symSize: 0x30 }
  - { offset: 0x4FE61, size: 0x8, addend: 0x0, symName: '__ZN185_$LT$core..ops..control_flow..ControlFlow$LT$B$C$C$GT$$u20$as$u20$core..ops..try_trait..FromResidual$LT$core..ops..control_flow..ControlFlow$LT$B$C$core..convert..Infallible$GT$$GT$$GT$13from_residual17hfa979af6898a0359E', symObjAddr: 0xD4, symBinAddr: 0x1FD48, symSize: 0x38 }
  - { offset: 0x4FEAA, size: 0x8, addend: 0x0, symName: __ZN4core3ops12control_flow11ControlFlow5Break17h2682b3b38878ac8cE, symObjAddr: 0x10C, symBinAddr: 0x1FD80, symSize: 0x14 }
  - { offset: 0x4FEEB, size: 0x8, addend: 0x0, symName: '__ZN95_$LT$core..ops..control_flow..ControlFlow$LT$B$C$C$GT$$u20$as$u20$core..ops..try_trait..Try$GT$11from_output17h2bb9e549ce39c4b9E', symObjAddr: 0x120, symBinAddr: 0x1FD94, symSize: 0x10 }
  - { offset: 0x4FF29, size: 0x8, addend: 0x0, symName: '__ZN95_$LT$core..ops..control_flow..ControlFlow$LT$B$C$C$GT$$u20$as$u20$core..ops..try_trait..Try$GT$11from_output17h55b788796b4ab750E', symObjAddr: 0x130, symBinAddr: 0x1FDA4, symSize: 0x28 }
  - { offset: 0x4FF67, size: 0x8, addend: 0x0, symName: '__ZN95_$LT$core..ops..control_flow..ControlFlow$LT$B$C$C$GT$$u20$as$u20$core..ops..try_trait..Try$GT$11from_output17h758cf87d717a8087E', symObjAddr: 0x158, symBinAddr: 0x1FDCC, symSize: 0x10 }
  - { offset: 0x4FFA5, size: 0x8, addend: 0x0, symName: '__ZN95_$LT$core..ops..control_flow..ControlFlow$LT$B$C$C$GT$$u20$as$u20$core..ops..try_trait..Try$GT$11from_output17h8fad2ab696ec1eaeE', symObjAddr: 0x168, symBinAddr: 0x1FDDC, symSize: 0x20 }
  - { offset: 0x4FFE3, size: 0x8, addend: 0x0, symName: '__ZN95_$LT$core..ops..control_flow..ControlFlow$LT$B$C$C$GT$$u20$as$u20$core..ops..try_trait..Try$GT$11from_output17hebea2e6d539ba333E', symObjAddr: 0x188, symBinAddr: 0x1FDFC, symSize: 0x28 }
  - { offset: 0x50021, size: 0x8, addend: 0x0, symName: '__ZN95_$LT$core..ops..control_flow..ControlFlow$LT$B$C$C$GT$$u20$as$u20$core..ops..try_trait..Try$GT$6branch17h5354133841d3ad19E', symObjAddr: 0x1B0, symBinAddr: 0x1FE24, symSize: 0x70 }
  - { offset: 0x5009B, size: 0x8, addend: 0x0, symName: '__ZN95_$LT$core..ops..control_flow..ControlFlow$LT$B$C$C$GT$$u20$as$u20$core..ops..try_trait..Try$GT$6branch17ha082e20e658f1d13E', symObjAddr: 0x220, symBinAddr: 0x1FE94, symSize: 0x70 }
  - { offset: 0x50115, size: 0x8, addend: 0x0, symName: '__ZN95_$LT$core..ops..control_flow..ControlFlow$LT$B$C$C$GT$$u20$as$u20$core..ops..try_trait..Try$GT$6branch17hb14d1a6699e5d8cdE', symObjAddr: 0x290, symBinAddr: 0x1FF04, symSize: 0x74 }
  - { offset: 0x5018E, size: 0x8, addend: 0x0, symName: '__ZN95_$LT$core..ops..control_flow..ControlFlow$LT$B$C$C$GT$$u20$as$u20$core..ops..try_trait..Try$GT$6branch17hb5d96e58625f5cfaE', symObjAddr: 0x304, symBinAddr: 0x1FF78, symSize: 0x98 }
  - { offset: 0x50207, size: 0x8, addend: 0x0, symName: '__ZN95_$LT$core..ops..control_flow..ControlFlow$LT$B$C$C$GT$$u20$as$u20$core..ops..try_trait..Try$GT$6branch17hcda68ee1fcabaeadE', symObjAddr: 0x39C, symBinAddr: 0x20010, symSize: 0x74 }
  - { offset: 0x530E8, size: 0x8, addend: 0x0, symName: '__ZN104_$LT$core..iter..adapters..copied..Copied$LT$I$GT$$u20$as$u20$core..iter..traits..iterator..Iterator$GT$4next17h2e171e03dcaf329dE', symObjAddr: 0x0, symBinAddr: 0x20084, symSize: 0x5C }
  - { offset: 0x5333A, size: 0x8, addend: 0x0, symName: '__ZN104_$LT$core..iter..adapters..copied..Copied$LT$I$GT$$u20$as$u20$core..iter..traits..iterator..Iterator$GT$4next17h2e171e03dcaf329dE', symObjAddr: 0x0, symBinAddr: 0x20084, symSize: 0x5C }
  - { offset: 0x533DF, size: 0x8, addend: 0x0, symName: '__ZN63_$LT$I$u20$as$u20$core..iter..traits..collect..IntoIterator$GT$9into_iter17h250420f987e37a36E', symObjAddr: 0x5C, symBinAddr: 0x200E0, symSize: 0x1C }
  - { offset: 0x5365A, size: 0x8, addend: 0x0, symName: '__ZN111_$LT$alloc..vec..Vec$LT$T$GT$$u20$as$u20$alloc..vec..spec_from_iter_nested..SpecFromIterNested$LT$T$C$I$GT$$GT$9from_iter17h000ced726e5c09fdE', symObjAddr: 0x0, symBinAddr: 0x200FC, symSize: 0x130 }
  - { offset: 0x578A0, size: 0x8, addend: 0x0, symName: '__ZN111_$LT$alloc..vec..Vec$LT$T$GT$$u20$as$u20$alloc..vec..spec_from_iter_nested..SpecFromIterNested$LT$T$C$I$GT$$GT$9from_iter17h000ced726e5c09fdE', symObjAddr: 0x0, symBinAddr: 0x200FC, symSize: 0x130 }
  - { offset: 0x57961, size: 0x8, addend: 0x0, symName: '__ZN111_$LT$alloc..vec..Vec$LT$T$GT$$u20$as$u20$alloc..vec..spec_from_iter_nested..SpecFromIterNested$LT$T$C$I$GT$$GT$9from_iter17h033a30bb5d335ce9E', symObjAddr: 0x130, symBinAddr: 0x2022C, symSize: 0x130 }
  - { offset: 0x57A22, size: 0x8, addend: 0x0, symName: '__ZN111_$LT$alloc..vec..Vec$LT$T$GT$$u20$as$u20$alloc..vec..spec_from_iter_nested..SpecFromIterNested$LT$T$C$I$GT$$GT$9from_iter17h124e9f1f9d274d3cE', symObjAddr: 0x260, symBinAddr: 0x2035C, symSize: 0x130 }
  - { offset: 0x57AE3, size: 0x8, addend: 0x0, symName: '__ZN111_$LT$alloc..vec..Vec$LT$T$GT$$u20$as$u20$alloc..vec..spec_from_iter_nested..SpecFromIterNested$LT$T$C$I$GT$$GT$9from_iter17h42fada9614696d4fE', symObjAddr: 0x5C4, symBinAddr: 0x206C0, symSize: 0x130 }
  - { offset: 0x57BA4, size: 0x8, addend: 0x0, symName: '__ZN111_$LT$alloc..vec..Vec$LT$T$GT$$u20$as$u20$alloc..vec..spec_from_iter_nested..SpecFromIterNested$LT$T$C$I$GT$$GT$9from_iter17hd3d7551806806eceE', symObjAddr: 0x6F4, symBinAddr: 0x207F0, symSize: 0x130 }
  - { offset: 0x57C6B, size: 0x8, addend: 0x0, symName: '__ZN111_$LT$alloc..vec..Vec$LT$T$GT$$u20$as$u20$alloc..vec..spec_from_iter_nested..SpecFromIterNested$LT$T$C$I$GT$$GT$9from_iter17h306436807db1390fE', symObjAddr: 0x390, symBinAddr: 0x2048C, symSize: 0x234 }
  - { offset: 0x5854B, size: 0x8, addend: 0x0, symName: '__ZN142_$LT$alloc..vec..Vec$LT$T$C$A1$GT$$u20$as$u20$alloc..vec..spec_extend..SpecExtend$LT$T$C$alloc..vec..into_iter..IntoIter$LT$T$C$A2$GT$$GT$$GT$11spec_extend17h32476bc6975a4e80E', symObjAddr: 0x824, symBinAddr: 0x20920, symSize: 0x88 }
  - { offset: 0x585C0, size: 0x8, addend: 0x0, symName: '__ZN97_$LT$alloc..vec..Vec$LT$T$C$A$GT$$u20$as$u20$alloc..vec..spec_extend..SpecExtend$LT$T$C$I$GT$$GT$11spec_extend17h200bea0b17c47c2bE', symObjAddr: 0x2664, symBinAddr: 0x22760, symSize: 0x34 }
  - { offset: 0x58611, size: 0x8, addend: 0x0, symName: '__ZN97_$LT$alloc..vec..Vec$LT$T$C$A$GT$$u20$as$u20$alloc..vec..spec_extend..SpecExtend$LT$T$C$I$GT$$GT$11spec_extend17h8606fb9093149175E', symObjAddr: 0x26BC, symBinAddr: 0x227B8, symSize: 0x34 }
  - { offset: 0x58662, size: 0x8, addend: 0x0, symName: '__ZN97_$LT$alloc..vec..Vec$LT$T$C$A$GT$$u20$as$u20$alloc..vec..spec_extend..SpecExtend$LT$T$C$I$GT$$GT$11spec_extend17h87e000b73934703cE', symObjAddr: 0x26F0, symBinAddr: 0x227EC, symSize: 0x34 }
  - { offset: 0x586B3, size: 0x8, addend: 0x0, symName: '__ZN97_$LT$alloc..vec..Vec$LT$T$C$A$GT$$u20$as$u20$alloc..vec..spec_extend..SpecExtend$LT$T$C$I$GT$$GT$11spec_extend17hbf20f74f9206922fE', symObjAddr: 0x2724, symBinAddr: 0x22820, symSize: 0x34 }
  - { offset: 0x58704, size: 0x8, addend: 0x0, symName: '__ZN97_$LT$alloc..vec..Vec$LT$T$C$A$GT$$u20$as$u20$alloc..vec..spec_extend..SpecExtend$LT$T$C$I$GT$$GT$11spec_extend17hef2f6cf6cab8c016E', symObjAddr: 0x278C, symBinAddr: 0x22888, symSize: 0x34 }
  - { offset: 0x5875B, size: 0x8, addend: 0x0, symName: '__ZN97_$LT$alloc..vec..Vec$LT$T$C$A$GT$$u20$as$u20$alloc..vec..spec_extend..SpecExtend$LT$T$C$I$GT$$GT$11spec_extend17h34e20c7d0f6c8cf9E', symObjAddr: 0x2698, symBinAddr: 0x22794, symSize: 0x24 }
  - { offset: 0x587AD, size: 0x8, addend: 0x0, symName: '__ZN97_$LT$alloc..vec..Vec$LT$T$C$A$GT$$u20$as$u20$alloc..vec..spec_extend..SpecExtend$LT$T$C$I$GT$$GT$11spec_extend17hdfdb03acc9a8853aE', symObjAddr: 0x2758, symBinAddr: 0x22854, symSize: 0x34 }
  - { offset: 0x58BFE, size: 0x8, addend: 0x0, symName: '__ZN5alloc3vec16Vec$LT$T$C$A$GT$14extend_trusted28_$u7b$$u7b$closure$u7d$$u7d$17h1d56470c93145aa7E', symObjAddr: 0x1474, symBinAddr: 0x21570, symSize: 0x44 }
  - { offset: 0x58CAB, size: 0x8, addend: 0x0, symName: '__ZN5alloc3vec16Vec$LT$T$C$A$GT$14extend_trusted28_$u7b$$u7b$closure$u7d$$u7d$17h517ac12ba0a8ba10E', symObjAddr: 0x14B8, symBinAddr: 0x215B4, symSize: 0x44 }
  - { offset: 0x58D58, size: 0x8, addend: 0x0, symName: '__ZN5alloc3vec16Vec$LT$T$C$A$GT$14extend_trusted28_$u7b$$u7b$closure$u7d$$u7d$17h71f0a9ebcf239169E', symObjAddr: 0x14FC, symBinAddr: 0x215F8, symSize: 0x44 }
  - { offset: 0x58E05, size: 0x8, addend: 0x0, symName: '__ZN5alloc3vec16Vec$LT$T$C$A$GT$14extend_trusted28_$u7b$$u7b$closure$u7d$$u7d$17h7393f1191a66216aE', symObjAddr: 0x1540, symBinAddr: 0x2163C, symSize: 0x44 }
  - { offset: 0x58EB2, size: 0x8, addend: 0x0, symName: '__ZN5alloc3vec16Vec$LT$T$C$A$GT$14extend_trusted28_$u7b$$u7b$closure$u7d$$u7d$17hd2ba9b3da04fd8edE', symObjAddr: 0x1584, symBinAddr: 0x21680, symSize: 0x44 }
  - { offset: 0x591D0, size: 0x8, addend: 0x0, symName: '__ZN5alloc3vec16in_place_collect108_$LT$impl$u20$alloc..vec..spec_from_iter..SpecFromIter$LT$T$C$I$GT$$u20$for$u20$alloc..vec..Vec$LT$T$GT$$GT$9from_iter17h00a1122a49fc3e67E', symObjAddr: 0x1EE8, symBinAddr: 0x21FE4, symSize: 0x28 }
  - { offset: 0x5922C, size: 0x8, addend: 0x0, symName: '__ZN5alloc3vec16in_place_collect108_$LT$impl$u20$alloc..vec..spec_from_iter..SpecFromIter$LT$T$C$I$GT$$u20$for$u20$alloc..vec..Vec$LT$T$GT$$GT$9from_iter17h80c7cef42d3debbfE', symObjAddr: 0x1F10, symBinAddr: 0x2200C, symSize: 0x28 }
  - { offset: 0x59288, size: 0x8, addend: 0x0, symName: '__ZN5alloc3vec16in_place_collect108_$LT$impl$u20$alloc..vec..spec_from_iter..SpecFromIter$LT$T$C$I$GT$$u20$for$u20$alloc..vec..Vec$LT$T$GT$$GT$9from_iter17hf205e862a482ef7aE', symObjAddr: 0x1F38, symBinAddr: 0x22034, symSize: 0x28 }
  - { offset: 0x592EB, size: 0x8, addend: 0x0, symName: '__ZN67_$LT$alloc..vec..Vec$LT$T$GT$$u20$as$u20$core..default..Default$GT$7default17hfd8d9d9cd18d1f72E', symObjAddr: 0x2060, symBinAddr: 0x2215C, symSize: 0x14 }
  - { offset: 0x5930D, size: 0x8, addend: 0x0, symName: '__ZN67_$LT$alloc..vec..Vec$LT$T$GT$$u20$as$u20$core..default..Default$GT$7default17hfd8d9d9cd18d1f72E', symObjAddr: 0x2060, symBinAddr: 0x2215C, symSize: 0x14 }
  - { offset: 0x5932E, size: 0x8, addend: 0x0, symName: '__ZN72_$LT$alloc..vec..Vec$LT$T$C$A$GT$$u20$as$u20$core..ops..deref..Deref$GT$5deref17h5857c636c6d65d05E', symObjAddr: 0x2074, symBinAddr: 0x22170, symSize: 0x20 }
  - { offset: 0x593EB, size: 0x8, addend: 0x0, symName: '__ZN72_$LT$alloc..vec..Vec$LT$T$C$A$GT$$u20$as$u20$core..ops..deref..Deref$GT$5deref17h8d5fe4e6080f44deE', symObjAddr: 0x2094, symBinAddr: 0x22190, symSize: 0x20 }
  - { offset: 0x595E7, size: 0x8, addend: 0x0, symName: '__ZN90_$LT$alloc..vec..Vec$LT$T$C$A$GT$$u20$as$u20$core..iter..traits..collect..IntoIterator$GT$9into_iter17h626dd35fbbb7b22eE', symObjAddr: 0x212C, symBinAddr: 0x22228, symSize: 0xA8 }
  - { offset: 0x597DE, size: 0x8, addend: 0x0, symName: '__ZN90_$LT$alloc..vec..Vec$LT$T$C$A$GT$$u20$as$u20$core..iter..traits..collect..IntoIterator$GT$9into_iter17h6c1d328b0cc33582E', symObjAddr: 0x21D4, symBinAddr: 0x222D0, symSize: 0xB0 }
  - { offset: 0x599D5, size: 0x8, addend: 0x0, symName: '__ZN90_$LT$alloc..vec..Vec$LT$T$C$A$GT$$u20$as$u20$core..iter..traits..collect..IntoIterator$GT$9into_iter17h70cd7663f3fe9f0bE', symObjAddr: 0x2284, symBinAddr: 0x22380, symSize: 0xB0 }
  - { offset: 0x59BCC, size: 0x8, addend: 0x0, symName: '__ZN90_$LT$alloc..vec..Vec$LT$T$C$A$GT$$u20$as$u20$core..iter..traits..collect..IntoIterator$GT$9into_iter17hd4996028952436d0E', symObjAddr: 0x2334, symBinAddr: 0x22430, symSize: 0xB0 }
  - { offset: 0x59DC9, size: 0x8, addend: 0x0, symName: '__ZN93_$LT$alloc..vec..Vec$LT$T$C$A$GT$$u20$as$u20$core..iter..traits..collect..Extend$LT$T$GT$$GT$6extend17h8e0d72ab995a6661E', symObjAddr: 0x23E4, symBinAddr: 0x224E0, symSize: 0x40 }
  - { offset: 0x59E1E, size: 0x8, addend: 0x0, symName: '__ZN93_$LT$alloc..vec..Vec$LT$T$C$A$GT$$u20$as$u20$core..iter..traits..collect..Extend$LT$T$GT$$GT$6extend17hb46394cc5601cce8E', symObjAddr: 0x2424, symBinAddr: 0x22520, symSize: 0x58 }
  - { offset: 0x59E78, size: 0x8, addend: 0x0, symName: '__ZN95_$LT$alloc..vec..Vec$LT$T$GT$$u20$as$u20$core..iter..traits..collect..FromIterator$LT$T$GT$$GT$9from_iter17h04314f1f2d575dc9E', symObjAddr: 0x247C, symBinAddr: 0x22578, symSize: 0x34 }
  - { offset: 0x59EB9, size: 0x8, addend: 0x0, symName: '__ZN95_$LT$alloc..vec..Vec$LT$T$GT$$u20$as$u20$core..iter..traits..collect..FromIterator$LT$T$GT$$GT$9from_iter17h0bede0bbb8040319E', symObjAddr: 0x24B0, symBinAddr: 0x225AC, symSize: 0x38 }
  - { offset: 0x59EF9, size: 0x8, addend: 0x0, symName: '__ZN95_$LT$alloc..vec..Vec$LT$T$GT$$u20$as$u20$core..iter..traits..collect..FromIterator$LT$T$GT$$GT$9from_iter17h438307d2e084303fE', symObjAddr: 0x24E8, symBinAddr: 0x225E4, symSize: 0x38 }
  - { offset: 0x59F39, size: 0x8, addend: 0x0, symName: '__ZN95_$LT$alloc..vec..Vec$LT$T$GT$$u20$as$u20$core..iter..traits..collect..FromIterator$LT$T$GT$$GT$9from_iter17h5db91bd399a81dc6E', symObjAddr: 0x2520, symBinAddr: 0x2261C, symSize: 0x38 }
  - { offset: 0x59F79, size: 0x8, addend: 0x0, symName: '__ZN95_$LT$alloc..vec..Vec$LT$T$GT$$u20$as$u20$core..iter..traits..collect..FromIterator$LT$T$GT$$GT$9from_iter17h948e05cbea8e1d95E', symObjAddr: 0x2558, symBinAddr: 0x22654, symSize: 0x34 }
  - { offset: 0x59FBA, size: 0x8, addend: 0x0, symName: '__ZN95_$LT$alloc..vec..Vec$LT$T$GT$$u20$as$u20$core..iter..traits..collect..FromIterator$LT$T$GT$$GT$9from_iter17ha9699bcb14609a79E', symObjAddr: 0x258C, symBinAddr: 0x22688, symSize: 0x34 }
  - { offset: 0x59FFB, size: 0x8, addend: 0x0, symName: '__ZN95_$LT$alloc..vec..Vec$LT$T$GT$$u20$as$u20$core..iter..traits..collect..FromIterator$LT$T$GT$$GT$9from_iter17hc0a9e8813943eb6cE', symObjAddr: 0x25C0, symBinAddr: 0x226BC, symSize: 0x38 }
  - { offset: 0x5A03B, size: 0x8, addend: 0x0, symName: '__ZN95_$LT$alloc..vec..Vec$LT$T$GT$$u20$as$u20$core..iter..traits..collect..FromIterator$LT$T$GT$$GT$9from_iter17hc748013f0dd98139E', symObjAddr: 0x25F8, symBinAddr: 0x226F4, symSize: 0x34 }
  - { offset: 0x5A07C, size: 0x8, addend: 0x0, symName: '__ZN95_$LT$alloc..vec..Vec$LT$T$GT$$u20$as$u20$core..iter..traits..collect..FromIterator$LT$T$GT$$GT$9from_iter17hf549190283be99aeE', symObjAddr: 0x262C, symBinAddr: 0x22728, symSize: 0x38 }
  - { offset: 0x5A0C7, size: 0x8, addend: 0x0, symName: '__ZN98_$LT$alloc..vec..Vec$LT$T$GT$$u20$as$u20$alloc..vec..spec_from_iter..SpecFromIter$LT$T$C$I$GT$$GT$9from_iter17h01aaee0c78d6cce1E', symObjAddr: 0x27C0, symBinAddr: 0x228BC, symSize: 0x14 }
  - { offset: 0x5A106, size: 0x8, addend: 0x0, symName: '__ZN98_$LT$alloc..vec..Vec$LT$T$GT$$u20$as$u20$alloc..vec..spec_from_iter..SpecFromIter$LT$T$C$I$GT$$GT$9from_iter17h22dcb2648cd57aa6E', symObjAddr: 0x27D4, symBinAddr: 0x228D0, symSize: 0x2C }
  - { offset: 0x5A144, size: 0x8, addend: 0x0, symName: '__ZN98_$LT$alloc..vec..Vec$LT$T$GT$$u20$as$u20$alloc..vec..spec_from_iter..SpecFromIter$LT$T$C$I$GT$$GT$9from_iter17h400d9f33fcb9916cE', symObjAddr: 0x2800, symBinAddr: 0x228FC, symSize: 0x2C }
  - { offset: 0x5A182, size: 0x8, addend: 0x0, symName: '__ZN98_$LT$alloc..vec..Vec$LT$T$GT$$u20$as$u20$alloc..vec..spec_from_iter..SpecFromIter$LT$T$C$I$GT$$GT$9from_iter17h4500eb89f3a71c0dE', symObjAddr: 0x282C, symBinAddr: 0x22928, symSize: 0x2C }
  - { offset: 0x5A1C0, size: 0x8, addend: 0x0, symName: '__ZN98_$LT$alloc..vec..Vec$LT$T$GT$$u20$as$u20$alloc..vec..spec_from_iter..SpecFromIter$LT$T$C$I$GT$$GT$9from_iter17h6b3d77fa8dc085c6E', symObjAddr: 0x2858, symBinAddr: 0x22954, symSize: 0x2C }
  - { offset: 0x5A1FE, size: 0x8, addend: 0x0, symName: '__ZN98_$LT$alloc..vec..Vec$LT$T$GT$$u20$as$u20$alloc..vec..spec_from_iter..SpecFromIter$LT$T$C$I$GT$$GT$9from_iter17h9e316f139518ca3dE', symObjAddr: 0x2884, symBinAddr: 0x22980, symSize: 0x2C }
  - { offset: 0x5A590, size: 0x8, addend: 0x0, symName: '__ZN5alloc5slice99_$LT$impl$u20$core..slice..sort..stable..BufGuard$LT$T$GT$$u20$for$u20$alloc..vec..Vec$LT$T$GT$$GT$13with_capacity17hf6fdd834eb0e9d1bE', symObjAddr: 0x1F60, symBinAddr: 0x2205C, symSize: 0x40 }
  - { offset: 0x5A631, size: 0x8, addend: 0x0, symName: '__ZN5alloc5slice99_$LT$impl$u20$core..slice..sort..stable..BufGuard$LT$T$GT$$u20$for$u20$alloc..vec..Vec$LT$T$GT$$GT$19as_uninit_slice_mut17hf76638de923c25a7E', symObjAddr: 0x1FA0, symBinAddr: 0x2209C, symSize: 0xC0 }
  - { offset: 0x5B652, size: 0x8, addend: 0x0, symName: __ZN4pyo310conversion15IntoPyObjectExt17into_bound_py_any17h34c89eba72ac7e84E, symObjAddr: 0x8AC, symBinAddr: 0x209A8, symSize: 0xE0 }
  - { offset: 0x5B6DF, size: 0x8, addend: 0x0, symName: __ZN4pyo310conversion15IntoPyObjectExt17into_bound_py_any17he8fbf717e51c506aE, symObjAddr: 0x98C, symBinAddr: 0x20A88, symSize: 0xE0 }
  - { offset: 0x5B76C, size: 0x8, addend: 0x0, symName: __ZN4pyo310conversion15IntoPyObjectExt22into_pyobject_or_pyerr17h24f21caabaa8fa8fE, symObjAddr: 0xA6C, symBinAddr: 0x20B68, symSize: 0xD8 }
  - { offset: 0x5B7FF, size: 0x8, addend: 0x0, symName: '__ZN57_$LT$T$u20$as$u20$pyo3..conversion..FromPyObjectBound$GT$20from_py_object_bound17h016d8688baa72631E', symObjAddr: 0xD44, symBinAddr: 0x20E40, symSize: 0x34 }
  - { offset: 0x5B836, size: 0x8, addend: 0x0, symName: '__ZN57_$LT$T$u20$as$u20$pyo3..conversion..FromPyObjectBound$GT$20from_py_object_bound17h04e84fc2f6dc7b5fE', symObjAddr: 0xD78, symBinAddr: 0x20E74, symSize: 0x34 }
  - { offset: 0x5B86D, size: 0x8, addend: 0x0, symName: '__ZN57_$LT$T$u20$as$u20$pyo3..conversion..FromPyObjectBound$GT$20from_py_object_bound17h11df16c3133300d1E', symObjAddr: 0xDAC, symBinAddr: 0x20EA8, symSize: 0x34 }
  - { offset: 0x5B8BA, size: 0x8, addend: 0x0, symName: '__ZN4pyo311conversions3std3vec85_$LT$impl$u20$pyo3..conversion..IntoPyObject$u20$for$u20$alloc..vec..Vec$LT$T$GT$$GT$13into_pyobject17h004cdfd6faff8f75E', symObjAddr: 0xB44, symBinAddr: 0x20C40, symSize: 0x34 }
  - { offset: 0x5B909, size: 0x8, addend: 0x0, symName: '__ZN4pyo311conversions3std3vec85_$LT$impl$u20$pyo3..conversion..IntoPyObject$u20$for$u20$alloc..vec..Vec$LT$T$GT$$GT$13into_pyobject17h5ae9af61942e1163E', symObjAddr: 0xB78, symBinAddr: 0x20C74, symSize: 0x34 }
  - { offset: 0x5B96B, size: 0x8, addend: 0x0, symName: '__ZN4pyo35types8sequence85_$LT$impl$u20$pyo3..conversion..FromPyObject$u20$for$u20$alloc..vec..Vec$LT$T$GT$$GT$13extract_bound17h02c101742511d75bE', symObjAddr: 0xBAC, symBinAddr: 0x20CA8, symSize: 0x88 }
  - { offset: 0x5B9A2, size: 0x8, addend: 0x0, symName: '__ZN4pyo35types8sequence85_$LT$impl$u20$pyo3..conversion..FromPyObject$u20$for$u20$alloc..vec..Vec$LT$T$GT$$GT$13extract_bound17hd902694cc3eff82aE', symObjAddr: 0xC34, symBinAddr: 0x20D30, symSize: 0x88 }
  - { offset: 0x5B9D9, size: 0x8, addend: 0x0, symName: '__ZN4pyo35types8sequence85_$LT$impl$u20$pyo3..conversion..FromPyObject$u20$for$u20$alloc..vec..Vec$LT$T$GT$$GT$13extract_bound17he6d213f0b85c705bE', symObjAddr: 0xCBC, symBinAddr: 0x20DB8, symSize: 0x88 }
  - { offset: 0x5BA73, size: 0x8, addend: 0x0, symName: '__ZN80_$LT$T$u20$as$u20$pyo3..impl_..extract_argument..PyFunctionArgument$LT$_$GT$$GT$7extract17h174115a4483590a1E', symObjAddr: 0x20B4, symBinAddr: 0x221B0, symSize: 0x28 }
  - { offset: 0x5BAB2, size: 0x8, addend: 0x0, symName: '__ZN80_$LT$T$u20$as$u20$pyo3..impl_..extract_argument..PyFunctionArgument$LT$_$GT$$GT$7extract17h1fcd87e3fb0add18E', symObjAddr: 0x20DC, symBinAddr: 0x221D8, symSize: 0x28 }
  - { offset: 0x5BAF1, size: 0x8, addend: 0x0, symName: '__ZN80_$LT$T$u20$as$u20$pyo3..impl_..extract_argument..PyFunctionArgument$LT$_$GT$$GT$7extract17hb15a7382e3f24328E', symObjAddr: 0x2104, symBinAddr: 0x22200, symSize: 0x28 }
  - { offset: 0x5BE2B, size: 0x8, addend: 0x0, symName: '__ZN5alloc3vec12Vec$LT$T$GT$13with_capacity17h8b8d7e7ad3d5c8a2E', symObjAddr: 0xDE0, symBinAddr: 0x20EDC, symSize: 0x44 }
  - { offset: 0x5BF05, size: 0x8, addend: 0x0, symName: '__ZN5alloc3vec12Vec$LT$T$GT$13with_capacity17had17776078143228E', symObjAddr: 0xE24, symBinAddr: 0x20F20, symSize: 0x44 }
  - { offset: 0x5C106, size: 0x8, addend: 0x0, symName: '__ZN5alloc3vec12Vec$LT$T$GT$13with_capacity17hbb28e1cee6953963E', symObjAddr: 0xE68, symBinAddr: 0x20F64, symSize: 0x44 }
  - { offset: 0x5C1A5, size: 0x8, addend: 0x0, symName: '__ZN5alloc3vec12Vec$LT$T$GT$3new17hd101080c30e3872cE', symObjAddr: 0xEAC, symBinAddr: 0x20FA8, symSize: 0x14 }
  - { offset: 0x5C2DD, size: 0x8, addend: 0x0, symName: '__ZN5alloc3vec16Vec$LT$T$C$A$GT$14extend_trusted17h886abeb868d47a6aE', symObjAddr: 0xEC0, symBinAddr: 0x20FBC, symSize: 0x124 }
  - { offset: 0x5C4DD, size: 0x8, addend: 0x0, symName: '__ZN5alloc3vec16Vec$LT$T$C$A$GT$14extend_trusted17h8ebb5e375104fe52E', symObjAddr: 0xFE4, symBinAddr: 0x210E0, symSize: 0x124 }
  - { offset: 0x5C6D0, size: 0x8, addend: 0x0, symName: '__ZN5alloc3vec16Vec$LT$T$C$A$GT$14extend_trusted17h9f89bb507ecd7c47E', symObjAddr: 0x1108, symBinAddr: 0x21204, symSize: 0x124 }
  - { offset: 0x5C8C3, size: 0x8, addend: 0x0, symName: '__ZN5alloc3vec16Vec$LT$T$C$A$GT$14extend_trusted17hed3f8b4cf5d60375E', symObjAddr: 0x122C, symBinAddr: 0x21328, symSize: 0x124 }
  - { offset: 0x5CAB6, size: 0x8, addend: 0x0, symName: '__ZN5alloc3vec16Vec$LT$T$C$A$GT$14extend_trusted17hf0e3e326828ff02fE', symObjAddr: 0x1350, symBinAddr: 0x2144C, symSize: 0x124 }
  - { offset: 0x5CD6D, size: 0x8, addend: 0x0, symName: '__ZN5alloc3vec16Vec$LT$T$C$A$GT$15append_elements17hc21fecebee628bf7E', symObjAddr: 0x15C8, symBinAddr: 0x216C4, symSize: 0xD8 }
  - { offset: 0x5D369, size: 0x8, addend: 0x0, symName: '__ZN5alloc3vec16Vec$LT$T$C$A$GT$16extend_desugared17h3809aaf374dcfc8aE', symObjAddr: 0x16A0, symBinAddr: 0x2179C, symSize: 0x1BC }
  - { offset: 0x5D745, size: 0x8, addend: 0x0, symName: '__ZN5alloc3vec16Vec$LT$T$C$A$GT$16extend_desugared17hcd325adc6c988697E', symObjAddr: 0x185C, symBinAddr: 0x21958, symSize: 0x1A8 }
  - { offset: 0x5D9C6, size: 0x8, addend: 0x0, symName: '__ZN5alloc3vec16Vec$LT$T$C$A$GT$4push17h10496dbf66a54b97E', symObjAddr: 0x1A04, symBinAddr: 0x21B00, symSize: 0x24 }
  - { offset: 0x5DA18, size: 0x8, addend: 0x0, symName: '__ZN5alloc3vec16Vec$LT$T$C$A$GT$4push17hc8492171cd8bcac9E', symObjAddr: 0x1A28, symBinAddr: 0x21B24, symSize: 0x30 }
  - { offset: 0x5DA69, size: 0x8, addend: 0x0, symName: '__ZN5alloc3vec16Vec$LT$T$C$A$GT$4push17hdd62753451550801E', symObjAddr: 0x1A58, symBinAddr: 0x21B54, symSize: 0x24 }
  - { offset: 0x5DBDE, size: 0x8, addend: 0x0, symName: '__ZN5alloc3vec16Vec$LT$T$C$A$GT$7reserve17h08a87806b393bcf9E', symObjAddr: 0x1A7C, symBinAddr: 0x21B78, symSize: 0xA0 }
  - { offset: 0x5DE42, size: 0x8, addend: 0x0, symName: '__ZN5alloc3vec16Vec$LT$T$C$A$GT$7reserve17h495a06fef4fa7ae5E', symObjAddr: 0x1B1C, symBinAddr: 0x21C18, symSize: 0xA8 }
  - { offset: 0x5DFC2, size: 0x8, addend: 0x0, symName: '__ZN5alloc3vec16Vec$LT$T$C$A$GT$8is_empty17h047a181d13aee863E', symObjAddr: 0x1BC4, symBinAddr: 0x21CC0, symSize: 0x20 }
  - { offset: 0x5E047, size: 0x8, addend: 0x0, symName: '__ZN5alloc3vec16Vec$LT$T$C$A$GT$8is_empty17hd7e6ba42a966079cE', symObjAddr: 0x1BE4, symBinAddr: 0x21CE0, symSize: 0x20 }
  - { offset: 0x5E1AE, size: 0x8, addend: 0x0, symName: '__ZN5alloc3vec16Vec$LT$T$C$A$GT$8push_mut17h0acbf160f8e397c3E', symObjAddr: 0x1C04, symBinAddr: 0x21D00, symSize: 0x110 }
  - { offset: 0x5E449, size: 0x8, addend: 0x0, symName: '__ZN5alloc3vec16Vec$LT$T$C$A$GT$8push_mut17h2004b402523e759aE', symObjAddr: 0x1D14, symBinAddr: 0x21E10, symSize: 0xE0 }
  - { offset: 0x5E6E0, size: 0x8, addend: 0x0, symName: '__ZN5alloc3vec16Vec$LT$T$C$A$GT$8push_mut17hf593b309fa1c52aeE', symObjAddr: 0x1DF4, symBinAddr: 0x21EF0, symSize: 0xF4 }
  - { offset: 0x5F345, size: 0x8, addend: 0x0, symName: __ZN4pyo38internal5state11AttachGuard6python17ha9bc3add1ef121e6E, symObjAddr: 0x0, symBinAddr: 0x229AC, symSize: 0x20 }
  - { offset: 0x5F3FB, size: 0x8, addend: 0x0, symName: __ZN4pyo38internal5state11AttachGuard6python17ha9bc3add1ef121e6E, symObjAddr: 0x0, symBinAddr: 0x229AC, symSize: 0x20 }
  - { offset: 0x5F43B, size: 0x8, addend: 0x0, symName: '__ZN4core3ptr8non_null16NonNull$LT$T$GT$13new_unchecked18precondition_check17h654d526e0c040960E', symObjAddr: 0x0, symBinAddr: 0x229CC, symSize: 0x58 }
  - { offset: 0x5F461, size: 0x8, addend: 0x0, symName: '__ZN4core3ptr8non_null16NonNull$LT$T$GT$13new_unchecked18precondition_check17h654d526e0c040960E', symObjAddr: 0x0, symBinAddr: 0x229CC, symSize: 0x58 }
  - { offset: 0x5F512, size: 0x8, addend: 0x0, symName: __ZN4pyo35impl_12frompyobject20extract_struct_field17h051649d52864efb3E, symObjAddr: 0x0, symBinAddr: 0x22A24, symSize: 0x15C }
  - { offset: 0x5F595, size: 0x8, addend: 0x0, symName: __ZN4pyo35impl_12frompyobject20extract_struct_field17h051649d52864efb3E, symObjAddr: 0x0, symBinAddr: 0x22A24, symSize: 0x15C }
  - { offset: 0x5F61B, size: 0x8, addend: 0x0, symName: __ZN4pyo35impl_12frompyobject20extract_struct_field17h39b7b3ca335bc3e0E, symObjAddr: 0x15C, symBinAddr: 0x22B80, symSize: 0x15C }
  - { offset: 0x5F6A1, size: 0x8, addend: 0x0, symName: __ZN4pyo35impl_12frompyobject20extract_struct_field17h781f34e3f3e437b0E, symObjAddr: 0x2B8, symBinAddr: 0x22CDC, symSize: 0x160 }
  - { offset: 0x5F727, size: 0x8, addend: 0x0, symName: __ZN4pyo35impl_12frompyobject20extract_struct_field17ha9cecd692d2905f1E, symObjAddr: 0x418, symBinAddr: 0x22E3C, symSize: 0x160 }
  - { offset: 0x5F7AD, size: 0x8, addend: 0x0, symName: __ZN4pyo35impl_12frompyobject20extract_struct_field17hea134abf212d852aE, symObjAddr: 0x578, symBinAddr: 0x22F9C, symSize: 0x154 }
  - { offset: 0x606D4, size: 0x8, addend: 0x0, symName: '__ZN4core5slice4sort6stable5merge19MergeState$LT$T$GT$10merge_down17h5104d36f2d373e3dE', symObjAddr: 0x0, symBinAddr: 0x230F0, symSize: 0x1BC }
  - { offset: 0x609A4, size: 0x8, addend: 0x0, symName: __ZN4core5slice4sort6stable5merge5merge17h359c6dac2a0e8de3E, symObjAddr: 0x328, symBinAddr: 0x23418, symSize: 0x230 }
  - { offset: 0x60DA0, size: 0x8, addend: 0x0, symName: '__ZN4core5slice4sort6stable5merge19MergeState$LT$T$GT$10merge_down17h5104d36f2d373e3dE', symObjAddr: 0x0, symBinAddr: 0x230F0, symSize: 0x1BC }
  - { offset: 0x60F36, size: 0x8, addend: 0x0, symName: '__ZN4core5slice4sort6stable5merge19MergeState$LT$T$GT$8merge_up17hed47531db357b809E', symObjAddr: 0x1BC, symBinAddr: 0x232AC, symSize: 0x16C }
  - { offset: 0x61105, size: 0x8, addend: 0x0, symName: __ZN4pyo35impl_5panic9PanicTrap3new17ha166adf1bd5d09e6E, symObjAddr: 0x0, symBinAddr: 0x23648, symSize: 0x18 }
  - { offset: 0x61194, size: 0x8, addend: 0x0, symName: __ZN4pyo35impl_5panic9PanicTrap3new17ha166adf1bd5d09e6E, symObjAddr: 0x0, symBinAddr: 0x23648, symSize: 0x18 }
  - { offset: 0x611B6, size: 0x8, addend: 0x0, symName: __ZN4pyo35impl_5panic9PanicTrap6disarm17h6895fe6f4f05237eE, symObjAddr: 0x18, symBinAddr: 0x23660, symSize: 0x28 }
  - { offset: 0x611F6, size: 0x8, addend: 0x0, symName: __ZN3std9panicking12catch_unwind7do_call17h5cb21a00eb7eaea7E, symObjAddr: 0x0, symBinAddr: 0x23688, symSize: 0x94 }
  - { offset: 0x61D94, size: 0x8, addend: 0x0, symName: __ZN3std9panicking12catch_unwind7do_call17h5cb21a00eb7eaea7E, symObjAddr: 0x0, symBinAddr: 0x23688, symSize: 0x94 }
  - { offset: 0x61E8F, size: 0x8, addend: 0x0, symName: __ZN3std9panicking12catch_unwind7do_call17heb2ae91a8542fd99E, symObjAddr: 0x94, symBinAddr: 0x2371C, symSize: 0x88 }
  - { offset: 0x61F8A, size: 0x8, addend: 0x0, symName: __ZN3std9panicking12catch_unwind8do_catch17h4a0c653ed3cfb460E, symObjAddr: 0x11C, symBinAddr: 0x237A4, symSize: 0x70 }
  - { offset: 0x6201F, size: 0x8, addend: 0x0, symName: __ZN3std9panicking12catch_unwind8do_catch17he4bc7c3d4d1b854fE, symObjAddr: 0x18C, symBinAddr: 0x23814, symSize: 0x70 }
  - { offset: 0x62395, size: 0x8, addend: 0x0, symName: __ZN4core9ub_checks23maybe_is_nonoverlapping7runtime17had33e46ab6a48cecE, symObjAddr: 0x0, symBinAddr: 0x23884, symSize: 0xD8 }
  - { offset: 0x6251A, size: 0x8, addend: 0x0, symName: __ZN4core9ub_checks23maybe_is_nonoverlapping7runtime17had33e46ab6a48cecE, symObjAddr: 0x0, symBinAddr: 0x23884, symSize: 0xD8 }
  - { offset: 0x6272D, size: 0x8, addend: 0x0, symName: __ZN3std4path4Path15to_string_lossy17h3d5fb40b65545ab8E, symObjAddr: 0x0, symBinAddr: 0x2395C, symSize: 0x24 }
  - { offset: 0x628B9, size: 0x8, addend: 0x0, symName: '__ZN62_$LT$std..path..PathBuf$u20$as$u20$core..ops..deref..Deref$GT$5deref17h2b4ab44e1c6bcf3cE', symObjAddr: 0x3C, symBinAddr: 0x23998, symSize: 0x34 }
  - { offset: 0x62C27, size: 0x8, addend: 0x0, symName: __ZN3std4path4Path15to_string_lossy17h3d5fb40b65545ab8E, symObjAddr: 0x0, symBinAddr: 0x2395C, symSize: 0x24 }
  - { offset: 0x62C84, size: 0x8, addend: 0x0, symName: __ZN3std4path4Path7display17h156beeeb8874e13dE, symObjAddr: 0x24, symBinAddr: 0x23980, symSize: 0x18 }
  - { offset: 0x62CFB, size: 0x8, addend: 0x0, symName: __ZN5alloc3vec16in_place_collect13needs_realloc17h2698cb85ae96a478E, symObjAddr: 0x0, symBinAddr: 0x239CC, symSize: 0x2C }
  - { offset: 0x6435B, size: 0x8, addend: 0x0, symName: __ZN5alloc3vec16in_place_collect13needs_realloc17h2698cb85ae96a478E, symObjAddr: 0x0, symBinAddr: 0x239CC, symSize: 0x2C }
  - { offset: 0x643A7, size: 0x8, addend: 0x0, symName: __ZN5alloc3vec16in_place_collect13needs_realloc17h77335dbd1f73dfc9E, symObjAddr: 0x2C, symBinAddr: 0x239F8, symSize: 0x2C }
  - { offset: 0x643F3, size: 0x8, addend: 0x0, symName: __ZN5alloc3vec16in_place_collect13needs_realloc17he29d2e2fc20c6d13E, symObjAddr: 0x58, symBinAddr: 0x23A24, symSize: 0x2C }
  - { offset: 0x6443F, size: 0x8, addend: 0x0, symName: __ZN5alloc3vec16in_place_collect18from_iter_in_place17h2baee6ba2b2dc465E, symObjAddr: 0x84, symBinAddr: 0x23A50, symSize: 0x398 }
  - { offset: 0x649C3, size: 0x8, addend: 0x0, symName: __ZN5alloc3vec16in_place_collect18from_iter_in_place17h2f3d0753d3c52d15E, symObjAddr: 0x41C, symBinAddr: 0x23DE8, symSize: 0x394 }
  - { offset: 0x64F47, size: 0x8, addend: 0x0, symName: __ZN5alloc3vec16in_place_collect18from_iter_in_place17h9c247faf91f6f230E, symObjAddr: 0x7B0, symBinAddr: 0x2417C, symSize: 0x398 }
  - { offset: 0x654D0, size: 0x8, addend: 0x0, symName: '__ZN5alloc3vec16in_place_collect24write_in_place_with_drop28_$u7b$$u7b$closure$u7d$$u7d$17h24e99596654a1af4E', symObjAddr: 0xB48, symBinAddr: 0x24514, symSize: 0x50 }
  - { offset: 0x65552, size: 0x8, addend: 0x0, symName: '__ZN5alloc3vec16in_place_collect24write_in_place_with_drop28_$u7b$$u7b$closure$u7d$$u7d$17h3b980f0836c9b9f9E', symObjAddr: 0xB98, symBinAddr: 0x24564, symSize: 0x40 }
  - { offset: 0x655D3, size: 0x8, addend: 0x0, symName: '__ZN5alloc3vec16in_place_collect24write_in_place_with_drop28_$u7b$$u7b$closure$u7d$$u7d$17h4bd9ab37112c8224E', symObjAddr: 0xBD8, symBinAddr: 0x245A4, symSize: 0x3C }
  - { offset: 0x673D0, size: 0x8, addend: 0x0, symName: '__ZN102_$LT$core..iter..adapters..map..Map$LT$I$C$F$GT$$u20$as$u20$core..iter..traits..iterator..Iterator$GT$4fold17h453453268c6934d2E', symObjAddr: 0x0, symBinAddr: 0x245E0, symSize: 0x44 }
  - { offset: 0x67D7C, size: 0x8, addend: 0x0, symName: '__ZN4core4iter8adapters3map8map_fold28_$u7b$$u7b$closure$u7d$$u7d$17h1571e6615cdd9c3cE', symObjAddr: 0xDF4, symBinAddr: 0x253D4, symSize: 0x8C }
  - { offset: 0x67E01, size: 0x8, addend: 0x0, symName: '__ZN4core4iter8adapters3map8map_fold28_$u7b$$u7b$closure$u7d$$u7d$17h6beaff08976de4cbE', symObjAddr: 0xE80, symBinAddr: 0x25460, symSize: 0x8C }
  - { offset: 0x67E86, size: 0x8, addend: 0x0, symName: '__ZN4core4iter8adapters3map8map_fold28_$u7b$$u7b$closure$u7d$$u7d$17h80b94ceed83b4316E', symObjAddr: 0xF0C, symBinAddr: 0x254EC, symSize: 0x8C }
  - { offset: 0x67F0B, size: 0x8, addend: 0x0, symName: '__ZN4core4iter8adapters3map8map_fold28_$u7b$$u7b$closure$u7d$$u7d$17hb0dfae87a933a723E', symObjAddr: 0xF98, symBinAddr: 0x25578, symSize: 0x8C }
  - { offset: 0x67F90, size: 0x8, addend: 0x0, symName: '__ZN4core4iter8adapters3map8map_fold28_$u7b$$u7b$closure$u7d$$u7d$17hb9bb5e2efb1e166cE', symObjAddr: 0x1024, symBinAddr: 0x25604, symSize: 0x8C }
  - { offset: 0x6801B, size: 0x8, addend: 0x0, symName: '__ZN102_$LT$core..iter..adapters..map..Map$LT$I$C$F$GT$$u20$as$u20$core..iter..traits..iterator..Iterator$GT$4fold17h453453268c6934d2E', symObjAddr: 0x0, symBinAddr: 0x245E0, symSize: 0x44 }
  - { offset: 0x680B3, size: 0x8, addend: 0x0, symName: '__ZN102_$LT$core..iter..adapters..map..Map$LT$I$C$F$GT$$u20$as$u20$core..iter..traits..iterator..Iterator$GT$4fold17h945407feb09c6f64E', symObjAddr: 0x44, symBinAddr: 0x24624, symSize: 0x44 }
  - { offset: 0x6814B, size: 0x8, addend: 0x0, symName: '__ZN102_$LT$core..iter..adapters..map..Map$LT$I$C$F$GT$$u20$as$u20$core..iter..traits..iterator..Iterator$GT$4fold17hb26c69270b95c607E', symObjAddr: 0x88, symBinAddr: 0x24668, symSize: 0x44 }
  - { offset: 0x681E3, size: 0x8, addend: 0x0, symName: '__ZN102_$LT$core..iter..adapters..map..Map$LT$I$C$F$GT$$u20$as$u20$core..iter..traits..iterator..Iterator$GT$4fold17hd790ae7d27e9511fE', symObjAddr: 0xCC, symBinAddr: 0x246AC, symSize: 0x44 }
  - { offset: 0x6827B, size: 0x8, addend: 0x0, symName: '__ZN102_$LT$core..iter..adapters..map..Map$LT$I$C$F$GT$$u20$as$u20$core..iter..traits..iterator..Iterator$GT$4fold17hd98e7542b2dac18aE', symObjAddr: 0x110, symBinAddr: 0x246F0, symSize: 0x44 }
  - { offset: 0x68313, size: 0x8, addend: 0x0, symName: '__ZN102_$LT$core..iter..adapters..map..Map$LT$I$C$F$GT$$u20$as$u20$core..iter..traits..iterator..Iterator$GT$4next17h68db2900d9506ad0E', symObjAddr: 0x154, symBinAddr: 0x24734, symSize: 0x98 }
  - { offset: 0x683AF, size: 0x8, addend: 0x0, symName: '__ZN102_$LT$core..iter..adapters..map..Map$LT$I$C$F$GT$$u20$as$u20$core..iter..traits..iterator..Iterator$GT$4next17he474968ddb309c0eE', symObjAddr: 0x1EC, symBinAddr: 0x247CC, symSize: 0xB0 }
  - { offset: 0x6844B, size: 0x8, addend: 0x0, symName: '__ZN102_$LT$core..iter..adapters..map..Map$LT$I$C$F$GT$$u20$as$u20$core..iter..traits..iterator..Iterator$GT$8try_fold17h0c98fb578690b16aE', symObjAddr: 0x29C, symBinAddr: 0x2487C, symSize: 0x58 }
  - { offset: 0x684EE, size: 0x8, addend: 0x0, symName: '__ZN102_$LT$core..iter..adapters..map..Map$LT$I$C$F$GT$$u20$as$u20$core..iter..traits..iterator..Iterator$GT$8try_fold17h18cb85d1f6d5dffeE', symObjAddr: 0x2F4, symBinAddr: 0x248D4, symSize: 0x54 }
  - { offset: 0x68591, size: 0x8, addend: 0x0, symName: '__ZN102_$LT$core..iter..adapters..map..Map$LT$I$C$F$GT$$u20$as$u20$core..iter..traits..iterator..Iterator$GT$8try_fold17h7d9047a5f8a94d22E', symObjAddr: 0x348, symBinAddr: 0x24928, symSize: 0x64 }
  - { offset: 0x68634, size: 0x8, addend: 0x0, symName: '__ZN102_$LT$core..iter..adapters..map..Map$LT$I$C$F$GT$$u20$as$u20$core..iter..traits..iterator..Iterator$GT$8try_fold17hc9621844aa919b8fE', symObjAddr: 0x3AC, symBinAddr: 0x2498C, symSize: 0x58 }
  - { offset: 0x686D7, size: 0x8, addend: 0x0, symName: '__ZN102_$LT$core..iter..adapters..map..Map$LT$I$C$F$GT$$u20$as$u20$core..iter..traits..iterator..Iterator$GT$8try_fold17hcea3b9a15ea33d7fE', symObjAddr: 0x404, symBinAddr: 0x249E4, symSize: 0x4C }
  - { offset: 0x68755, size: 0x8, addend: 0x0, symName: '__ZN102_$LT$core..iter..adapters..map..Map$LT$I$C$F$GT$$u20$as$u20$core..iter..traits..iterator..Iterator$GT$8try_fold17hd08cad39451c012bE', symObjAddr: 0x450, symBinAddr: 0x24A30, symSize: 0x64 }
  - { offset: 0x687F8, size: 0x8, addend: 0x0, symName: '__ZN102_$LT$core..iter..adapters..map..Map$LT$I$C$F$GT$$u20$as$u20$core..iter..traits..iterator..Iterator$GT$9size_hint17h2db71e59be872d00E', symObjAddr: 0x4B4, symBinAddr: 0x24A94, symSize: 0x24 }
  - { offset: 0x6883F, size: 0x8, addend: 0x0, symName: '__ZN102_$LT$core..iter..adapters..map..Map$LT$I$C$F$GT$$u20$as$u20$core..iter..traits..iterator..Iterator$GT$9size_hint17h774b78c655a3ac35E', symObjAddr: 0x4D8, symBinAddr: 0x24AB8, symSize: 0x24 }
  - { offset: 0x68886, size: 0x8, addend: 0x0, symName: '__ZN102_$LT$core..iter..adapters..map..Map$LT$I$C$F$GT$$u20$as$u20$core..iter..traits..iterator..Iterator$GT$9size_hint17h7ae71620417aafe2E', symObjAddr: 0x4FC, symBinAddr: 0x24ADC, symSize: 0x24 }
  - { offset: 0x688CD, size: 0x8, addend: 0x0, symName: '__ZN102_$LT$core..iter..adapters..map..Map$LT$I$C$F$GT$$u20$as$u20$core..iter..traits..iterator..Iterator$GT$9size_hint17hb5b5778b01199b12E', symObjAddr: 0x520, symBinAddr: 0x24B00, symSize: 0x24 }
  - { offset: 0x68914, size: 0x8, addend: 0x0, symName: '__ZN102_$LT$core..iter..adapters..map..Map$LT$I$C$F$GT$$u20$as$u20$core..iter..traits..iterator..Iterator$GT$9size_hint17hca04fbb4c5b61c14E', symObjAddr: 0x544, symBinAddr: 0x24B24, symSize: 0x24 }
  - { offset: 0x6895B, size: 0x8, addend: 0x0, symName: '__ZN102_$LT$core..iter..adapters..map..Map$LT$I$C$F$GT$$u20$as$u20$core..iter..traits..iterator..Iterator$GT$9size_hint17hfe71811892f704b8E', symObjAddr: 0x568, symBinAddr: 0x24B48, symSize: 0x24 }
  - { offset: 0x68BEB, size: 0x8, addend: 0x0, symName: '__ZN4core4iter8adapters3map12map_try_fold28_$u7b$$u7b$closure$u7d$$u7d$17h5237d0757d0a7414E', symObjAddr: 0x89C, symBinAddr: 0x24E7C, symSize: 0xCC }
  - { offset: 0x68C7D, size: 0x8, addend: 0x0, symName: '__ZN4core4iter8adapters3map12map_try_fold28_$u7b$$u7b$closure$u7d$$u7d$17h8e05a5c0330b66ccE', symObjAddr: 0x968, symBinAddr: 0x24F48, symSize: 0x10C }
  - { offset: 0x68D10, size: 0x8, addend: 0x0, symName: '__ZN4core4iter8adapters3map12map_try_fold28_$u7b$$u7b$closure$u7d$$u7d$17ha63b360b0fab8440E', symObjAddr: 0xA74, symBinAddr: 0x25054, symSize: 0xD0 }
  - { offset: 0x68DA3, size: 0x8, addend: 0x0, symName: '__ZN4core4iter8adapters3map12map_try_fold28_$u7b$$u7b$closure$u7d$$u7d$17ha7702211f489d21bE', symObjAddr: 0xB44, symBinAddr: 0x25124, symSize: 0x98 }
  - { offset: 0x68E35, size: 0x8, addend: 0x0, symName: '__ZN4core4iter8adapters3map12map_try_fold28_$u7b$$u7b$closure$u7d$$u7d$17hdd949b2a450799e7E', symObjAddr: 0xBDC, symBinAddr: 0x251BC, symSize: 0x10C }
  - { offset: 0x68EC8, size: 0x8, addend: 0x0, symName: '__ZN4core4iter8adapters3map12map_try_fold28_$u7b$$u7b$closure$u7d$$u7d$17he7aad6e96934e984E', symObjAddr: 0xCE8, symBinAddr: 0x252C8, symSize: 0x10C }
  - { offset: 0x690D5, size: 0x8, addend: 0x0, symName: '__ZN113_$LT$core..iter..adapters..map..Map$LT$I$C$F$GT$$u20$as$u20$core..iter..traits..exact_size..ExactSizeIterator$GT$3len17h556aecb7e64600fcE', symObjAddr: 0x58C, symBinAddr: 0x24B6C, symSize: 0x24 }
  - { offset: 0x6911C, size: 0x8, addend: 0x0, symName: '__ZN113_$LT$core..iter..adapters..map..Map$LT$I$C$F$GT$$u20$as$u20$core..iter..traits..exact_size..ExactSizeIterator$GT$3len17hc843e493248fdcd9E', symObjAddr: 0x5B0, symBinAddr: 0x24B90, symSize: 0x24 }
  - { offset: 0x69169, size: 0x8, addend: 0x0, symName: '__ZN96_$LT$core..iter..adapters..map..Map$LT$I$C$F$GT$$u20$as$u20$core..iter..adapters..SourceIter$GT$8as_inner17h328581a06ce24076E', symObjAddr: 0x14D8, symBinAddr: 0x25AB8, symSize: 0x24 }
  - { offset: 0x691A7, size: 0x8, addend: 0x0, symName: '__ZN96_$LT$core..iter..adapters..map..Map$LT$I$C$F$GT$$u20$as$u20$core..iter..adapters..SourceIter$GT$8as_inner17h9fd8afeb73f4196fE', symObjAddr: 0x14FC, symBinAddr: 0x25ADC, symSize: 0x24 }
  - { offset: 0x691E5, size: 0x8, addend: 0x0, symName: '__ZN96_$LT$core..iter..adapters..map..Map$LT$I$C$F$GT$$u20$as$u20$core..iter..adapters..SourceIter$GT$8as_inner17he6649a5687d3e73bE', symObjAddr: 0x1520, symBinAddr: 0x25B00, symSize: 0x24 }
  - { offset: 0x696EE, size: 0x8, addend: 0x0, symName: __ZN4core4iter6traits8iterator8Iterator4take17h3cffff4c5dc89448E, symObjAddr: 0x5D4, symBinAddr: 0x24BB4, symSize: 0x18 }
  - { offset: 0x69734, size: 0x8, addend: 0x0, symName: __ZN4core4iter6traits8iterator8Iterator4take17h46d98cf95cbab6d7E, symObjAddr: 0x5EC, symBinAddr: 0x24BCC, symSize: 0x18 }
  - { offset: 0x6977A, size: 0x8, addend: 0x0, symName: __ZN4core4iter6traits8iterator8Iterator7collect17h0af470b66cef6ef0E, symObjAddr: 0x604, symBinAddr: 0x24BE4, symSize: 0x2C }
  - { offset: 0x697BA, size: 0x8, addend: 0x0, symName: __ZN4core4iter6traits8iterator8Iterator7collect17h1734d199f7a729beE, symObjAddr: 0x630, symBinAddr: 0x24C10, symSize: 0x2C }
  - { offset: 0x697FA, size: 0x8, addend: 0x0, symName: __ZN4core4iter6traits8iterator8Iterator7collect17h4d525aeab7687afdE, symObjAddr: 0x65C, symBinAddr: 0x24C3C, symSize: 0x14 }
  - { offset: 0x6983B, size: 0x8, addend: 0x0, symName: __ZN4core4iter6traits8iterator8Iterator7collect17h604e0b3529b728cdE, symObjAddr: 0x670, symBinAddr: 0x24C50, symSize: 0x2C }
  - { offset: 0x6987B, size: 0x8, addend: 0x0, symName: __ZN4core4iter6traits8iterator8Iterator7collect17h68961d4c965f615bE, symObjAddr: 0x69C, symBinAddr: 0x24C7C, symSize: 0x14 }
  - { offset: 0x698BC, size: 0x8, addend: 0x0, symName: __ZN4core4iter6traits8iterator8Iterator7collect17hb921aee60d42310bE, symObjAddr: 0x6B0, symBinAddr: 0x24C90, symSize: 0x2C }
  - { offset: 0x698FC, size: 0x8, addend: 0x0, symName: __ZN4core4iter6traits8iterator8Iterator7collect17hcf18bb2e37310c2cE, symObjAddr: 0x6DC, symBinAddr: 0x24CBC, symSize: 0x14 }
  - { offset: 0x6993D, size: 0x8, addend: 0x0, symName: __ZN4core4iter6traits8iterator8Iterator7collect17hd80a671eadcc21f7E, symObjAddr: 0x6F0, symBinAddr: 0x24CD0, symSize: 0x2C }
  - { offset: 0x6997D, size: 0x8, addend: 0x0, symName: __ZN4core4iter6traits8iterator8Iterator7collect17hf76e9293aaac99c4E, symObjAddr: 0x71C, symBinAddr: 0x24CFC, symSize: 0x2C }
  - { offset: 0x699BD, size: 0x8, addend: 0x0, symName: __ZN4core4iter6traits8iterator8Iterator8for_each17h4b30216fe48cfca8E, symObjAddr: 0x748, symBinAddr: 0x24D28, symSize: 0x44 }
  - { offset: 0x69A28, size: 0x8, addend: 0x0, symName: __ZN4core4iter6traits8iterator8Iterator8for_each17habc76b1e8bbd9a4bE, symObjAddr: 0x78C, symBinAddr: 0x24D6C, symSize: 0x44 }
  - { offset: 0x69A93, size: 0x8, addend: 0x0, symName: __ZN4core4iter6traits8iterator8Iterator8for_each17hb3d6af18f398b451E, symObjAddr: 0x7D0, symBinAddr: 0x24DB0, symSize: 0x44 }
  - { offset: 0x69AFE, size: 0x8, addend: 0x0, symName: __ZN4core4iter6traits8iterator8Iterator8for_each17hcc68e22f72dde3b5E, symObjAddr: 0x814, symBinAddr: 0x24DF4, symSize: 0x44 }
  - { offset: 0x69B69, size: 0x8, addend: 0x0, symName: __ZN4core4iter6traits8iterator8Iterator8for_each17hfc968f0e166138c1E, symObjAddr: 0x858, symBinAddr: 0x24E38, symSize: 0x44 }
  - { offset: 0x69BDA, size: 0x8, addend: 0x0, symName: '__ZN72_$LT$$RF$mut$u20$I$u20$as$u20$core..iter..traits..iterator..Iterator$GT$4next17h23c264f44493554aE', symObjAddr: 0x11B0, symBinAddr: 0x25790, symSize: 0x28 }
  - { offset: 0x69C11, size: 0x8, addend: 0x0, symName: '__ZN72_$LT$$RF$mut$u20$I$u20$as$u20$core..iter..traits..iterator..Iterator$GT$4next17h8bc0301b6fd5d42cE', symObjAddr: 0x11D8, symBinAddr: 0x257B8, symSize: 0x28 }
  - { offset: 0x69C48, size: 0x8, addend: 0x0, symName: '__ZN72_$LT$$RF$mut$u20$I$u20$as$u20$core..iter..traits..iterator..Iterator$GT$8try_fold17h36e4cb3e04da10f3E', symObjAddr: 0x1200, symBinAddr: 0x257E0, symSize: 0x38 }
  - { offset: 0x69CB8, size: 0x8, addend: 0x0, symName: '__ZN72_$LT$$RF$mut$u20$I$u20$as$u20$core..iter..traits..iterator..Iterator$GT$8try_fold17h5ca7bedfe5390c86E', symObjAddr: 0x1238, symBinAddr: 0x25818, symSize: 0x38 }
  - { offset: 0x69D28, size: 0x8, addend: 0x0, symName: '__ZN72_$LT$$RF$mut$u20$I$u20$as$u20$core..iter..traits..iterator..Iterator$GT$8try_fold17h7993eed7d3abe236E', symObjAddr: 0x1270, symBinAddr: 0x25850, symSize: 0x38 }
  - { offset: 0x69D98, size: 0x8, addend: 0x0, symName: '__ZN72_$LT$$RF$mut$u20$I$u20$as$u20$core..iter..traits..iterator..Iterator$GT$8try_fold17h9cdf1c456084ef34E', symObjAddr: 0x12A8, symBinAddr: 0x25888, symSize: 0x38 }
  - { offset: 0x69E0E, size: 0x8, addend: 0x0, symName: '__ZN79_$LT$$RF$mut$u20$I$u20$as$u20$core..iter..traits..iterator..IteratorRefSpec$GT$13spec_try_fold17h09e0d74a77c08999E', symObjAddr: 0x12E0, symBinAddr: 0x258C0, symSize: 0x3C }
  - { offset: 0x69E7E, size: 0x8, addend: 0x0, symName: '__ZN79_$LT$$RF$mut$u20$I$u20$as$u20$core..iter..traits..iterator..IteratorRefSpec$GT$13spec_try_fold17h10be4b88c7ca294aE', symObjAddr: 0x131C, symBinAddr: 0x258FC, symSize: 0x3C }
  - { offset: 0x69EEE, size: 0x8, addend: 0x0, symName: '__ZN79_$LT$$RF$mut$u20$I$u20$as$u20$core..iter..traits..iterator..IteratorRefSpec$GT$13spec_try_fold17h45dd951517158910E', symObjAddr: 0x1358, symBinAddr: 0x25938, symSize: 0x3C }
  - { offset: 0x69F5E, size: 0x8, addend: 0x0, symName: '__ZN79_$LT$$RF$mut$u20$I$u20$as$u20$core..iter..traits..iterator..IteratorRefSpec$GT$13spec_try_fold17hd18d40db2867888dE', symObjAddr: 0x1394, symBinAddr: 0x25974, symSize: 0x3C }
  - { offset: 0x69FDA, size: 0x8, addend: 0x0, symName: '__ZN63_$LT$I$u20$as$u20$core..iter..traits..collect..IntoIterator$GT$9into_iter17h2f5f0b26593523c4E', symObjAddr: 0x10B0, symBinAddr: 0x25690, symSize: 0x1C }
  - { offset: 0x6A011, size: 0x8, addend: 0x0, symName: '__ZN63_$LT$I$u20$as$u20$core..iter..traits..collect..IntoIterator$GT$9into_iter17h562fb9aac7dffe4bE', symObjAddr: 0x10CC, symBinAddr: 0x256AC, symSize: 0x14 }
  - { offset: 0x6A048, size: 0x8, addend: 0x0, symName: '__ZN63_$LT$I$u20$as$u20$core..iter..traits..collect..IntoIterator$GT$9into_iter17h6463d6dc42a2caceE', symObjAddr: 0x10E0, symBinAddr: 0x256C0, symSize: 0x14 }
  - { offset: 0x6A07F, size: 0x8, addend: 0x0, symName: '__ZN63_$LT$I$u20$as$u20$core..iter..traits..collect..IntoIterator$GT$9into_iter17h7bdebf456bd7e2c2E', symObjAddr: 0x10F4, symBinAddr: 0x256D4, symSize: 0x1C }
  - { offset: 0x6A0B6, size: 0x8, addend: 0x0, symName: '__ZN63_$LT$I$u20$as$u20$core..iter..traits..collect..IntoIterator$GT$9into_iter17h8cf0281a76a3f7c9E', symObjAddr: 0x1110, symBinAddr: 0x256F0, symSize: 0x1C }
  - { offset: 0x6A0ED, size: 0x8, addend: 0x0, symName: '__ZN63_$LT$I$u20$as$u20$core..iter..traits..collect..IntoIterator$GT$9into_iter17hc176f7dd7cd3840eE', symObjAddr: 0x112C, symBinAddr: 0x2570C, symSize: 0x1C }
  - { offset: 0x6A124, size: 0x8, addend: 0x0, symName: '__ZN63_$LT$I$u20$as$u20$core..iter..traits..collect..IntoIterator$GT$9into_iter17hd43d481a8e882b78E', symObjAddr: 0x1148, symBinAddr: 0x25728, symSize: 0x30 }
  - { offset: 0x6A15C, size: 0x8, addend: 0x0, symName: '__ZN63_$LT$I$u20$as$u20$core..iter..traits..collect..IntoIterator$GT$9into_iter17hed7ad20ae22d2027E', symObjAddr: 0x1178, symBinAddr: 0x25758, symSize: 0x1C }
  - { offset: 0x6A193, size: 0x8, addend: 0x0, symName: '__ZN63_$LT$I$u20$as$u20$core..iter..traits..collect..IntoIterator$GT$9into_iter17hf4540b2f4c386830E', symObjAddr: 0x1194, symBinAddr: 0x25774, symSize: 0x1C }
  - { offset: 0x6A1D6, size: 0x8, addend: 0x0, symName: '__ZN83_$LT$$RF$mut$u20$I$u20$as$u20$core..iter..traits..exact_size..ExactSizeIterator$GT$3len17he64dd468d11e6bd5E', symObjAddr: 0x13D0, symBinAddr: 0x259B0, symSize: 0x28 }
  - { offset: 0x6A20B, size: 0x8, addend: 0x0, symName: '__ZN83_$LT$$RF$mut$u20$I$u20$as$u20$core..iter..traits..exact_size..ExactSizeIterator$GT$3len17hf11bbf31cce5fe41E', symObjAddr: 0x13F8, symBinAddr: 0x259D8, symSize: 0x28 }
  - { offset: 0x6C9DD, size: 0x8, addend: 0x0, symName: '__ZN83_$LT$I$u20$as$u20$alloc..vec..in_place_collect..SpecInPlaceCollect$LT$T$C$I$GT$$GT$16collect_in_place17h22b5cccdae90ac2dE', symObjAddr: 0x1420, symBinAddr: 0x25A00, symSize: 0xB8 }
  - { offset: 0x6EC47, size: 0x8, addend: 0x0, symName: _PyInit__typg_python, symObjAddr: 0x0, symBinAddr: 0x25B24, symSize: 0x34 }
  - { offset: 0x6EC6C, size: 0x8, addend: 0x0, symName: __ZN11typg_python11typg_python9_PYO3_DEF17h6fabbb8d253a858cE, symObjAddr: 0x150, symBinAddr: 0x480638, symSize: 0x0 }
  - { offset: 0x6EC79, size: 0x8, addend: 0x0, symName: _PyInit__typg_python, symObjAddr: 0x0, symBinAddr: 0x25B24, symSize: 0x34 }
  - { offset: 0x7008C, size: 0x8, addend: 0x0, symName: '__ZN4core3num23_$LT$impl$u20$usize$GT$13unchecked_add18precondition_check17he95e4566ce2e7d0bE', symObjAddr: 0x0, symBinAddr: 0x25B58, symSize: 0x64 }
  - { offset: 0x700D7, size: 0x8, addend: 0x0, symName: '__ZN4core3num23_$LT$impl$u20$usize$GT$13unchecked_add18precondition_check17he95e4566ce2e7d0bE', symObjAddr: 0x0, symBinAddr: 0x25B58, symSize: 0x64 }
  - { offset: 0x70180, size: 0x8, addend: 0x0, symName: '__ZN4core3num23_$LT$impl$u20$usize$GT$13unchecked_mul18precondition_check17hcdf8bc6ac4e53a10E', symObjAddr: 0x64, symBinAddr: 0x25BBC, symSize: 0x60 }
  - { offset: 0x70275, size: 0x8, addend: 0x0, symName: __ZN4core4iter6traits8iterator8Iterator3map17h017ca1b70a523a55E, symObjAddr: 0x0, symBinAddr: 0x25C1C, symSize: 0x1C }
  - { offset: 0x70AD0, size: 0x8, addend: 0x0, symName: __ZN4core4iter6traits8iterator8Iterator3map17h017ca1b70a523a55E, symObjAddr: 0x0, symBinAddr: 0x25C1C, symSize: 0x1C }
  - { offset: 0x70B28, size: 0x8, addend: 0x0, symName: __ZN4core4iter6traits8iterator8Iterator3map17h2e45a19fd8d74b2aE, symObjAddr: 0x1C, symBinAddr: 0x25C38, symSize: 0x1C }
  - { offset: 0x70B80, size: 0x8, addend: 0x0, symName: __ZN4core4iter6traits8iterator8Iterator3map17h6efea4c21d2bac5dE, symObjAddr: 0x38, symBinAddr: 0x25C54, symSize: 0x1C }
  - { offset: 0x70BD8, size: 0x8, addend: 0x0, symName: __ZN4core4iter6traits8iterator8Iterator3map17h78b05c3fdfe46e0cE, symObjAddr: 0x54, symBinAddr: 0x25C70, symSize: 0x1C }
  - { offset: 0x70C30, size: 0x8, addend: 0x0, symName: __ZN4core4iter6traits8iterator8Iterator3map17h9b07629575d1db08E, symObjAddr: 0x70, symBinAddr: 0x25C8C, symSize: 0x1C }
  - { offset: 0x70C88, size: 0x8, addend: 0x0, symName: __ZN4core4iter6traits8iterator8Iterator3map17hf1a30957e4ccb84dE, symObjAddr: 0x8C, symBinAddr: 0x25CA8, symSize: 0x1C }
  - { offset: 0x70CE0, size: 0x8, addend: 0x0, symName: __ZN4core4iter6traits8iterator8Iterator6copied17h297efe98c7e45cd3E, symObjAddr: 0xA8, symBinAddr: 0x25CC4, symSize: 0x1C }
  - { offset: 0x70D20, size: 0x8, addend: 0x0, symName: __ZN4core4iter6traits8iterator8Iterator8try_fold17hf4a039da96833315E, symObjAddr: 0xC4, symBinAddr: 0x25CE0, symSize: 0x12C }
  - { offset: 0x71E35, size: 0x8, addend: 0x0, symName: '__ZN91_$LT$core..slice..iter..Iter$LT$T$GT$$u20$as$u20$core..iter..traits..iterator..Iterator$GT$4fold17h0d5a90dcedfd89a0E', symObjAddr: 0x240, symBinAddr: 0x25E5C, symSize: 0x1D8 }
  - { offset: 0x72036, size: 0x8, addend: 0x0, symName: '__ZN91_$LT$core..slice..iter..Iter$LT$T$GT$$u20$as$u20$core..iter..traits..iterator..Iterator$GT$4fold17h26fca502b1e68e04E', symObjAddr: 0x418, symBinAddr: 0x26034, symSize: 0x1D8 }
  - { offset: 0x72237, size: 0x8, addend: 0x0, symName: '__ZN91_$LT$core..slice..iter..Iter$LT$T$GT$$u20$as$u20$core..iter..traits..iterator..Iterator$GT$4fold17h60ce7a850713df94E', symObjAddr: 0x5F0, symBinAddr: 0x2620C, symSize: 0x1D8 }
  - { offset: 0x72438, size: 0x8, addend: 0x0, symName: '__ZN91_$LT$core..slice..iter..Iter$LT$T$GT$$u20$as$u20$core..iter..traits..iterator..Iterator$GT$4fold17h8a3aac5836635187E', symObjAddr: 0x7C8, symBinAddr: 0x263E4, symSize: 0x1D8 }
  - { offset: 0x72639, size: 0x8, addend: 0x0, symName: '__ZN91_$LT$core..slice..iter..Iter$LT$T$GT$$u20$as$u20$core..iter..traits..iterator..Iterator$GT$4fold17h9ccd78f635292a85E', symObjAddr: 0x9A0, symBinAddr: 0x265BC, symSize: 0x1D8 }
  - { offset: 0x7283A, size: 0x8, addend: 0x0, symName: '__ZN91_$LT$core..slice..iter..Iter$LT$T$GT$$u20$as$u20$core..iter..traits..iterator..Iterator$GT$4next17hfdfd3890d20996d7E', symObjAddr: 0xB78, symBinAddr: 0x26794, symSize: 0x84 }
  - { offset: 0x7293F, size: 0x8, addend: 0x0, symName: '__ZN91_$LT$core..slice..iter..Iter$LT$T$GT$$u20$as$u20$core..iter..traits..iterator..Iterator$GT$8position17h3d052d4ed702658bE', symObjAddr: 0xBFC, symBinAddr: 0x26818, symSize: 0x1D0 }
  - { offset: 0x72B9C, size: 0x8, addend: 0x0, symName: '__ZN91_$LT$core..slice..iter..Iter$LT$T$GT$$u20$as$u20$core..iter..traits..iterator..Iterator$GT$8position17hea1ea225f69004fbE', symObjAddr: 0xDCC, symBinAddr: 0x269E8, symSize: 0x1D0 }
  - { offset: 0x742EB, size: 0x8, addend: 0x0, symName: '__ZN4core5slice4iter13Iter$LT$T$GT$3new17h363b086d7c7839a3E', symObjAddr: 0x1F0, symBinAddr: 0x25E0C, symSize: 0x50 }
  - { offset: 0x760EE, size: 0x8, addend: 0x0, symName: '__ZN4pyo311conversions3std6option90_$LT$impl$u20$pyo3..conversion..IntoPyObject$u20$for$u20$core..option..Option$LT$T$GT$$GT$13into_pyobject28_$u7b$$u7b$closure$u7d$$u7d$17h4b71d88223c2b530E', symObjAddr: 0x0, symBinAddr: 0x26BB8, symSize: 0x34 }
  - { offset: 0x76180, size: 0x8, addend: 0x0, symName: '__ZN4pyo311conversions3std6option90_$LT$impl$u20$pyo3..conversion..IntoPyObject$u20$for$u20$core..option..Option$LT$T$GT$$GT$13into_pyobject28_$u7b$$u7b$closure$u7d$$u7d$17h4b71d88223c2b530E', symObjAddr: 0x0, symBinAddr: 0x26BB8, symSize: 0x34 }
  - { offset: 0x761CE, size: 0x8, addend: 0x0, symName: '__ZN4pyo311conversions3std6option90_$LT$impl$u20$pyo3..conversion..IntoPyObject$u20$for$u20$core..option..Option$LT$T$GT$$GT$13into_pyobject28_$u7b$$u7b$closure$u7d$$u7d$17h53e4473fa31837acE', symObjAddr: 0x34, symBinAddr: 0x26BEC, symSize: 0x24 }
  - { offset: 0x7620E, size: 0x8, addend: 0x0, symName: '__ZN4pyo311conversions3std6option90_$LT$impl$u20$pyo3..conversion..IntoPyObject$u20$for$u20$core..option..Option$LT$T$GT$$GT$13into_pyobject28_$u7b$$u7b$closure$u7d$$u7d$17h7a45cf6829e5719aE', symObjAddr: 0x58, symBinAddr: 0x26C10, symSize: 0x34 }
  - { offset: 0x7624E, size: 0x8, addend: 0x0, symName: '__ZN4pyo311conversions3std6option90_$LT$impl$u20$pyo3..conversion..IntoPyObject$u20$for$u20$core..option..Option$LT$T$GT$$GT$13into_pyobject28_$u7b$$u7b$closure$u7d$$u7d$17h7c6dc7ae72a6d792E', symObjAddr: 0x8C, symBinAddr: 0x26C44, symSize: 0x24 }
  - { offset: 0x7628E, size: 0x8, addend: 0x0, symName: '__ZN4pyo311conversions3std6option90_$LT$impl$u20$pyo3..conversion..IntoPyObject$u20$for$u20$core..option..Option$LT$T$GT$$GT$13into_pyobject28_$u7b$$u7b$closure$u7d$$u7d$17hc1f6025cc342dd92E', symObjAddr: 0xB0, symBinAddr: 0x26C68, symSize: 0x5C }
  - { offset: 0x762DC, size: 0x8, addend: 0x0, symName: '__ZN4pyo311conversions3std6option90_$LT$impl$u20$pyo3..conversion..IntoPyObject$u20$for$u20$core..option..Option$LT$T$GT$$GT$13into_pyobject28_$u7b$$u7b$closure$u7d$$u7d$17hffc4525201494f76E', symObjAddr: 0x10C, symBinAddr: 0x26CC4, symSize: 0x34 }
  - { offset: 0x76DC1, size: 0x8, addend: 0x0, symName: '__ZN100_$LT$core..iter..adapters..GenericShunt$LT$I$C$R$GT$$u20$as$u20$core..iter..adapters..SourceIter$GT$8as_inner17h9c5677825e0b7249E', symObjAddr: 0x0, symBinAddr: 0x26CF8, symSize: 0x24 }
  - { offset: 0x76E67, size: 0x8, addend: 0x0, symName: '__ZN100_$LT$core..iter..adapters..GenericShunt$LT$I$C$R$GT$$u20$as$u20$core..iter..adapters..SourceIter$GT$8as_inner17h9c5677825e0b7249E', symObjAddr: 0x0, symBinAddr: 0x26CF8, symSize: 0x24 }
  - { offset: 0x76EA5, size: 0x8, addend: 0x0, symName: '__ZN100_$LT$core..iter..adapters..GenericShunt$LT$I$C$R$GT$$u20$as$u20$core..iter..adapters..SourceIter$GT$8as_inner17hbefee8e08dd50364E', symObjAddr: 0x24, symBinAddr: 0x26D1C, symSize: 0x24 }
  - { offset: 0x76FBB, size: 0x8, addend: 0x0, symName: '__ZN106_$LT$core..iter..adapters..GenericShunt$LT$I$C$R$GT$$u20$as$u20$core..iter..traits..iterator..Iterator$GT$4next17h84fc5d8f7300067fE', symObjAddr: 0x48, symBinAddr: 0x26D40, symSize: 0x94 }
  - { offset: 0x7704D, size: 0x8, addend: 0x0, symName: '__ZN106_$LT$core..iter..adapters..GenericShunt$LT$I$C$R$GT$$u20$as$u20$core..iter..traits..iterator..Iterator$GT$8try_fold17h698e876abd2bf9e9E', symObjAddr: 0xDC, symBinAddr: 0x26DD4, symSize: 0x88 }
  - { offset: 0x770F9, size: 0x8, addend: 0x0, symName: '__ZN106_$LT$core..iter..adapters..GenericShunt$LT$I$C$R$GT$$u20$as$u20$core..iter..traits..iterator..Iterator$GT$8try_fold17hef632d859b640332E', symObjAddr: 0x164, symBinAddr: 0x26E5C, symSize: 0xC0 }
  - { offset: 0x771A5, size: 0x8, addend: 0x0, symName: '__ZN106_$LT$core..iter..adapters..GenericShunt$LT$I$C$R$GT$$u20$as$u20$core..iter..traits..iterator..Iterator$GT$8try_fold17hfb5e2ba471acfabbE', symObjAddr: 0x224, symBinAddr: 0x26F1C, symSize: 0xC0 }
  - { offset: 0x77256, size: 0x8, addend: 0x0, symName: '__ZN106_$LT$core..iter..adapters..GenericShunt$LT$I$C$R$GT$$u20$as$u20$core..iter..traits..iterator..Iterator$GT$8try_fold28_$u7b$$u7b$closure$u7d$$u7d$17h1e9e66762f95f33eE', symObjAddr: 0x2E4, symBinAddr: 0x26FDC, symSize: 0x1C8 }
  - { offset: 0x77350, size: 0x8, addend: 0x0, symName: '__ZN106_$LT$core..iter..adapters..GenericShunt$LT$I$C$R$GT$$u20$as$u20$core..iter..traits..iterator..Iterator$GT$8try_fold28_$u7b$$u7b$closure$u7d$$u7d$17h7ea2455d651a2b29E', symObjAddr: 0x4AC, symBinAddr: 0x271A4, symSize: 0x208 }
  - { offset: 0x77449, size: 0x8, addend: 0x0, symName: '__ZN106_$LT$core..iter..adapters..GenericShunt$LT$I$C$R$GT$$u20$as$u20$core..iter..traits..iterator..Iterator$GT$8try_fold28_$u7b$$u7b$closure$u7d$$u7d$17hae804ce1e70d9074E', symObjAddr: 0x6B4, symBinAddr: 0x273AC, symSize: 0x204 }
  - { offset: 0x77543, size: 0x8, addend: 0x0, symName: '__ZN106_$LT$core..iter..adapters..GenericShunt$LT$I$C$R$GT$$u20$as$u20$core..iter..traits..iterator..Iterator$GT$9size_hint17hc702be99528ad31bE', symObjAddr: 0x8B8, symBinAddr: 0x275B0, symSize: 0xA4 }
  - { offset: 0x775BC, size: 0x8, addend: 0x0, symName: __ZN4core4iter8adapters11try_process17h170eff079f4724afE, symObjAddr: 0x95C, symBinAddr: 0x27654, symSize: 0x168 }
  - { offset: 0x7767F, size: 0x8, addend: 0x0, symName: __ZN4core4iter8adapters11try_process17h359416c7e918ca52E, symObjAddr: 0xAC4, symBinAddr: 0x277BC, symSize: 0x18C }
  - { offset: 0x77747, size: 0x8, addend: 0x0, symName: __ZN4core4iter8adapters11try_process17h6820111e9c35a7bfE, symObjAddr: 0xC50, symBinAddr: 0x27948, symSize: 0x16C }
  - { offset: 0x778F3, size: 0x8, addend: 0x0, symName: '__ZN63_$LT$I$u20$as$u20$core..iter..traits..collect..IntoIterator$GT$9into_iter17h30b9cb9c07af3b5cE', symObjAddr: 0xDBC, symBinAddr: 0x27AB4, symSize: 0x30 }
  - { offset: 0x7792B, size: 0x8, addend: 0x0, symName: '__ZN63_$LT$I$u20$as$u20$core..iter..traits..collect..IntoIterator$GT$9into_iter17h5a0f796895c179f2E', symObjAddr: 0xDEC, symBinAddr: 0x27AE4, symSize: 0x18 }
  - { offset: 0x77962, size: 0x8, addend: 0x0, symName: '__ZN63_$LT$I$u20$as$u20$core..iter..traits..collect..IntoIterator$GT$9into_iter17h62cdb0865ea5e824E', symObjAddr: 0xE04, symBinAddr: 0x27AFC, symSize: 0x30 }
  - { offset: 0x7A5F0, size: 0x8, addend: 0x0, symName: '__ZN83_$LT$I$u20$as$u20$alloc..vec..in_place_collect..SpecInPlaceCollect$LT$T$C$I$GT$$GT$16collect_in_place17h398424dc3f3159bbE', symObjAddr: 0xE34, symBinAddr: 0x27B2C, symSize: 0xB8 }
  - { offset: 0x7A724, size: 0x8, addend: 0x0, symName: '__ZN83_$LT$I$u20$as$u20$alloc..vec..in_place_collect..SpecInPlaceCollect$LT$T$C$I$GT$$GT$16collect_in_place17h6ef53902463a6824E', symObjAddr: 0xEEC, symBinAddr: 0x27BE4, symSize: 0xB8 }
  - { offset: 0x7C7D3, size: 0x8, addend: 0x0, symName: '__ZN5alloc3vec16Vec$LT$T$C$A$GT$13from_parts_in18precondition_check17hc2282074232e3cf0E', symObjAddr: 0x0, symBinAddr: 0x27C9C, symSize: 0x60 }
  - { offset: 0x7C7F4, size: 0x8, addend: 0x0, symName: '__ZN5alloc3vec16Vec$LT$T$C$A$GT$13from_parts_in18precondition_check17hc2282074232e3cf0E', symObjAddr: 0x0, symBinAddr: 0x27C9C, symSize: 0x60 }
  - { offset: 0x7C84D, size: 0x8, addend: 0x0, symName: '__ZN5alloc3vec16Vec$LT$T$C$A$GT$7set_len18precondition_check17h3129130ff5e9c6b4E', symObjAddr: 0x60, symBinAddr: 0x27CFC, symSize: 0x60 }
  - { offset: 0x7C8F7, size: 0x8, addend: 0x0, symName: __ZN4core3ptr9alignment9Alignment13new_unchecked18precondition_check17hc7f939e133e22414E, symObjAddr: 0x0, symBinAddr: 0x27D5C, symSize: 0x70 }
  - { offset: 0x7C963, size: 0x8, addend: 0x0, symName: __ZN4core3ptr9alignment9Alignment13new_unchecked18precondition_check17hc7f939e133e22414E, symObjAddr: 0x0, symBinAddr: 0x27D5C, symSize: 0x70 }
  - { offset: 0x7CA49, size: 0x8, addend: 0x0, symName: __ZN4pyo35types4none6PyNone3get17hd9bd07222e99813bE, symObjAddr: 0x0, symBinAddr: 0x27DCC, symSize: 0x2C }
  - { offset: 0x7CD27, size: 0x8, addend: 0x0, symName: __ZN4pyo35types4none6PyNone3get17hd9bd07222e99813bE, symObjAddr: 0x0, symBinAddr: 0x27DCC, symSize: 0x2C }
  - { offset: 0x7CD72, size: 0x8, addend: 0x0, symName: '__ZN4core3ptr9const_ptr33_$LT$impl$u20$$BP$const$u20$T$GT$20offset_from_unsigned18precondition_check17hd57873aa80f1eb36E', symObjAddr: 0x0, symBinAddr: 0x27DF8, symSize: 0x60 }
  - { offset: 0x7CD98, size: 0x8, addend: 0x0, symName: '__ZN4core3ptr9const_ptr33_$LT$impl$u20$$BP$const$u20$T$GT$20offset_from_unsigned18precondition_check17hd57873aa80f1eb36E', symObjAddr: 0x0, symBinAddr: 0x27DF8, symSize: 0x60 }
  - { offset: 0x7CE81, size: 0x8, addend: 0x0, symName: '__ZN4core3ptr9const_ptr33_$LT$impl$u20$$BP$const$u20$T$GT$6offset18precondition_check17h9f336f4e21936261E', symObjAddr: 0x60, symBinAddr: 0x27E58, symSize: 0xC4 }
  - { offset: 0x7D268, size: 0x8, addend: 0x0, symName: __ZN4core4iter6traits8iterator8Iterator7collect17h794e52dfb7a7500cE, symObjAddr: 0x0, symBinAddr: 0x27F30, symSize: 0x14 }
  - { offset: 0x7D28E, size: 0x8, addend: 0x0, symName: __ZN4core4iter6traits8iterator8Iterator7collect17h794e52dfb7a7500cE, symObjAddr: 0x0, symBinAddr: 0x27F30, symSize: 0x14 }
  - { offset: 0x7D2CF, size: 0x8, addend: 0x0, symName: __ZN4core4iter6traits8iterator8Iterator9size_hint17hffe7e208856bcf27E, symObjAddr: 0x14, symBinAddr: 0x27F44, symSize: 0x34 }
  - { offset: 0x7D655, size: 0x8, addend: 0x0, symName: '__ZN4core5array69_$LT$impl$u20$core..hash..Hash$u20$for$u20$$u5b$T$u3b$$u20$N$u5d$$GT$4hash17h791ce196d2c4e75eE', symObjAddr: 0x0, symBinAddr: 0x27F78, symSize: 0x60 }
  - { offset: 0x7D6B4, size: 0x8, addend: 0x0, symName: '__ZN4core5array69_$LT$impl$u20$core..hash..Hash$u20$for$u20$$u5b$T$u3b$$u20$N$u5d$$GT$4hash17h791ce196d2c4e75eE', symObjAddr: 0x0, symBinAddr: 0x27F78, symSize: 0x60 }
  - { offset: 0x7D935, size: 0x8, addend: 0x0, symName: '__ZN4core3str6traits108_$LT$impl$u20$core..slice..index..SliceIndex$LT$str$GT$$u20$for$u20$core..ops..range..Range$LT$usize$GT$$GT$13get_unchecked18precondition_check17h8f0996b402ec3180E', symObjAddr: 0x0, symBinAddr: 0x27FD8, symSize: 0x80 }
  - { offset: 0x7D95B, size: 0x8, addend: 0x0, symName: '__ZN4core3str6traits108_$LT$impl$u20$core..slice..index..SliceIndex$LT$str$GT$$u20$for$u20$core..ops..range..Range$LT$usize$GT$$GT$13get_unchecked18precondition_check17h8f0996b402ec3180E', symObjAddr: 0x0, symBinAddr: 0x27FD8, symSize: 0x80 }
  - { offset: 0x7D9C3, size: 0x8, addend: 0x0, symName: '__ZN4core3str6traits54_$LT$impl$u20$core..cmp..PartialEq$u20$for$u20$str$GT$2eq17h6df16242103586e0E', symObjAddr: 0x80, symBinAddr: 0x28058, symSize: 0x4C }
  - { offset: 0x7DBB8, size: 0x8, addend: 0x0, symName: '__ZN6anyhow3ptr12Own$LT$T$GT$3new17h068eab076b6379c6E', symObjAddr: 0x0, symBinAddr: 0x280A4, symSize: 0x30 }
  - { offset: 0x7FF26, size: 0x8, addend: 0x0, symName: '__ZN6anyhow3ptr12Own$LT$T$GT$3new17h068eab076b6379c6E', symObjAddr: 0x0, symBinAddr: 0x280A4, symSize: 0x30 }
  - { offset: 0x7FFB3, size: 0x8, addend: 0x0, symName: '__ZN6anyhow3ptr12Own$LT$T$GT$3new17h5a98b584bf7d7b13E', symObjAddr: 0x30, symBinAddr: 0x280D4, symSize: 0x30 }
  - { offset: 0x8019C, size: 0x8, addend: 0x0, symName: '__ZN6anyhow3ptr12Own$LT$T$GT$3new17h78deb581228c29f0E', symObjAddr: 0x60, symBinAddr: 0x28104, symSize: 0x30 }
  - { offset: 0x80261, size: 0x8, addend: 0x0, symName: '__ZN6anyhow3ptr12Own$LT$T$GT$3new17hd1f910446858899aE', symObjAddr: 0x90, symBinAddr: 0x28134, symSize: 0x30 }
  - { offset: 0x8034D, size: 0x8, addend: 0x0, symName: '__ZN6anyhow3ptr12Own$LT$T$GT$3new17hddccfabbb5f5f6abE', symObjAddr: 0xC0, symBinAddr: 0x28164, symSize: 0x30 }
  - { offset: 0x80385, size: 0x8, addend: 0x0, symName: '__ZN6anyhow3ptr12Own$LT$T$GT$4cast17h1020f800cc37d825E', symObjAddr: 0xF0, symBinAddr: 0x28194, symSize: 0x24 }
  - { offset: 0x803B9, size: 0x8, addend: 0x0, symName: '__ZN6anyhow3ptr12Own$LT$T$GT$4cast17h14d0633c38a10baeE', symObjAddr: 0x114, symBinAddr: 0x281B8, symSize: 0x24 }
  - { offset: 0x803ED, size: 0x8, addend: 0x0, symName: '__ZN6anyhow3ptr12Own$LT$T$GT$4cast17h250cc86ef7f82dadE', symObjAddr: 0x138, symBinAddr: 0x281DC, symSize: 0x24 }
  - { offset: 0x80421, size: 0x8, addend: 0x0, symName: '__ZN6anyhow3ptr12Own$LT$T$GT$4cast17h2ad9a36d3896f7bfE', symObjAddr: 0x15C, symBinAddr: 0x28200, symSize: 0x24 }
  - { offset: 0x80455, size: 0x8, addend: 0x0, symName: '__ZN6anyhow3ptr12Own$LT$T$GT$4cast17h6f816262e0fd6494E', symObjAddr: 0x180, symBinAddr: 0x28224, symSize: 0x24 }
  - { offset: 0x80489, size: 0x8, addend: 0x0, symName: '__ZN6anyhow3ptr12Own$LT$T$GT$4cast17h70b4af0ac3e70e76E', symObjAddr: 0x1A4, symBinAddr: 0x28248, symSize: 0x24 }
  - { offset: 0x804BD, size: 0x8, addend: 0x0, symName: '__ZN6anyhow3ptr12Own$LT$T$GT$4cast17h895be81bcb4bcf87E', symObjAddr: 0x1C8, symBinAddr: 0x2826C, symSize: 0x24 }
  - { offset: 0x804FE, size: 0x8, addend: 0x0, symName: '__ZN6anyhow3ptr12Own$LT$T$GT$4cast17h985099cb04bb464aE', symObjAddr: 0x1EC, symBinAddr: 0x28290, symSize: 0x24 }
  - { offset: 0x80532, size: 0x8, addend: 0x0, symName: '__ZN6anyhow3ptr12Own$LT$T$GT$4cast17hc4d1785b707a3eacE', symObjAddr: 0x210, symBinAddr: 0x282B4, symSize: 0x24 }
  - { offset: 0x80573, size: 0x8, addend: 0x0, symName: '__ZN6anyhow3ptr12Own$LT$T$GT$4cast17hc51a82e45af54131E', symObjAddr: 0x234, symBinAddr: 0x282D8, symSize: 0x24 }
  - { offset: 0x805A7, size: 0x8, addend: 0x0, symName: '__ZN6anyhow3ptr12Own$LT$T$GT$4cast17hc81073cd2f28614fE', symObjAddr: 0x258, symBinAddr: 0x282FC, symSize: 0x24 }
  - { offset: 0x805E8, size: 0x8, addend: 0x0, symName: '__ZN6anyhow3ptr12Own$LT$T$GT$4cast17hc9fde3b93047c38dE', symObjAddr: 0x27C, symBinAddr: 0x28320, symSize: 0x24 }
  - { offset: 0x8061C, size: 0x8, addend: 0x0, symName: '__ZN6anyhow3ptr12Own$LT$T$GT$4cast17hd3c27157450ea674E', symObjAddr: 0x2A0, symBinAddr: 0x28344, symSize: 0x24 }
  - { offset: 0x8065D, size: 0x8, addend: 0x0, symName: '__ZN6anyhow3ptr12Own$LT$T$GT$4cast17hd6994bc5ca4f67aaE', symObjAddr: 0x2C4, symBinAddr: 0x28368, symSize: 0x24 }
  - { offset: 0x80691, size: 0x8, addend: 0x0, symName: '__ZN6anyhow3ptr12Own$LT$T$GT$4cast17hf59775ac8cb7e68dE', symObjAddr: 0x2E8, symBinAddr: 0x2838C, symSize: 0x24 }
  - { offset: 0x806D2, size: 0x8, addend: 0x0, symName: '__ZN6anyhow3ptr12Own$LT$T$GT$4cast17hfe2c55a2c4b092beE', symObjAddr: 0x30C, symBinAddr: 0x283B0, symSize: 0x24 }
  - { offset: 0x80706, size: 0x8, addend: 0x0, symName: '__ZN6anyhow3ptr12Own$LT$T$GT$5boxed17h3796096662326fdcE', symObjAddr: 0x330, symBinAddr: 0x283D4, symSize: 0x2C }
  - { offset: 0x80731, size: 0x8, addend: 0x0, symName: '__ZN6anyhow3ptr12Own$LT$T$GT$5boxed17h3b79b6b011d2b6bcE', symObjAddr: 0x35C, symBinAddr: 0x28400, symSize: 0x2C }
  - { offset: 0x80769, size: 0x8, addend: 0x0, symName: '__ZN6anyhow3ptr12Own$LT$T$GT$5boxed17h45e8ea3a8f6ecf96E', symObjAddr: 0x388, symBinAddr: 0x2842C, symSize: 0x2C }
  - { offset: 0x807A1, size: 0x8, addend: 0x0, symName: '__ZN6anyhow3ptr12Own$LT$T$GT$5boxed17h54c33e4ed532eac8E', symObjAddr: 0x3B4, symBinAddr: 0x28458, symSize: 0x2C }
  - { offset: 0x807CC, size: 0x8, addend: 0x0, symName: '__ZN6anyhow3ptr12Own$LT$T$GT$5boxed17h82d3f76c66bf79b5E', symObjAddr: 0x3E0, symBinAddr: 0x28484, symSize: 0x2C }
  - { offset: 0x807F7, size: 0x8, addend: 0x0, symName: '__ZN6anyhow3ptr12Own$LT$T$GT$5boxed17hb4d2871f47cc773fE', symObjAddr: 0x40C, symBinAddr: 0x284B0, symSize: 0x2C }
  - { offset: 0x80822, size: 0x8, addend: 0x0, symName: '__ZN6anyhow3ptr12Own$LT$T$GT$5boxed17hcff66ef96e480ad7E', symObjAddr: 0x438, symBinAddr: 0x284DC, symSize: 0x2C }
  - { offset: 0x8085A, size: 0x8, addend: 0x0, symName: '__ZN6anyhow3ptr12Own$LT$T$GT$5boxed17hd24c26dcf7353a12E', symObjAddr: 0x464, symBinAddr: 0x28508, symSize: 0x2C }
  - { offset: 0x80892, size: 0x8, addend: 0x0, symName: '__ZN6anyhow3ptr12Own$LT$T$GT$5boxed17hd5155230e4d0a308E', symObjAddr: 0x490, symBinAddr: 0x28534, symSize: 0x2C }
  - { offset: 0x808CA, size: 0x8, addend: 0x0, symName: '__ZN6anyhow3ptr12Own$LT$T$GT$5boxed17hed9cbc03a0a797d3E', symObjAddr: 0x4BC, symBinAddr: 0x28560, symSize: 0x2C }
  - { offset: 0x80902, size: 0x8, addend: 0x0, symName: '__ZN6anyhow3ptr12Own$LT$T$GT$5boxed17hf49fb782e5fd16bcE', symObjAddr: 0x4E8, symBinAddr: 0x2858C, symSize: 0x2C }
  - { offset: 0x80947, size: 0x8, addend: 0x0, symName: '__ZN6anyhow3ptr12Ref$LT$T$GT$3new17h112b37e52cf86532E', symObjAddr: 0x514, symBinAddr: 0x285B8, symSize: 0x24 }
  - { offset: 0x8097F, size: 0x8, addend: 0x0, symName: '__ZN6anyhow3ptr12Ref$LT$T$GT$3new17h2e4ca464ae466b72E', symObjAddr: 0x538, symBinAddr: 0x285DC, symSize: 0x24 }
  - { offset: 0x809C4, size: 0x8, addend: 0x0, symName: '__ZN6anyhow3ptr12Ref$LT$T$GT$3new17h6dbd4548160b0676E', symObjAddr: 0x55C, symBinAddr: 0x28600, symSize: 0x24 }
  - { offset: 0x809FC, size: 0x8, addend: 0x0, symName: '__ZN6anyhow3ptr12Ref$LT$T$GT$3new17h8824c1df3e71172bE', symObjAddr: 0x580, symBinAddr: 0x28624, symSize: 0x24 }
  - { offset: 0x80A34, size: 0x8, addend: 0x0, symName: '__ZN6anyhow3ptr12Ref$LT$T$GT$3new17ha759e2f23752cbcbE', symObjAddr: 0x5A4, symBinAddr: 0x28648, symSize: 0x24 }
  - { offset: 0x80A6C, size: 0x8, addend: 0x0, symName: '__ZN6anyhow3ptr12Ref$LT$T$GT$3new17he31ad7f41ad7636dE', symObjAddr: 0x5C8, symBinAddr: 0x2866C, symSize: 0x24 }
  - { offset: 0x80AA4, size: 0x8, addend: 0x0, symName: '__ZN6anyhow3ptr12Ref$LT$T$GT$3new17he8ecaa5774d989faE', symObjAddr: 0x5EC, symBinAddr: 0x28690, symSize: 0x24 }
  - { offset: 0x80ACF, size: 0x8, addend: 0x0, symName: '__ZN6anyhow3ptr12Ref$LT$T$GT$4cast17h0abe8f2a21830946E', symObjAddr: 0x610, symBinAddr: 0x286B4, symSize: 0x24 }
  - { offset: 0x80B03, size: 0x8, addend: 0x0, symName: '__ZN6anyhow3ptr12Ref$LT$T$GT$4cast17h184823937c3cf028E', symObjAddr: 0x634, symBinAddr: 0x286D8, symSize: 0x24 }
  - { offset: 0x80B37, size: 0x8, addend: 0x0, symName: '__ZN6anyhow3ptr12Ref$LT$T$GT$4cast17h1f4603dc026516ffE', symObjAddr: 0x658, symBinAddr: 0x286FC, symSize: 0x24 }
  - { offset: 0x80B6B, size: 0x8, addend: 0x0, symName: '__ZN6anyhow3ptr12Ref$LT$T$GT$4cast17h2e151f2b7fe3f161E', symObjAddr: 0x67C, symBinAddr: 0x28720, symSize: 0x24 }
  - { offset: 0x80BB9, size: 0x8, addend: 0x0, symName: '__ZN6anyhow3ptr12Ref$LT$T$GT$4cast17h2f745313d4a5f328E', symObjAddr: 0x6A0, symBinAddr: 0x28744, symSize: 0x24 }
  - { offset: 0x80BED, size: 0x8, addend: 0x0, symName: '__ZN6anyhow3ptr12Ref$LT$T$GT$4cast17h328276a4766f8744E', symObjAddr: 0x6C4, symBinAddr: 0x28768, symSize: 0x24 }
  - { offset: 0x80C21, size: 0x8, addend: 0x0, symName: '__ZN6anyhow3ptr12Ref$LT$T$GT$4cast17h4493f4b2b5f76f7dE', symObjAddr: 0x6E8, symBinAddr: 0x2878C, symSize: 0x24 }
  - { offset: 0x80C6F, size: 0x8, addend: 0x0, symName: '__ZN6anyhow3ptr12Ref$LT$T$GT$4cast17h50c9a6c31a32ab73E', symObjAddr: 0x70C, symBinAddr: 0x287B0, symSize: 0x24 }
  - { offset: 0x80CBD, size: 0x8, addend: 0x0, symName: '__ZN6anyhow3ptr12Ref$LT$T$GT$4cast17h5fcedca3bf5b0ca7E', symObjAddr: 0x730, symBinAddr: 0x287D4, symSize: 0x24 }
  - { offset: 0x80CF1, size: 0x8, addend: 0x0, symName: '__ZN6anyhow3ptr12Ref$LT$T$GT$4cast17h708a2d053961dd6eE', symObjAddr: 0x754, symBinAddr: 0x287F8, symSize: 0x24 }
  - { offset: 0x80D25, size: 0x8, addend: 0x0, symName: '__ZN6anyhow3ptr12Ref$LT$T$GT$4cast17h9e77c3c296f45ea0E', symObjAddr: 0x778, symBinAddr: 0x2881C, symSize: 0x24 }
  - { offset: 0x80D59, size: 0x8, addend: 0x0, symName: '__ZN6anyhow3ptr12Ref$LT$T$GT$4cast17ha0e69d10a15c5a62E', symObjAddr: 0x79C, symBinAddr: 0x28840, symSize: 0x24 }
  - { offset: 0x80D8D, size: 0x8, addend: 0x0, symName: '__ZN6anyhow3ptr12Ref$LT$T$GT$4cast17ha78f1f5083aa526dE', symObjAddr: 0x7C0, symBinAddr: 0x28864, symSize: 0x24 }
  - { offset: 0x80DC1, size: 0x8, addend: 0x0, symName: '__ZN6anyhow3ptr12Ref$LT$T$GT$4cast17ha81cc0e192277105E', symObjAddr: 0x7E4, symBinAddr: 0x28888, symSize: 0x24 }
  - { offset: 0x80E0F, size: 0x8, addend: 0x0, symName: '__ZN6anyhow3ptr12Ref$LT$T$GT$4cast17hf6ec645b06f8c0dfE', symObjAddr: 0x808, symBinAddr: 0x288AC, symSize: 0x24 }
  - { offset: 0x80E43, size: 0x8, addend: 0x0, symName: '__ZN6anyhow3ptr12Ref$LT$T$GT$5deref17h1c77660d6861666cE', symObjAddr: 0x82C, symBinAddr: 0x288D0, symSize: 0x1C }
  - { offset: 0x80E6E, size: 0x8, addend: 0x0, symName: '__ZN6anyhow3ptr12Ref$LT$T$GT$6as_ptr17h29e392cc4a59b0bfE', symObjAddr: 0x848, symBinAddr: 0x288EC, symSize: 0x1C }
  - { offset: 0x80E99, size: 0x8, addend: 0x0, symName: '__ZN6anyhow3ptr12Ref$LT$T$GT$6as_ptr17h44f2b6ef2c4f7753E', symObjAddr: 0x864, symBinAddr: 0x28908, symSize: 0x1C }
  - { offset: 0x80EC4, size: 0x8, addend: 0x0, symName: '__ZN6anyhow3ptr12Ref$LT$T$GT$6as_ptr17h52de354f56b8f9b1E', symObjAddr: 0x880, symBinAddr: 0x28924, symSize: 0x1C }
  - { offset: 0x80EEF, size: 0x8, addend: 0x0, symName: '__ZN6anyhow3ptr12Ref$LT$T$GT$6as_ptr17hd94aca5f3556af05E', symObjAddr: 0x89C, symBinAddr: 0x28940, symSize: 0x1C }
  - { offset: 0x80F1A, size: 0x8, addend: 0x0, symName: '__ZN6anyhow3ptr12Ref$LT$T$GT$6as_ptr17hf93eefff153f8f82E', symObjAddr: 0x8B8, symBinAddr: 0x2895C, symSize: 0x1C }
  - { offset: 0x80F45, size: 0x8, addend: 0x0, symName: '__ZN6anyhow3ptr12Ref$LT$T$GT$8from_raw17h0772d1afce0c0093E', symObjAddr: 0x8D4, symBinAddr: 0x28978, symSize: 0x14 }
  - { offset: 0x80F70, size: 0x8, addend: 0x0, symName: '__ZN6anyhow3ptr12Ref$LT$T$GT$8from_raw17h6a50469315145131E', symObjAddr: 0x8E8, symBinAddr: 0x2898C, symSize: 0x14 }
  - { offset: 0x80F9B, size: 0x8, addend: 0x0, symName: '__ZN6anyhow3ptr12Ref$LT$T$GT$8from_raw17hb33c3a211f6e7fd4E', symObjAddr: 0x8FC, symBinAddr: 0x289A0, symSize: 0x14 }
  - { offset: 0x80FC6, size: 0x8, addend: 0x0, symName: '__ZN6anyhow3ptr12Ref$LT$T$GT$8from_raw17hd72158f1d6b8dd7bE', symObjAddr: 0x910, symBinAddr: 0x289B4, symSize: 0x14 }
  - { offset: 0x8100F, size: 0x8, addend: 0x0, symName: '__ZN14regex_automata4util4pool17Pool$LT$T$C$F$GT$3get17hdda1dd2f51c743b7E', symObjAddr: 0x0, symBinAddr: 0x289C8, symSize: 0x90 }
  - { offset: 0x82B17, size: 0x8, addend: 0x0, symName: '__ZN14regex_automata4util4pool17Pool$LT$T$C$F$GT$3get17hdda1dd2f51c743b7E', symObjAddr: 0x0, symBinAddr: 0x289C8, symSize: 0x90 }
  - { offset: 0x82B4B, size: 0x8, addend: 0x0, symName: '__ZN14regex_automata4util4pool22PoolGuard$LT$T$C$F$GT$3put17h1f9d75fc6671aee3E', symObjAddr: 0x90, symBinAddr: 0x28A58, symSize: 0x34 }
  - { offset: 0x82B9E, size: 0x8, addend: 0x0, symName: '__ZN4core3str21_$LT$impl$u20$str$GT$20make_ascii_lowercase17h969aa1d59f4e6711E', symObjAddr: 0x0, symBinAddr: 0x28A8C, symSize: 0xF0 }
  - { offset: 0x82BD8, size: 0x8, addend: 0x0, symName: '__ZN4core3str21_$LT$impl$u20$str$GT$20make_ascii_lowercase17h969aa1d59f4e6711E', symObjAddr: 0x0, symBinAddr: 0x28A8C, symSize: 0xF0 }
  - { offset: 0x82CB1, size: 0x8, addend: 0x0, symName: '__ZN4core3str21_$LT$impl$u20$str$GT$3len17he97669aa342a56daE', symObjAddr: 0xF0, symBinAddr: 0x28B7C, symSize: 0x1C }
  - { offset: 0x82CDD, size: 0x8, addend: 0x0, symName: '__ZN4core3str21_$LT$impl$u20$str$GT$4trim17h11ff9d8469f76ad5E', symObjAddr: 0x10C, symBinAddr: 0x28B98, symSize: 0x28 }
  - { offset: 0x82D0B, size: 0x8, addend: 0x0, symName: '__ZN4core3str21_$LT$impl$u20$str$GT$5chars17hefdac7105c72bccaE', symObjAddr: 0x134, symBinAddr: 0x28BC0, symSize: 0x20 }
  - { offset: 0x82D79, size: 0x8, addend: 0x0, symName: '__ZN4core3str21_$LT$impl$u20$str$GT$8is_empty17h87ce7374546fe8dbE', symObjAddr: 0x154, symBinAddr: 0x28BE0, symSize: 0x1C }
  - { offset: 0x82DAB, size: 0x8, addend: 0x0, symName: '__ZN4core3str74_$LT$impl$u20$core..convert..AsRef$LT$$u5b$u8$u5d$$GT$$u20$for$u20$str$GT$6as_ref17hb89e551c4924640eE', symObjAddr: 0x170, symBinAddr: 0x28BFC, symSize: 0x18 }
  - { offset: 0x8307B, size: 0x8, addend: 0x0, symName: '__ZN68_$LT$font_types..name_id..NameId$u20$as$u20$core..cmp..PartialEq$GT$2eq17hfe75353dec4e7ad1E', symObjAddr: 0x0, symBinAddr: 0x28C14, symSize: 0x2C }
  - { offset: 0x83097, size: 0x8, addend: 0x0, symName: '__ZN68_$LT$font_types..name_id..NameId$u20$as$u20$core..cmp..PartialEq$GT$2eq17hfe75353dec4e7ad1E', symObjAddr: 0x0, symBinAddr: 0x28C14, symSize: 0x2C }
  - { offset: 0x83122, size: 0x8, addend: 0x0, symName: __ZN14regex_automata4meta5regex5Regex11search_half17h8aae71edc33f5cb2E, symObjAddr: 0x0, symBinAddr: 0x28C40, symSize: 0x368 }
  - { offset: 0x857D1, size: 0x8, addend: 0x0, symName: __ZN14regex_automata4meta5regex5Regex11search_half17h8aae71edc33f5cb2E, symObjAddr: 0x0, symBinAddr: 0x28C40, symSize: 0x368 }
  - { offset: 0x8595A, size: 0x8, addend: 0x0, symName: '__ZN51_$LT$T$u20$as$u20$core..borrow..Borrow$LT$T$GT$$GT$6borrow17h0ec749d540ff39e0E', symObjAddr: 0x0, symBinAddr: 0x28FA8, symSize: 0x14 }
  - { offset: 0x85976, size: 0x8, addend: 0x0, symName: '__ZN51_$LT$T$u20$as$u20$core..borrow..Borrow$LT$T$GT$$GT$6borrow17h0ec749d540ff39e0E', symObjAddr: 0x0, symBinAddr: 0x28FA8, symSize: 0x14 }
  - { offset: 0x859AB, size: 0x8, addend: 0x0, symName: '__ZN51_$LT$T$u20$as$u20$core..borrow..Borrow$LT$T$GT$$GT$6borrow17h12cca87e75bd95cdE', symObjAddr: 0x14, symBinAddr: 0x28FBC, symSize: 0x14 }
  - { offset: 0x859E6, size: 0x8, addend: 0x0, symName: '__ZN55_$LT$$RF$T$u20$as$u20$core..borrow..Borrow$LT$T$GT$$GT$6borrow17h388d82a5af341db8E', symObjAddr: 0x28, symBinAddr: 0x28FD0, symSize: 0x20 }
  - { offset: 0x85A92, size: 0x8, addend: 0x0, symName: __ZN4core5alloc6layout6Layout25from_size_align_unchecked18precondition_check17h3926074a94c26068E, symObjAddr: 0x0, symBinAddr: 0x28FF0, symSize: 0xBC }
  - { offset: 0x85EBA, size: 0x8, addend: 0x0, symName: __ZN4core5alloc6layout6Layout25from_size_align_unchecked18precondition_check17h3926074a94c26068E, symObjAddr: 0x0, symBinAddr: 0x28FF0, symSize: 0xBC }
  - { offset: 0x8611D, size: 0x8, addend: 0x0, symName: '__ZN58_$LT$walkdir..error..Error$u20$as$u20$core..fmt..Debug$GT$3fmt17hcd1cc2458d359224E', symObjAddr: 0x0, symBinAddr: 0x290AC, symSize: 0x80 }
  - { offset: 0x861CE, size: 0x8, addend: 0x0, symName: '__ZN58_$LT$walkdir..error..Error$u20$as$u20$core..fmt..Debug$GT$3fmt17hcd1cc2458d359224E', symObjAddr: 0x0, symBinAddr: 0x290AC, symSize: 0x80 }
  - { offset: 0x86902, size: 0x8, addend: 0x0, symName: '__ZN4core3ops8function5impls71_$LT$impl$u20$core..ops..function..FnMut$LT$A$GT$$u20$for$u20$$RF$F$GT$8call_mut17h69aa1650d17dc3c3E', symObjAddr: 0x0, symBinAddr: 0x2912C, symSize: 0x40 }
  - { offset: 0x86946, size: 0x8, addend: 0x0, symName: '__ZN4core3ops8function5impls71_$LT$impl$u20$core..ops..function..FnMut$LT$A$GT$$u20$for$u20$$RF$F$GT$8call_mut17h69aa1650d17dc3c3E', symObjAddr: 0x0, symBinAddr: 0x2912C, symSize: 0x40 }
  - { offset: 0x8717F, size: 0x8, addend: 0x0, symName: '__ZN5rayon6result138_$LT$impl$u20$rayon..iter..FromParallelIterator$LT$core..result..Result$LT$T$C$E$GT$$GT$$u20$for$u20$core..result..Result$LT$C$C$E$GT$$GT$13from_par_iter2ok17h9ca5e0f61b65713eE', symObjAddr: 0x40, symBinAddr: 0x2916C, symSize: 0x14 }
  - { offset: 0x871C2, size: 0x8, addend: 0x0, symName: '__ZN5rayon6result138_$LT$impl$u20$rayon..iter..FromParallelIterator$LT$core..result..Result$LT$T$C$E$GT$$GT$$u20$for$u20$core..result..Result$LT$C$C$E$GT$$GT$13from_par_iter2ok28_$u7b$$u7b$closure$u7d$$u7d$17h99b2af7b49d0510cE', symObjAddr: 0x54, symBinAddr: 0x29180, symSize: 0x248 }
  - { offset: 0x8B480, size: 0x8, addend: 0x0, symName: '__ZN72_$LT$typg_core..search..TypgFontSource$u20$as$u20$core..clone..Clone$GT$5clone17h0315ff45f41293f9E', symObjAddr: 0x180, symBinAddr: 0x293C8, symSize: 0x90 }
  - { offset: 0x8B4B2, size: 0x8, addend: 0x0, symName: '__ZN74_$LT$typg_core..search..TypgFontFaceMeta$u20$as$u20$core..clone..Clone$GT$5clone17h763666bd65de35e0E', symObjAddr: 0x210, symBinAddr: 0x29458, symSize: 0x2C4 }
  - { offset: 0x8B4E4, size: 0x8, addend: 0x0, symName: '__ZN75_$LT$typg_core..search..TypgFontFaceMatch$u20$as$u20$core..clone..Clone$GT$5clone17h77a15de2d9040097E', symObjAddr: 0x4D4, symBinAddr: 0x2971C, symSize: 0x98 }
  - { offset: 0x8B511, size: 0x8, addend: 0x0, symName: __ZN9typg_core6search10dedup_tags17he8b477f393c45282E, symObjAddr: 0x56C, symBinAddr: 0x297B4, symSize: 0x34 }
  - { offset: 0x8B53B, size: 0x8, addend: 0x0, symName: __ZN9typg_core6search11dedup_names17ha42d4763e693c52cE, symObjAddr: 0x5A0, symBinAddr: 0x297E8, symSize: 0x264 }
  - { offset: 0x8B5A6, size: 0x8, addend: 0x0, symName: __ZN9typg_core6search12collect_axes17h78cacf4277ea0c8cE, symObjAddr: 0x804, symBinAddr: 0x29A4C, symSize: 0xA0 }
  - { offset: 0x8B608, size: 0x8, addend: 0x0, symName: __ZN9typg_core6search12sort_matches17hc600299e830def73E, symObjAddr: 0x8A4, symBinAddr: 0x29AEC, symSize: 0x28 }
  - { offset: 0x8B632, size: 0x8, addend: 0x0, symName: __ZN9typg_core6search13collect_names17hb994f571f26953e8E, symObjAddr: 0x8CC, symBinAddr: 0x29B14, symSize: 0x320 }
  - { offset: 0x8B72E, size: 0x8, addend: 0x0, symName: __ZN9typg_core6search13filter_cached17hf4df0de9518e6e0dE, symObjAddr: 0xBEC, symBinAddr: 0x29E34, symSize: 0xC4 }
  - { offset: 0x8B77E, size: 0x8, addend: 0x0, symName: __ZN9typg_core6search13load_metadata17h8b1235aba4cab0e5E, symObjAddr: 0xCB0, symBinAddr: 0x29EF8, symSize: 0xA14 }
  - { offset: 0x8BA7A, size: 0x8, addend: 0x0, symName: __ZN9typg_core6search14collect_tables17h8237312863f52c3cE, symObjAddr: 0x17C4, symBinAddr: 0x2AA0C, symSize: 0x38 }
  - { offset: 0x8BAA8, size: 0x8, addend: 0x0, symName: __ZN9typg_core6search15collect_scripts17hce952099a27a9ebcE, symObjAddr: 0x17FC, symBinAddr: 0x2AA44, symSize: 0x208 }
  - { offset: 0x8BB58, size: 0x8, addend: 0x0, symName: __ZN9typg_core6search16collect_features17hf3e9a7504f7516bdE, symObjAddr: 0x1A04, symBinAddr: 0x2AC4C, symSize: 0x208 }
  - { offset: 0x8BC08, size: 0x8, addend: 0x0, symName: __ZN9typg_core6search16dedup_codepoints17h29576c69d76cb3cfE, symObjAddr: 0x1C0C, symBinAddr: 0x2AE54, symSize: 0x34 }
  - { offset: 0x8BC32, size: 0x8, addend: 0x0, symName: __ZN9typg_core6search18collect_codepoints17h8341e7dcb23d63abE, symObjAddr: 0x1C40, symBinAddr: 0x2AE88, symSize: 0x14C }
  - { offset: 0x8BCB9, size: 0x8, addend: 0x0, symName: __ZN9typg_core6search21collect_creator_names17hdbedc67b0bcc8b7aE, symObjAddr: 0x1D8C, symBinAddr: 0x2AFD4, symSize: 0x324 }
  - { offset: 0x8BDB5, size: 0x8, addend: 0x0, symName: __ZN9typg_core6search21collect_license_names17h0bc4ddbd5b80c956E, symObjAddr: 0x20B0, symBinAddr: 0x2B2F8, symSize: 0x2F4 }
  - { offset: 0x8BEB1, size: 0x8, addend: 0x0, symName: __ZN9typg_core6search22collect_classification17h90b8fbc741b44b44E, symObjAddr: 0x23A4, symBinAddr: 0x2B5EC, symSize: 0x120 }
  - { offset: 0x8BF58, size: 0x8, addend: 0x0, symName: __ZN9typg_core6search6search17hb701309a2255cfc4E, symObjAddr: 0x24C4, symBinAddr: 0x2B70C, symSize: 0x268 }
  - { offset: 0x8D26B, size: 0x8, addend: 0x0, symName: __ZN9typg_core6search14TypgFontSource15path_with_index17hb8127d7350cd7859E, symObjAddr: 0x16C4, symBinAddr: 0x2A90C, symSize: 0x100 }
  - { offset: 0x8E3AA, size: 0x8, addend: 0x0, symName: '__ZN5alloc3vec16Vec$LT$T$C$A$GT$7set_len18precondition_check17h61b25cbde603125aE', symObjAddr: 0x0, symBinAddr: 0x2B974, symSize: 0x60 }
  - { offset: 0x8E3CB, size: 0x8, addend: 0x0, symName: '__ZN5alloc3vec16Vec$LT$T$C$A$GT$7set_len18precondition_check17h61b25cbde603125aE', symObjAddr: 0x0, symBinAddr: 0x2B974, symSize: 0x60 }
  - { offset: 0x8E475, size: 0x8, addend: 0x0, symName: __ZN3std5panic12catch_unwind17h01300c19f6ba5b56E, symObjAddr: 0x0, symBinAddr: 0x2B9D4, symSize: 0x118 }
  - { offset: 0x942C0, size: 0x8, addend: 0x0, symName: __ZN3std5panic12catch_unwind17h01300c19f6ba5b56E, symObjAddr: 0x0, symBinAddr: 0x2B9D4, symSize: 0x118 }
  - { offset: 0x9441C, size: 0x8, addend: 0x0, symName: __ZN3std5panic12catch_unwind17h0480535acc21d421E, symObjAddr: 0x118, symBinAddr: 0x2BAEC, symSize: 0x104 }
  - { offset: 0x94577, size: 0x8, addend: 0x0, symName: __ZN3std5panic12catch_unwind17h0c4ba9f03cc8439aE, symObjAddr: 0x21C, symBinAddr: 0x2BBF0, symSize: 0x118 }
  - { offset: 0x946D3, size: 0x8, addend: 0x0, symName: __ZN3std5panic12catch_unwind17h12314788a1bc14c0E, symObjAddr: 0x334, symBinAddr: 0x2BD08, symSize: 0x104 }
  - { offset: 0x9482E, size: 0x8, addend: 0x0, symName: __ZN3std5panic12catch_unwind17h1520f1172cc962a4E, symObjAddr: 0x438, symBinAddr: 0x2BE0C, symSize: 0x118 }
  - { offset: 0x9498A, size: 0x8, addend: 0x0, symName: __ZN3std5panic12catch_unwind17h2ee1da6fd9c3c743E, symObjAddr: 0x550, symBinAddr: 0x2BF24, symSize: 0x104 }
  - { offset: 0x94AE5, size: 0x8, addend: 0x0, symName: __ZN3std5panic12catch_unwind17h35354e18603b208fE, symObjAddr: 0x654, symBinAddr: 0x2C028, symSize: 0x104 }
  - { offset: 0x94C40, size: 0x8, addend: 0x0, symName: __ZN3std5panic12catch_unwind17h3d5fdf70db6258e4E, symObjAddr: 0x758, symBinAddr: 0x2C12C, symSize: 0x104 }
  - { offset: 0x94D9B, size: 0x8, addend: 0x0, symName: __ZN3std5panic12catch_unwind17h3dcc81058b86d509E, symObjAddr: 0x85C, symBinAddr: 0x2C230, symSize: 0x118 }
  - { offset: 0x94EF7, size: 0x8, addend: 0x0, symName: __ZN3std5panic12catch_unwind17h4062be652d4f4ce3E, symObjAddr: 0x974, symBinAddr: 0x2C348, symSize: 0xD0 }
  - { offset: 0x9501C, size: 0x8, addend: 0x0, symName: __ZN3std5panic12catch_unwind17h43499e2f5c1cdf24E, symObjAddr: 0xA44, symBinAddr: 0x2C418, symSize: 0x104 }
  - { offset: 0x95177, size: 0x8, addend: 0x0, symName: __ZN3std5panic12catch_unwind17h491e432866c23863E, symObjAddr: 0xB48, symBinAddr: 0x2C51C, symSize: 0x104 }
  - { offset: 0x952D2, size: 0x8, addend: 0x0, symName: __ZN3std5panic12catch_unwind17h5864933f2504f9dbE, symObjAddr: 0xC4C, symBinAddr: 0x2C620, symSize: 0xD0 }
  - { offset: 0x953F7, size: 0x8, addend: 0x0, symName: __ZN3std5panic12catch_unwind17h75553fc9b9258690E, symObjAddr: 0xD1C, symBinAddr: 0x2C6F0, symSize: 0x118 }
  - { offset: 0x95553, size: 0x8, addend: 0x0, symName: __ZN3std5panic12catch_unwind17h8a1126e290d29837E, symObjAddr: 0xE34, symBinAddr: 0x2C808, symSize: 0x104 }
  - { offset: 0x956AE, size: 0x8, addend: 0x0, symName: __ZN3std5panic12catch_unwind17h90dbb2a872f5b8f0E, symObjAddr: 0xF38, symBinAddr: 0x2C90C, symSize: 0x104 }
  - { offset: 0x95809, size: 0x8, addend: 0x0, symName: __ZN3std5panic12catch_unwind17h90dd7f3667b11977E, symObjAddr: 0x103C, symBinAddr: 0x2CA10, symSize: 0x118 }
  - { offset: 0x95965, size: 0x8, addend: 0x0, symName: __ZN3std5panic12catch_unwind17h936934fbec8b55f0E, symObjAddr: 0x1154, symBinAddr: 0x2CB28, symSize: 0x104 }
  - { offset: 0x95AC0, size: 0x8, addend: 0x0, symName: __ZN3std5panic12catch_unwind17h9dfec288247ec144E, symObjAddr: 0x1258, symBinAddr: 0x2CC2C, symSize: 0x104 }
  - { offset: 0x95C1B, size: 0x8, addend: 0x0, symName: __ZN3std5panic12catch_unwind17ha6a21ea27a1bb074E, symObjAddr: 0x135C, symBinAddr: 0x2CD30, symSize: 0x118 }
  - { offset: 0x95D77, size: 0x8, addend: 0x0, symName: __ZN3std5panic12catch_unwind17haa6e8ed090c9a2c8E, symObjAddr: 0x1474, symBinAddr: 0x2CE48, symSize: 0x118 }
  - { offset: 0x95ED3, size: 0x8, addend: 0x0, symName: __ZN3std5panic12catch_unwind17hbe4cb879e6957422E, symObjAddr: 0x158C, symBinAddr: 0x2CF60, symSize: 0x118 }
  - { offset: 0x9602F, size: 0x8, addend: 0x0, symName: __ZN3std5panic12catch_unwind17hc7f364dddd0ee6c3E, symObjAddr: 0x16A4, symBinAddr: 0x2D078, symSize: 0x118 }
  - { offset: 0x9618B, size: 0x8, addend: 0x0, symName: __ZN3std5panic12catch_unwind17hd82c564cc4947514E, symObjAddr: 0x17BC, symBinAddr: 0x2D190, symSize: 0x118 }
  - { offset: 0x962E7, size: 0x8, addend: 0x0, symName: __ZN3std5panic12catch_unwind17hdb1817ffb5b994a2E, symObjAddr: 0x18D4, symBinAddr: 0x2D2A8, symSize: 0x104 }
  - { offset: 0x96442, size: 0x8, addend: 0x0, symName: __ZN3std5panic12catch_unwind17hed0ed7e5782cfdcaE, symObjAddr: 0x19D8, symBinAddr: 0x2D3AC, symSize: 0x118 }
  - { offset: 0x988DF, size: 0x8, addend: 0x0, symName: __ZN5rayon4math14simplify_range17h5079b536bef7dbe9E, symObjAddr: 0x0, symBinAddr: 0x2D518, symSize: 0x434 }
  - { offset: 0x988F6, size: 0x8, addend: 0x0, symName: __ZN5rayon4math14simplify_range17h5079b536bef7dbe9E, symObjAddr: 0x0, symBinAddr: 0x2D518, symSize: 0x434 }
  - { offset: 0x98E9F, size: 0x8, addend: 0x0, symName: '__ZN4core3fmt3num52_$LT$impl$u20$core..fmt..Debug$u20$for$u20$usize$GT$3fmt17he188ba5c0186b73dE', symObjAddr: 0x0, symBinAddr: 0x2D94C, symSize: 0x90 }
  - { offset: 0x98F3A, size: 0x8, addend: 0x0, symName: '__ZN4core3fmt3num52_$LT$impl$u20$core..fmt..Debug$u20$for$u20$usize$GT$3fmt17he188ba5c0186b73dE', symObjAddr: 0x0, symBinAddr: 0x2D94C, symSize: 0x90 }
  - { offset: 0x99124, size: 0x8, addend: 0x0, symName: '__ZN102_$LT$core..slice..sort..unstable..quicksort..GapGuardRaw$LT$T$GT$$u20$as$u20$core..ops..drop..Drop$GT$4drop17h2b090cfa0bba7f2bE', symObjAddr: 0x0, symBinAddr: 0x2D9DC, symSize: 0x8C }
  - { offset: 0x9ABA5, size: 0x8, addend: 0x0, symName: '__ZN4core3ptr100drop_in_place$LT$core..slice..sort..unstable..quicksort..GapGuardRaw$LT$font_types..tag..Tag$GT$$GT$17h5c8feb2e9cf2daf2E', symObjAddr: 0x179C, symBinAddr: 0x2EFF0, symSize: 0x24 }
  - { offset: 0x9ABD4, size: 0x8, addend: 0x0, symName: '__ZN4core3ptr100drop_in_place$LT$hashbrown..map..HashMap$LT$char$C$$LP$$RP$$C$std..hash..random..RandomState$GT$$GT$17heaf18417864950a9E', symObjAddr: 0x17C0, symBinAddr: 0x2F014, symSize: 0x24 }
  - { offset: 0x9AC03, size: 0x8, addend: 0x0, symName: '__ZN4core3ptr100drop_in_place$LT$std..sync..poison..PoisonError$LT$core..option..Option$LT$anyhow..Error$GT$$GT$$GT$17h39865d39592d9d3fE', symObjAddr: 0x17E4, symBinAddr: 0x2F038, symSize: 0x24 }
  - { offset: 0x9AC32, size: 0x8, addend: 0x0, symName: '__ZN4core3ptr101drop_in_place$LT$anyhow..error..ContextError$LT$alloc..string..String$C$std..io..error..Error$GT$$GT$17he4526f0f0c8d03c9E', symObjAddr: 0x1808, symBinAddr: 0x2F05C, symSize: 0x60 }
  - { offset: 0x9AC61, size: 0x8, addend: 0x0, symName: '__ZN4core3ptr101drop_in_place$LT$core..slice..sort..unstable..quicksort..GapGuardRaw$LT$alloc..string..String$GT$$GT$17hb972f67ab2bba528E', symObjAddr: 0x1868, symBinAddr: 0x2F0BC, symSize: 0x24 }
  - { offset: 0x9AC90, size: 0x8, addend: 0x0, symName: '__ZN4core3ptr101drop_in_place$LT$std..sync..poison..mutex..Mutex$LT$core..option..Option$LT$anyhow..Error$GT$$GT$$GT$17h983723f65642d73cE', symObjAddr: 0x188C, symBinAddr: 0x2F0E0, symSize: 0x60 }
  - { offset: 0x9ACBF, size: 0x8, addend: 0x0, symName: '__ZN4core3ptr103drop_in_place$LT$alloc..vec..Vec$LT$alloc..vec..Vec$LT$typg_core..search..TypgFontFaceMatch$GT$$GT$$GT$17h0f6f170997af849aE', symObjAddr: 0x18EC, symBinAddr: 0x2F140, symSize: 0x5C }
  - { offset: 0x9ACEE, size: 0x8, addend: 0x0, symName: '__ZN4core3ptr1043drop_in_place$LT$rayon_core..join..join_context$LT$rayon..iter..plumbing..bridge_producer_consumer..helper$LT$rayon..vec..DrainProducer$LT$typg_core..search..TypgFontFaceMatch$GT$$C$rayon..iter..filter..FilterConsumer$LT$rayon..iter..collect..consumer..CollectConsumer$LT$typg_core..search..TypgFontFaceMatch$GT$$C$typg_core..search..search..$u7b$$u7b$closure$u7d$$u7d$..$u7b$$u7b$closure$u7d$$u7d$$GT$$GT$..$u7b$$u7b$closure$u7d$$u7d$$C$rayon..iter..plumbing..bridge_producer_consumer..helper$LT$rayon..vec..DrainProducer$LT$typg_core..search..TypgFontFaceMatch$GT$$C$rayon..iter..filter..FilterConsumer$LT$rayon..iter..collect..consumer..CollectConsumer$LT$typg_core..search..TypgFontFaceMatch$GT$$C$typg_core..search..search..$u7b$$u7b$closure$u7d$$u7d$..$u7b$$u7b$closure$u7d$$u7d$$GT$$GT$..$u7b$$u7b$closure$u7d$$u7d$$C$rayon..iter..collect..consumer..CollectResult$LT$typg_core..search..TypgFontFaceMatch$GT$$C$rayon..iter..collect..consumer..CollectResult$LT$typg_core..search..TypgFontFaceMatch$GT$$GT$..$u7b$$u7b$closure$u7d$$u7d$$GT$17h5c798f0879b6a06eE', symObjAddr: 0x1948, symBinAddr: 0x2F19C, symSize: 0x60 }
  - { offset: 0x9AD1D, size: 0x8, addend: 0x0, symName: '__ZN4core3ptr105drop_in_place$LT$alloc..boxed..Box$LT$anyhow..error..ErrorImpl$LT$read_fonts..read..ReadError$GT$$GT$$GT$17h0ab3666a4612a690E', symObjAddr: 0x19A8, symBinAddr: 0x2F1FC, symSize: 0x60 }
  - { offset: 0x9AD4C, size: 0x8, addend: 0x0, symName: '__ZN4core3ptr105drop_in_place$LT$hashbrown..set..HashSet$LT$font_types..tag..Tag$C$std..hash..random..RandomState$GT$$GT$17hba01629b21d3c039E', symObjAddr: 0x1A08, symBinAddr: 0x2F25C, symSize: 0x24 }
  - { offset: 0x9AD7B, size: 0x8, addend: 0x0, symName: '__ZN4core3ptr105drop_in_place$LT$rayon..vec..Drain$LT$alloc..vec..Vec$LT$typg_core..search..TypgFontFaceMatch$GT$$GT$$GT$17h6cde90a20cf5a77fE', symObjAddr: 0x1A2C, symBinAddr: 0x2F280, symSize: 0x24 }
  - { offset: 0x9ADAA, size: 0x8, addend: 0x0, symName: '__ZN4core3ptr106drop_in_place$LT$std..sync..poison..mutex..MutexGuard$LT$core..option..Option$LT$anyhow..Error$GT$$GT$$GT$17hac0dd6afd484b8d9E', symObjAddr: 0x1A74, symBinAddr: 0x2F2A4, symSize: 0x24 }
  - { offset: 0x9ADD9, size: 0x8, addend: 0x0, symName: '__ZN4core3ptr108drop_in_place$LT$core..option..Option$LT$alloc..vec..Vec$LT$typg_core..search..TypgFontFaceMatch$GT$$GT$$GT$17h423cf6b1a2187cd4E', symObjAddr: 0x1ABC, symBinAddr: 0x2F2C8, symSize: 0x48 }
  - { offset: 0x9AE08, size: 0x8, addend: 0x0, symName: '__ZN4core3ptr108drop_in_place$LT$rayon..vec..IntoIter$LT$alloc..vec..Vec$LT$typg_core..search..TypgFontFaceMatch$GT$$GT$$GT$17h9ed44b762373f84cE', symObjAddr: 0x1B04, symBinAddr: 0x2F310, symSize: 0x24 }
  - { offset: 0x9AE37, size: 0x8, addend: 0x0, symName: '__ZN4core3ptr109drop_in_place$LT$alloc..boxed..Box$LT$anyhow..error..ErrorImpl$LT$core..num..error..ParseIntError$GT$$GT$$GT$17he22a737cb6369d68E', symObjAddr: 0x1B28, symBinAddr: 0x2F334, symSize: 0x60 }
  - { offset: 0x9AE66, size: 0x8, addend: 0x0, symName: '__ZN4core3ptr109drop_in_place$LT$alloc..vec..Vec$LT$T$C$A$GT$..dedup_by..FillGapOnDrop$LT$char$C$alloc..alloc..Global$GT$$GT$17h2351022c0fb3ed60E', symObjAddr: 0x1B88, symBinAddr: 0x2F394, symSize: 0x24 }
  - { offset: 0x9AE95, size: 0x8, addend: 0x0, symName: '__ZN4core3ptr109drop_in_place$LT$core..slice..sort..stable..merge..MergeState$LT$typg_core..search..TypgFontFaceMatch$GT$$GT$17h600b17625a71af8dE', symObjAddr: 0x1BD0, symBinAddr: 0x2F3B8, symSize: 0x24 }
  - { offset: 0x9AEC4, size: 0x8, addend: 0x0, symName: '__ZN4core3ptr110drop_in_place$LT$alloc..boxed..Box$LT$anyhow..error..ErrorImpl$LT$rayon_core..ThreadPoolBuildError$GT$$GT$$GT$17hbf34c13fd74f88f2E', symObjAddr: 0x1BF4, symBinAddr: 0x2F3DC, symSize: 0x60 }
  - { offset: 0x9AEF3, size: 0x8, addend: 0x0, symName: '__ZN4core3ptr110drop_in_place$LT$alloc..raw_vec..RawVec$LT$alloc..vec..Vec$LT$typg_core..search..TypgFontFaceMatch$GT$$GT$$GT$17h0cc9a8383301c77dE', symObjAddr: 0x1C54, symBinAddr: 0x2F43C, symSize: 0x24 }
  - { offset: 0x9AF22, size: 0x8, addend: 0x0, symName: '__ZN4core3ptr110drop_in_place$LT$rayon..iter..collect..consumer..CollectResult$LT$typg_core..search..TypgFontFaceMatch$GT$$GT$17hfe6960047497eda2E', symObjAddr: 0x1C78, symBinAddr: 0x2F460, symSize: 0x24 }
  - { offset: 0x9AF51, size: 0x8, addend: 0x0, symName: '__ZN4core3ptr110drop_in_place$LT$rayon..vec..SliceDrain$LT$alloc..vec..Vec$LT$typg_core..search..TypgFontFaceMatch$GT$$GT$$GT$17hf5ee69ea5ff35eadE', symObjAddr: 0x1C9C, symBinAddr: 0x2F484, symSize: 0x24 }
  - { offset: 0x9AF80, size: 0x8, addend: 0x0, symName: '__ZN4core3ptr1111drop_in_place$LT$rayon_core..join..join_context$LT$rayon..iter..plumbing..bridge_producer_consumer..helper$LT$rayon..vec..DrainProducer$LT$alloc..vec..Vec$LT$typg_core..search..TypgFontFaceMatch$GT$$GT$$C$rayon..iter..flatten..FlattenConsumer$LT$rayon..iter..filter..FilterConsumer$LT$rayon..iter..extend..ListVecConsumer$C$typg_core..search..search..$u7b$$u7b$closure$u7d$$u7d$..$u7b$$u7b$closure$u7d$$u7d$$GT$$GT$$GT$..$u7b$$u7b$closure$u7d$$u7d$$C$rayon..iter..plumbing..bridge_producer_consumer..helper$LT$rayon..vec..DrainProducer$LT$alloc..vec..Vec$LT$typg_core..search..TypgFontFaceMatch$GT$$GT$$C$rayon..iter..flatten..FlattenConsumer$LT$rayon..iter..filter..FilterConsumer$LT$rayon..iter..extend..ListVecConsumer$C$typg_core..search..search..$u7b$$u7b$closure$u7d$$u7d$..$u7b$$u7b$closure$u7d$$u7d$$GT$$GT$$GT$..$u7b$$u7b$closure$u7d$$u7d$$C$alloc..collections..linked_list..LinkedList$LT$alloc..vec..Vec$LT$typg_core..search..TypgFontFaceMatch$GT$$GT$$C$alloc..collections..linked_list..LinkedList$LT$alloc..vec..Vec$LT$typg_core..search..TypgFontFaceMatch$GT$$GT$$GT$..$u7b$$u7b$closure$u7d$$u7d$$GT$17h4e7cb1ec43c3e4e2E', symObjAddr: 0x1CC0, symBinAddr: 0x2F4A8, symSize: 0x60 }
  - { offset: 0x9AFAF, size: 0x8, addend: 0x0, symName: '__ZN4core3ptr112drop_in_place$LT$alloc..vec..drain..Drain$LT$alloc..vec..Vec$LT$typg_core..search..TypgFontFaceMatch$GT$$GT$$GT$17hc9cee07811cc010eE', symObjAddr: 0x1D20, symBinAddr: 0x2F508, symSize: 0x24 }
  - { offset: 0x9AFDE, size: 0x8, addend: 0x0, symName: '__ZN4core3ptr1132drop_in_place$LT$rayon_core..job..StackJob$LT$rayon_core..latch..SpinLatch$C$rayon_core..join..join_context..call_b$LT$alloc..collections..linked_list..LinkedList$LT$alloc..vec..Vec$LT$alloc..vec..Vec$LT$typg_core..search..TypgFontFaceMatch$GT$$GT$$GT$$C$rayon..iter..plumbing..bridge_producer_consumer..helper$LT$rayon..slice..IterProducer$LT$typg_core..discovery..TypgFontSourceRef$GT$$C$rayon..iter..map..MapConsumer$LT$rayon..iter..map..MapConsumer$LT$rayon..iter..while_some..WhileSomeConsumer$LT$rayon..iter..extend..ListVecConsumer$GT$$C$rayon..result..$LT$impl$u20$rayon..iter..FromParallelIterator$LT$core..result..Result$LT$T$C$E$GT$$GT$$u20$for$u20$core..result..Result$LT$C$C$E$GT$$GT$..from_par_iter..ok$LT$alloc..vec..Vec$LT$typg_core..search..TypgFontFaceMatch$GT$$C$anyhow..Error$GT$..$u7b$$u7b$closure$u7d$$u7d$$GT$$C$typg_core..search..search..$u7b$$u7b$closure$u7d$$u7d$..$u7b$$u7b$closure$u7d$$u7d$$GT$$GT$..$u7b$$u7b$closure$u7d$$u7d$$GT$..$u7b$$u7b$closure$u7d$$u7d$$C$alloc..collections..linked_list..LinkedList$LT$alloc..vec..Vec$LT$alloc..vec..Vec$LT$typg_core..search..TypgFontFaceMatch$GT$$GT$$GT$$GT$$GT$17he53b8c4ac4e34fb9E', symObjAddr: 0x1D44, symBinAddr: 0x2F52C, symSize: 0x24 }
  - { offset: 0x9B00D, size: 0x8, addend: 0x0, symName: '__ZN4core3ptr113drop_in_place$LT$core..slice..sort..shared..smallsort..CopyOnDrop$LT$typg_core..search..TypgFontFaceMatch$GT$$GT$17h9771009b5e625017E', symObjAddr: 0x1D68, symBinAddr: 0x2F550, symSize: 0x24 }
  - { offset: 0x9B03C, size: 0x8, addend: 0x0, symName: '__ZN4core3ptr113drop_in_place$LT$rayon..vec..DrainProducer$LT$alloc..vec..Vec$LT$typg_core..search..TypgFontFaceMatch$GT$$GT$$GT$17h7492292121e03e1eE', symObjAddr: 0x1D8C, symBinAddr: 0x2F574, symSize: 0x24 }
  - { offset: 0x9B06B, size: 0x8, addend: 0x0, symName: '__ZN4core3ptr1168drop_in_place$LT$rayon_core..job..StackJob$LT$rayon_core..latch..SpinLatch$C$rayon_core..join..join_context..call_b$LT$rayon..iter..collect..consumer..CollectResult$LT$alloc..vec..Vec$LT$typg_core..search..TypgFontFaceMatch$GT$$GT$$C$rayon..iter..plumbing..bridge_producer_consumer..helper$LT$rayon..slice..IterProducer$LT$typg_core..discovery..TypgFontSourceRef$GT$$C$rayon..iter..map..MapConsumer$LT$rayon..iter..map..MapConsumer$LT$rayon..iter..while_some..WhileSomeConsumer$LT$rayon..iter..collect..consumer..CollectConsumer$LT$alloc..vec..Vec$LT$typg_core..search..TypgFontFaceMatch$GT$$GT$$GT$$C$rayon..result..$LT$impl$u20$rayon..iter..FromParallelIterator$LT$core..result..Result$LT$T$C$E$GT$$GT$$u20$for$u20$core..result..Result$LT$C$C$E$GT$$GT$..from_par_iter..ok$LT$alloc..vec..Vec$LT$typg_core..search..TypgFontFaceMatch$GT$$C$anyhow..Error$GT$..$u7b$$u7b$closure$u7d$$u7d$$GT$$C$typg_core..search..search..$u7b$$u7b$closure$u7d$$u7d$..$u7b$$u7b$closure$u7d$$u7d$$GT$$GT$..$u7b$$u7b$closure$u7d$$u7d$$GT$..$u7b$$u7b$closure$u7d$$u7d$$C$rayon..iter..collect..consumer..CollectResult$LT$alloc..vec..Vec$LT$typg_core..search..TypgFontFaceMatch$GT$$GT$$GT$$GT$17h638a4339ffeb8668E', symObjAddr: 0x1DB0, symBinAddr: 0x2F598, symSize: 0x24 }
  - { offset: 0x9B09A, size: 0x8, addend: 0x0, symName: '__ZN4core3ptr116drop_in_place$LT$core..result..Result$LT$alloc..boxed..Box$LT$regex_automata..meta..regex..Cache$GT$$C$usize$GT$$GT$17h1d6b674bf2335710E', symObjAddr: 0x1DD4, symBinAddr: 0x2F5BC, symSize: 0x40 }
  - { offset: 0x9B0C9, size: 0x8, addend: 0x0, symName: '__ZN4core3ptr116drop_in_place$LT$hashbrown..map..HashMap$LT$font_types..tag..Tag$C$$LP$$RP$$C$std..hash..random..RandomState$GT$$GT$17h1d558bc3e1145490E', symObjAddr: 0x1E14, symBinAddr: 0x2F5FC, symSize: 0x24 }
  - { offset: 0x9B0F8, size: 0x8, addend: 0x0, symName: '__ZN4core3ptr1179drop_in_place$LT$rayon_core..join..join_context$LT$rayon..iter..plumbing..bridge_producer_consumer..helper$LT$rayon..vec..DrainProducer$LT$alloc..vec..Vec$LT$typg_core..search..TypgFontFaceMatch$GT$$GT$$C$rayon..iter..flatten..FlattenConsumer$LT$rayon..iter..filter..FilterConsumer$LT$rayon..iter..collect..consumer..CollectConsumer$LT$typg_core..search..TypgFontFaceMatch$GT$$C$typg_core..search..search..$u7b$$u7b$closure$u7d$$u7d$..$u7b$$u7b$closure$u7d$$u7d$$GT$$GT$$GT$..$u7b$$u7b$closure$u7d$$u7d$$C$rayon..iter..plumbing..bridge_producer_consumer..helper$LT$rayon..vec..DrainProducer$LT$alloc..vec..Vec$LT$typg_core..search..TypgFontFaceMatch$GT$$GT$$C$rayon..iter..flatten..FlattenConsumer$LT$rayon..iter..filter..FilterConsumer$LT$rayon..iter..collect..consumer..CollectConsumer$LT$typg_core..search..TypgFontFaceMatch$GT$$C$typg_core..search..search..$u7b$$u7b$closure$u7d$$u7d$..$u7b$$u7b$closure$u7d$$u7d$$GT$$GT$$GT$..$u7b$$u7b$closure$u7d$$u7d$$C$rayon..iter..collect..consumer..CollectResult$LT$typg_core..search..TypgFontFaceMatch$GT$$C$rayon..iter..collect..consumer..CollectResult$LT$typg_core..search..TypgFontFaceMatch$GT$$GT$..$u7b$$u7b$closure$u7d$$u7d$$GT$17h209c05f37ae592f5E', symObjAddr: 0x1E38, symBinAddr: 0x2F620, symSize: 0x60 }
  - { offset: 0x9B127, size: 0x8, addend: 0x0, symName: '__ZN4core3ptr118drop_in_place$LT$core..option..Option$LT$core..result..Result$LT$core..convert..Infallible$C$anyhow..Error$GT$$GT$$GT$17h3dfe42a2e3ad842cE', symObjAddr: 0x1E98, symBinAddr: 0x2F680, symSize: 0x44 }
  - { offset: 0x9B156, size: 0x8, addend: 0x0, symName: '__ZN4core3ptr120drop_in_place$LT$anyhow..error..ErrorImpl$LT$core..mem..manually_drop..ManuallyDrop$LT$walkdir..error..Error$GT$$GT$$GT$17h77b949e9c0b68969E', symObjAddr: 0x1EDC, symBinAddr: 0x2F6C4, symSize: 0x24 }
  - { offset: 0x9B185, size: 0x8, addend: 0x0, symName: '__ZN4core3ptr122drop_in_place$LT$rayon..iter..extend..ListVecFolder$LT$alloc..vec..Vec$LT$typg_core..search..TypgFontFaceMatch$GT$$GT$$GT$17h667b5b1a138529c5E', symObjAddr: 0x1F00, symBinAddr: 0x2F6E8, symSize: 0x24 }
  - { offset: 0x9B1B4, size: 0x8, addend: 0x0, symName: '__ZN4core3ptr124drop_in_place$LT$core..result..Result$LT$alloc..vec..Vec$LT$typg_core..search..TypgFontFaceMatch$GT$$C$anyhow..Error$GT$$GT$17h95c0ba8019ce894bE', symObjAddr: 0x1F48, symBinAddr: 0x2F70C, symSize: 0x5C }
  - { offset: 0x9B1E3, size: 0x8, addend: 0x0, symName: '__ZN4core3ptr125drop_in_place$LT$alloc..collections..linked_list..Node$LT$alloc..vec..Vec$LT$typg_core..search..TypgFontFaceMatch$GT$$GT$$GT$17hc91971142d326420E', symObjAddr: 0x1FA4, symBinAddr: 0x2F768, symSize: 0x24 }
  - { offset: 0x9B212, size: 0x8, addend: 0x0, symName: '__ZN4core3ptr125drop_in_place$LT$alloc..vec..Vec$LT$T$C$A$GT$..dedup_by..FillGapOnDrop$LT$font_types..tag..Tag$C$alloc..alloc..Global$GT$$GT$17h5172a73401b95578E', symObjAddr: 0x1FC8, symBinAddr: 0x2F78C, symSize: 0x24 }
  - { offset: 0x9B241, size: 0x8, addend: 0x0, symName: '__ZN4core3ptr125drop_in_place$LT$alloc..vec..Vec$LT$T$C$A$GT$..retain_mut..PanicGuard$LT$alloc..string..String$C$alloc..alloc..Global$GT$$GT$17head266d07006c21dE', symObjAddr: 0x1FEC, symBinAddr: 0x2F7B0, symSize: 0x24 }
  - { offset: 0x9B270, size: 0x8, addend: 0x0, symName: '__ZN4core3ptr126drop_in_place$LT$alloc..vec..Vec$LT$T$C$A$GT$..dedup_by..FillGapOnDrop$LT$alloc..string..String$C$alloc..alloc..Global$GT$$GT$17hb22e0d8dd4544a04E', symObjAddr: 0x2010, symBinAddr: 0x2F7D4, symSize: 0x24 }
  - { offset: 0x9B29F, size: 0x8, addend: 0x0, symName: '__ZN4core3ptr126drop_in_place$LT$anyhow..error..ErrorImpl$LT$core..mem..manually_drop..ManuallyDrop$LT$read_fonts..read..ReadError$GT$$GT$$GT$17h06d58aa714dc1ebdE', symObjAddr: 0x2034, symBinAddr: 0x2F7F8, symSize: 0x24 }
  - { offset: 0x9B2CE, size: 0x8, addend: 0x0, symName: '__ZN4core3ptr1292drop_in_place$LT$rayon_core..registry..Registry..in_worker_cold$LT$rayon_core..join..join_context$LT$rayon..iter..plumbing..bridge_producer_consumer..helper$LT$rayon..vec..DrainProducer$LT$typg_core..search..TypgFontFaceMatch$GT$$C$rayon..iter..filter..FilterConsumer$LT$rayon..iter..extend..ListVecConsumer$C$typg_core..search..search..$u7b$$u7b$closure$u7d$$u7d$..$u7b$$u7b$closure$u7d$$u7d$$GT$$GT$..$u7b$$u7b$closure$u7d$$u7d$$C$rayon..iter..plumbing..bridge_producer_consumer..helper$LT$rayon..vec..DrainProducer$LT$typg_core..search..TypgFontFaceMatch$GT$$C$rayon..iter..filter..FilterConsumer$LT$rayon..iter..extend..ListVecConsumer$C$typg_core..search..search..$u7b$$u7b$closure$u7d$$u7d$..$u7b$$u7b$closure$u7d$$u7d$$GT$$GT$..$u7b$$u7b$closure$u7d$$u7d$$C$alloc..collections..linked_list..LinkedList$LT$alloc..vec..Vec$LT$typg_core..search..TypgFontFaceMatch$GT$$GT$$C$alloc..collections..linked_list..LinkedList$LT$alloc..vec..Vec$LT$typg_core..search..TypgFontFaceMatch$GT$$GT$$GT$..$u7b$$u7b$closure$u7d$$u7d$$C$$LP$alloc..collections..linked_list..LinkedList$LT$alloc..vec..Vec$LT$typg_core..search..TypgFontFaceMatch$GT$$GT$$C$alloc..collections..linked_list..LinkedList$LT$alloc..vec..Vec$LT$typg_core..search..TypgFontFaceMatch$GT$$GT$$RP$$GT$..$u7b$$u7b$closure$u7d$$u7d$$GT$17hf9553dd6c36b18dbE', symObjAddr: 0x2058, symBinAddr: 0x2F81C, symSize: 0x24 }
  - { offset: 0x9B2FD, size: 0x8, addend: 0x0, symName: '__ZN4core3ptr1293drop_in_place$LT$rayon_core..registry..Registry..in_worker_cross$LT$rayon_core..join..join_context$LT$rayon..iter..plumbing..bridge_producer_consumer..helper$LT$rayon..vec..DrainProducer$LT$typg_core..search..TypgFontFaceMatch$GT$$C$rayon..iter..filter..FilterConsumer$LT$rayon..iter..extend..ListVecConsumer$C$typg_core..search..search..$u7b$$u7b$closure$u7d$$u7d$..$u7b$$u7b$closure$u7d$$u7d$$GT$$GT$..$u7b$$u7b$closure$u7d$$u7d$$C$rayon..iter..plumbing..bridge_producer_consumer..helper$LT$rayon..vec..DrainProducer$LT$typg_core..search..TypgFontFaceMatch$GT$$C$rayon..iter..filter..FilterConsumer$LT$rayon..iter..extend..ListVecConsumer$C$typg_core..search..search..$u7b$$u7b$closure$u7d$$u7d$..$u7b$$u7b$closure$u7d$$u7d$$GT$$GT$..$u7b$$u7b$closure$u7d$$u7d$$C$alloc..collections..linked_list..LinkedList$LT$alloc..vec..Vec$LT$typg_core..search..TypgFontFaceMatch$GT$$GT$$C$alloc..collections..linked_list..LinkedList$LT$alloc..vec..Vec$LT$typg_core..search..TypgFontFaceMatch$GT$$GT$$GT$..$u7b$$u7b$closure$u7d$$u7d$$C$$LP$alloc..collections..linked_list..LinkedList$LT$alloc..vec..Vec$LT$typg_core..search..TypgFontFaceMatch$GT$$GT$$C$alloc..collections..linked_list..LinkedList$LT$alloc..vec..Vec$LT$typg_core..search..TypgFontFaceMatch$GT$$GT$$RP$$GT$..$u7b$$u7b$closure$u7d$$u7d$$GT$17h17a5792bf2500231E', symObjAddr: 0x207C, symBinAddr: 0x2F840, symSize: 0x24 }
  - { offset: 0x9B32C, size: 0x8, addend: 0x0, symName: '__ZN4core3ptr129drop_in_place$LT$alloc..collections..linked_list..IntoIter$LT$alloc..vec..Vec$LT$typg_core..search..TypgFontFaceMatch$GT$$GT$$GT$17hbed8baa5d97a1552E', symObjAddr: 0x20A0, symBinAddr: 0x2F864, symSize: 0x24 }
  - { offset: 0x9B35B, size: 0x8, addend: 0x0, symName: '__ZN4core3ptr130drop_in_place$LT$anyhow..error..ErrorImpl$LT$core..mem..manually_drop..ManuallyDrop$LT$core..num..error..ParseIntError$GT$$GT$$GT$17hce33812cab9a6154E', symObjAddr: 0x20C4, symBinAddr: 0x2F888, symSize: 0x24 }
  - { offset: 0x9B38A, size: 0x8, addend: 0x0, symName: '__ZN4core3ptr1318drop_in_place$LT$rayon_core..registry..Registry..in_worker_cold$LT$rayon_core..join..join_context$LT$rayon..iter..plumbing..bridge_producer_consumer..helper$LT$rayon..vec..DrainProducer$LT$typg_core..search..TypgFontFaceMatch$GT$$C$rayon..iter..filter..FilterConsumer$LT$rayon..iter..collect..consumer..CollectConsumer$LT$typg_core..search..TypgFontFaceMatch$GT$$C$typg_core..search..search..$u7b$$u7b$closure$u7d$$u7d$..$u7b$$u7b$closure$u7d$$u7d$$GT$$GT$..$u7b$$u7b$closure$u7d$$u7d$$C$rayon..iter..plumbing..bridge_producer_consumer..helper$LT$rayon..vec..DrainProducer$LT$typg_core..search..TypgFontFaceMatch$GT$$C$rayon..iter..filter..FilterConsumer$LT$rayon..iter..collect..consumer..CollectConsumer$LT$typg_core..search..TypgFontFaceMatch$GT$$C$typg_core..search..search..$u7b$$u7b$closure$u7d$$u7d$..$u7b$$u7b$closure$u7d$$u7d$$GT$$GT$..$u7b$$u7b$closure$u7d$$u7d$$C$rayon..iter..collect..consumer..CollectResult$LT$typg_core..search..TypgFontFaceMatch$GT$$C$rayon..iter..collect..consumer..CollectResult$LT$typg_core..search..TypgFontFaceMatch$GT$$GT$..$u7b$$u7b$closure$u7d$$u7d$$C$$LP$rayon..iter..collect..consumer..CollectResult$LT$typg_core..search..TypgFontFaceMatch$GT$$C$rayon..iter..collect..consumer..CollectResult$LT$typg_core..search..TypgFontFaceMatch$GT$$RP$$GT$..$u7b$$u7b$closure$u7d$$u7d$$GT$17h4c1abb50d4520bf1E', symObjAddr: 0x20E8, symBinAddr: 0x2F8AC, symSize: 0x24 }
  - { offset: 0x9B3B9, size: 0x8, addend: 0x0, symName: '__ZN4core3ptr1319drop_in_place$LT$rayon_core..registry..Registry..in_worker_cross$LT$rayon_core..join..join_context$LT$rayon..iter..plumbing..bridge_producer_consumer..helper$LT$rayon..vec..DrainProducer$LT$typg_core..search..TypgFontFaceMatch$GT$$C$rayon..iter..filter..FilterConsumer$LT$rayon..iter..collect..consumer..CollectConsumer$LT$typg_core..search..TypgFontFaceMatch$GT$$C$typg_core..search..search..$u7b$$u7b$closure$u7d$$u7d$..$u7b$$u7b$closure$u7d$$u7d$$GT$$GT$..$u7b$$u7b$closure$u7d$$u7d$$C$rayon..iter..plumbing..bridge_producer_consumer..helper$LT$rayon..vec..DrainProducer$LT$typg_core..search..TypgFontFaceMatch$GT$$C$rayon..iter..filter..FilterConsumer$LT$rayon..iter..collect..consumer..CollectConsumer$LT$typg_core..search..TypgFontFaceMatch$GT$$C$typg_core..search..search..$u7b$$u7b$closure$u7d$$u7d$..$u7b$$u7b$closure$u7d$$u7d$$GT$$GT$..$u7b$$u7b$closure$u7d$$u7d$$C$rayon..iter..collect..consumer..CollectResult$LT$typg_core..search..TypgFontFaceMatch$GT$$C$rayon..iter..collect..consumer..CollectResult$LT$typg_core..search..TypgFontFaceMatch$GT$$GT$..$u7b$$u7b$closure$u7d$$u7d$$C$$LP$rayon..iter..collect..consumer..CollectResult$LT$typg_core..search..TypgFontFaceMatch$GT$$C$rayon..iter..collect..consumer..CollectResult$LT$typg_core..search..TypgFontFaceMatch$GT$$RP$$GT$..$u7b$$u7b$closure$u7d$$u7d$$GT$17hfdf9fc68d0b7980cE', symObjAddr: 0x210C, symBinAddr: 0x2F8D0, symSize: 0x24 }
  - { offset: 0x9B3E8, size: 0x8, addend: 0x0, symName: '__ZN4core3ptr131drop_in_place$LT$alloc..collections..linked_list..LinkedList$LT$alloc..vec..Vec$LT$typg_core..search..TypgFontFaceMatch$GT$$GT$$GT$17h19d84218b2d7bef1E', symObjAddr: 0x2130, symBinAddr: 0x2F8F4, symSize: 0x24 }
  - { offset: 0x9B417, size: 0x8, addend: 0x0, symName: '__ZN4core3ptr131drop_in_place$LT$anyhow..error..ErrorImpl$LT$core..mem..manually_drop..ManuallyDrop$LT$rayon_core..ThreadPoolBuildError$GT$$GT$$GT$17hc784a81cf19d69faE', symObjAddr: 0x2154, symBinAddr: 0x2F918, symSize: 0x24 }
  - { offset: 0x9B446, size: 0x8, addend: 0x0, symName: '__ZN4core3ptr1321drop_in_place$LT$core..option..Option$LT$rayon_core..registry..Registry..in_worker_cross$LT$rayon_core..join..join_context$LT$rayon..iter..plumbing..bridge_producer_consumer..helper$LT$rayon..vec..DrainProducer$LT$typg_core..search..TypgFontFaceMatch$GT$$C$rayon..iter..filter..FilterConsumer$LT$rayon..iter..extend..ListVecConsumer$C$typg_core..search..search..$u7b$$u7b$closure$u7d$$u7d$..$u7b$$u7b$closure$u7d$$u7d$$GT$$GT$..$u7b$$u7b$closure$u7d$$u7d$$C$rayon..iter..plumbing..bridge_producer_consumer..helper$LT$rayon..vec..DrainProducer$LT$typg_core..search..TypgFontFaceMatch$GT$$C$rayon..iter..filter..FilterConsumer$LT$rayon..iter..extend..ListVecConsumer$C$typg_core..search..search..$u7b$$u7b$closure$u7d$$u7d$..$u7b$$u7b$closure$u7d$$u7d$$GT$$GT$..$u7b$$u7b$closure$u7d$$u7d$$C$alloc..collections..linked_list..LinkedList$LT$alloc..vec..Vec$LT$typg_core..search..TypgFontFaceMatch$GT$$GT$$C$alloc..collections..linked_list..LinkedList$LT$alloc..vec..Vec$LT$typg_core..search..TypgFontFaceMatch$GT$$GT$$GT$..$u7b$$u7b$closure$u7d$$u7d$$C$$LP$alloc..collections..linked_list..LinkedList$LT$alloc..vec..Vec$LT$typg_core..search..TypgFontFaceMatch$GT$$GT$$C$alloc..collections..linked_list..LinkedList$LT$alloc..vec..Vec$LT$typg_core..search..TypgFontFaceMatch$GT$$GT$$RP$$GT$..$u7b$$u7b$closure$u7d$$u7d$$GT$$GT$17h51a9a9fa9649d000E', symObjAddr: 0x2178, symBinAddr: 0x2F93C, symSize: 0x44 }
  - { offset: 0x9B475, size: 0x8, addend: 0x0, symName: '__ZN4core3ptr1321drop_in_place$LT$rayon_core..registry..Registry..in_worker_cold$LT$rayon_core..join..join_context$LT$rayon..iter..plumbing..bridge_producer_consumer..helper$LT$rayon..vec..DrainProducer$LT$typg_core..search..TypgFontFaceMatch$GT$$C$rayon..iter..filter..FilterConsumer$LT$rayon..iter..extend..ListVecConsumer$C$typg_core..search..search..$u7b$$u7b$closure$u7d$$u7d$..$u7b$$u7b$closure$u7d$$u7d$$GT$$GT$..$u7b$$u7b$closure$u7d$$u7d$$C$rayon..iter..plumbing..bridge_producer_consumer..helper$LT$rayon..vec..DrainProducer$LT$typg_core..search..TypgFontFaceMatch$GT$$C$rayon..iter..filter..FilterConsumer$LT$rayon..iter..extend..ListVecConsumer$C$typg_core..search..search..$u7b$$u7b$closure$u7d$$u7d$..$u7b$$u7b$closure$u7d$$u7d$$GT$$GT$..$u7b$$u7b$closure$u7d$$u7d$$C$alloc..collections..linked_list..LinkedList$LT$alloc..vec..Vec$LT$typg_core..search..TypgFontFaceMatch$GT$$GT$$C$alloc..collections..linked_list..LinkedList$LT$alloc..vec..Vec$LT$typg_core..search..TypgFontFaceMatch$GT$$GT$$GT$..$u7b$$u7b$closure$u7d$$u7d$$C$$LP$alloc..collections..linked_list..LinkedList$LT$alloc..vec..Vec$LT$typg_core..search..TypgFontFaceMatch$GT$$GT$$C$alloc..collections..linked_list..LinkedList$LT$alloc..vec..Vec$LT$typg_core..search..TypgFontFaceMatch$GT$$GT$$RP$$GT$..$u7b$$u7b$closure$u7d$$u7d$..$u7b$$u7b$closure$u7d$$u7d$$GT$17h64d92e973b83ca12E', symObjAddr: 0x21BC, symBinAddr: 0x2F980, symSize: 0x24 }
  - { offset: 0x9B4A4, size: 0x8, addend: 0x0, symName: '__ZN4core3ptr133drop_in_place$LT$anyhow..error..ErrorImpl$LT$anyhow..error..ContextError$LT$alloc..string..String$C$std..io..error..Error$GT$$GT$$GT$17h3212ff79ee71652cE', symObjAddr: 0x21E0, symBinAddr: 0x2F9A4, symSize: 0x64 }
  - { offset: 0x9B4D3, size: 0x8, addend: 0x0, symName: '__ZN4core3ptr133drop_in_place$LT$rayon..iter..collect..consumer..CollectResult$LT$alloc..vec..Vec$LT$typg_core..search..TypgFontFaceMatch$GT$$GT$$GT$17h9d7fb6ccd3754c86E', symObjAddr: 0x2244, symBinAddr: 0x2FA08, symSize: 0x24 }
  - { offset: 0x9B502, size: 0x8, addend: 0x0, symName: '__ZN4core3ptr1347drop_in_place$LT$core..option..Option$LT$rayon_core..registry..Registry..in_worker_cross$LT$rayon_core..join..join_context$LT$rayon..iter..plumbing..bridge_producer_consumer..helper$LT$rayon..vec..DrainProducer$LT$typg_core..search..TypgFontFaceMatch$GT$$C$rayon..iter..filter..FilterConsumer$LT$rayon..iter..collect..consumer..CollectConsumer$LT$typg_core..search..TypgFontFaceMatch$GT$$C$typg_core..search..search..$u7b$$u7b$closure$u7d$$u7d$..$u7b$$u7b$closure$u7d$$u7d$$GT$$GT$..$u7b$$u7b$closure$u7d$$u7d$$C$rayon..iter..plumbing..bridge_producer_consumer..helper$LT$rayon..vec..DrainProducer$LT$typg_core..search..TypgFontFaceMatch$GT$$C$rayon..iter..filter..FilterConsumer$LT$rayon..iter..collect..consumer..CollectConsumer$LT$typg_core..search..TypgFontFaceMatch$GT$$C$typg_core..search..search..$u7b$$u7b$closure$u7d$$u7d$..$u7b$$u7b$closure$u7d$$u7d$$GT$$GT$..$u7b$$u7b$closure$u7d$$u7d$$C$rayon..iter..collect..consumer..CollectResult$LT$typg_core..search..TypgFontFaceMatch$GT$$C$rayon..iter..collect..consumer..CollectResult$LT$typg_core..search..TypgFontFaceMatch$GT$$GT$..$u7b$$u7b$closure$u7d$$u7d$$C$$LP$rayon..iter..collect..consumer..CollectResult$LT$typg_core..search..TypgFontFaceMatch$GT$$C$rayon..iter..collect..consumer..CollectResult$LT$typg_core..search..TypgFontFaceMatch$GT$$RP$$GT$..$u7b$$u7b$closure$u7d$$u7d$$GT$$GT$17ha6db24185015ab59E', symObjAddr: 0x2268, symBinAddr: 0x2FA2C, symSize: 0x44 }
  - { offset: 0x9B531, size: 0x8, addend: 0x0, symName: '__ZN4core3ptr1347drop_in_place$LT$rayon_core..registry..Registry..in_worker_cold$LT$rayon_core..join..join_context$LT$rayon..iter..plumbing..bridge_producer_consumer..helper$LT$rayon..vec..DrainProducer$LT$typg_core..search..TypgFontFaceMatch$GT$$C$rayon..iter..filter..FilterConsumer$LT$rayon..iter..collect..consumer..CollectConsumer$LT$typg_core..search..TypgFontFaceMatch$GT$$C$typg_core..search..search..$u7b$$u7b$closure$u7d$$u7d$..$u7b$$u7b$closure$u7d$$u7d$$GT$$GT$..$u7b$$u7b$closure$u7d$$u7d$$C$rayon..iter..plumbing..bridge_producer_consumer..helper$LT$rayon..vec..DrainProducer$LT$typg_core..search..TypgFontFaceMatch$GT$$C$rayon..iter..filter..FilterConsumer$LT$rayon..iter..collect..consumer..CollectConsumer$LT$typg_core..search..TypgFontFaceMatch$GT$$C$typg_core..search..search..$u7b$$u7b$closure$u7d$$u7d$..$u7b$$u7b$closure$u7d$$u7d$$GT$$GT$..$u7b$$u7b$closure$u7d$$u7d$$C$rayon..iter..collect..consumer..CollectResult$LT$typg_core..search..TypgFontFaceMatch$GT$$C$rayon..iter..collect..consumer..CollectResult$LT$typg_core..search..TypgFontFaceMatch$GT$$GT$..$u7b$$u7b$closure$u7d$$u7d$$C$$LP$rayon..iter..collect..consumer..CollectResult$LT$typg_core..search..TypgFontFaceMatch$GT$$C$rayon..iter..collect..consumer..CollectResult$LT$typg_core..search..TypgFontFaceMatch$GT$$RP$$GT$..$u7b$$u7b$closure$u7d$$u7d$..$u7b$$u7b$closure$u7d$$u7d$$GT$17hf114181a25e676c1E', symObjAddr: 0x22AC, symBinAddr: 0x2FA70, symSize: 0x24 }
  - { offset: 0x9B560, size: 0x8, addend: 0x0, symName: '__ZN4core3ptr1349drop_in_place$LT$core..option..Option$LT$rayon_core..registry..Registry..in_worker_cold$LT$rayon_core..join..join_context$LT$rayon..iter..plumbing..bridge_producer_consumer..helper$LT$rayon..vec..DrainProducer$LT$typg_core..search..TypgFontFaceMatch$GT$$C$rayon..iter..filter..FilterConsumer$LT$rayon..iter..extend..ListVecConsumer$C$typg_core..search..search..$u7b$$u7b$closure$u7d$$u7d$..$u7b$$u7b$closure$u7d$$u7d$$GT$$GT$..$u7b$$u7b$closure$u7d$$u7d$$C$rayon..iter..plumbing..bridge_producer_consumer..helper$LT$rayon..vec..DrainProducer$LT$typg_core..search..TypgFontFaceMatch$GT$$C$rayon..iter..filter..FilterConsumer$LT$rayon..iter..extend..ListVecConsumer$C$typg_core..search..search..$u7b$$u7b$closure$u7d$$u7d$..$u7b$$u7b$closure$u7d$$u7d$$GT$$GT$..$u7b$$u7b$closure$u7d$$u7d$$C$alloc..collections..linked_list..LinkedList$LT$alloc..vec..Vec$LT$typg_core..search..TypgFontFaceMatch$GT$$GT$$C$alloc..collections..linked_list..LinkedList$LT$alloc..vec..Vec$LT$typg_core..search..TypgFontFaceMatch$GT$$GT$$GT$..$u7b$$u7b$closure$u7d$$u7d$$C$$LP$alloc..collections..linked_list..LinkedList$LT$alloc..vec..Vec$LT$typg_core..search..TypgFontFaceMatch$GT$$GT$$C$alloc..collections..linked_list..LinkedList$LT$alloc..vec..Vec$LT$typg_core..search..TypgFontFaceMatch$GT$$GT$$RP$$GT$..$u7b$$u7b$closure$u7d$$u7d$..$u7b$$u7b$closure$u7d$$u7d$$GT$$GT$17h2879aa6fe18bafefE', symObjAddr: 0x22D0, symBinAddr: 0x2FA94, symSize: 0x44 }
  - { offset: 0x9B58F, size: 0x8, addend: 0x0, symName: '__ZN4core3ptr1351drop_in_place$LT$core..cell..UnsafeCell$LT$core..option..Option$LT$rayon_core..registry..Registry..in_worker_cross$LT$rayon_core..join..join_context$LT$rayon..iter..plumbing..bridge_producer_consumer..helper$LT$rayon..vec..DrainProducer$LT$typg_core..search..TypgFontFaceMatch$GT$$C$rayon..iter..filter..FilterConsumer$LT$rayon..iter..extend..ListVecConsumer$C$typg_core..search..search..$u7b$$u7b$closure$u7d$$u7d$..$u7b$$u7b$closure$u7d$$u7d$$GT$$GT$..$u7b$$u7b$closure$u7d$$u7d$$C$rayon..iter..plumbing..bridge_producer_consumer..helper$LT$rayon..vec..DrainProducer$LT$typg_core..search..TypgFontFaceMatch$GT$$C$rayon..iter..filter..FilterConsumer$LT$rayon..iter..extend..ListVecConsumer$C$typg_core..search..search..$u7b$$u7b$closure$u7d$$u7d$..$u7b$$u7b$closure$u7d$$u7d$$GT$$GT$..$u7b$$u7b$closure$u7d$$u7d$$C$alloc..collections..linked_list..LinkedList$LT$alloc..vec..Vec$LT$typg_core..search..TypgFontFaceMatch$GT$$GT$$C$alloc..collections..linked_list..LinkedList$LT$alloc..vec..Vec$LT$typg_core..search..TypgFontFaceMatch$GT$$GT$$GT$..$u7b$$u7b$closure$u7d$$u7d$$C$$LP$alloc..collections..linked_list..LinkedList$LT$alloc..vec..Vec$LT$typg_core..search..TypgFontFaceMatch$GT$$GT$$C$alloc..collections..linked_list..LinkedList$LT$alloc..vec..Vec$LT$typg_core..search..TypgFontFaceMatch$GT$$GT$$RP$$GT$..$u7b$$u7b$closure$u7d$$u7d$$GT$$GT$$GT$17h6236a70b2eee32f4E', symObjAddr: 0x2314, symBinAddr: 0x2FAD8, symSize: 0x24 }
  - { offset: 0x9B5BE, size: 0x8, addend: 0x0, symName: '__ZN4core3ptr1375drop_in_place$LT$core..option..Option$LT$rayon_core..registry..Registry..in_worker_cold$LT$rayon_core..join..join_context$LT$rayon..iter..plumbing..bridge_producer_consumer..helper$LT$rayon..vec..DrainProducer$LT$typg_core..search..TypgFontFaceMatch$GT$$C$rayon..iter..filter..FilterConsumer$LT$rayon..iter..collect..consumer..CollectConsumer$LT$typg_core..search..TypgFontFaceMatch$GT$$C$typg_core..search..search..$u7b$$u7b$closure$u7d$$u7d$..$u7b$$u7b$closure$u7d$$u7d$$GT$$GT$..$u7b$$u7b$closure$u7d$$u7d$$C$rayon..iter..plumbing..bridge_producer_consumer..helper$LT$rayon..vec..DrainProducer$LT$typg_core..search..TypgFontFaceMatch$GT$$C$rayon..iter..filter..FilterConsumer$LT$rayon..iter..collect..consumer..CollectConsumer$LT$typg_core..search..TypgFontFaceMatch$GT$$C$typg_core..search..search..$u7b$$u7b$closure$u7d$$u7d$..$u7b$$u7b$closure$u7d$$u7d$$GT$$GT$..$u7b$$u7b$closure$u7d$$u7d$$C$rayon..iter..collect..consumer..CollectResult$LT$typg_core..search..TypgFontFaceMatch$GT$$C$rayon..iter..collect..consumer..CollectResult$LT$typg_core..search..TypgFontFaceMatch$GT$$GT$..$u7b$$u7b$closure$u7d$$u7d$$C$$LP$rayon..iter..collect..consumer..CollectResult$LT$typg_core..search..TypgFontFaceMatch$GT$$C$rayon..iter..collect..consumer..CollectResult$LT$typg_core..search..TypgFontFaceMatch$GT$$RP$$GT$..$u7b$$u7b$closure$u7d$$u7d$..$u7b$$u7b$closure$u7d$$u7d$$GT$$GT$17h85be9fbf5926b8fdE', symObjAddr: 0x2338, symBinAddr: 0x2FAFC, symSize: 0x44 }
  - { offset: 0x9B5ED, size: 0x8, addend: 0x0, symName: '__ZN4core3ptr1377drop_in_place$LT$core..cell..UnsafeCell$LT$core..option..Option$LT$rayon_core..registry..Registry..in_worker_cross$LT$rayon_core..join..join_context$LT$rayon..iter..plumbing..bridge_producer_consumer..helper$LT$rayon..vec..DrainProducer$LT$typg_core..search..TypgFontFaceMatch$GT$$C$rayon..iter..filter..FilterConsumer$LT$rayon..iter..collect..consumer..CollectConsumer$LT$typg_core..search..TypgFontFaceMatch$GT$$C$typg_core..search..search..$u7b$$u7b$closure$u7d$$u7d$..$u7b$$u7b$closure$u7d$$u7d$$GT$$GT$..$u7b$$u7b$closure$u7d$$u7d$$C$rayon..iter..plumbing..bridge_producer_consumer..helper$LT$rayon..vec..DrainProducer$LT$typg_core..search..TypgFontFaceMatch$GT$$C$rayon..iter..filter..FilterConsumer$LT$rayon..iter..collect..consumer..CollectConsumer$LT$typg_core..search..TypgFontFaceMatch$GT$$C$typg_core..search..search..$u7b$$u7b$closure$u7d$$u7d$..$u7b$$u7b$closure$u7d$$u7d$$GT$$GT$..$u7b$$u7b$closure$u7d$$u7d$$C$rayon..iter..collect..consumer..CollectResult$LT$typg_core..search..TypgFontFaceMatch$GT$$C$rayon..iter..collect..consumer..CollectResult$LT$typg_core..search..TypgFontFaceMatch$GT$$GT$..$u7b$$u7b$closure$u7d$$u7d$$C$$LP$rayon..iter..collect..consumer..CollectResult$LT$typg_core..search..TypgFontFaceMatch$GT$$C$rayon..iter..collect..consumer..CollectResult$LT$typg_core..search..TypgFontFaceMatch$GT$$RP$$GT$..$u7b$$u7b$closure$u7d$$u7d$$GT$$GT$$GT$17h76e8401353dd3f20E', symObjAddr: 0x237C, symBinAddr: 0x2FB40, symSize: 0x24 }
  - { offset: 0x9B61C, size: 0x8, addend: 0x0, symName: '__ZN4core3ptr1379drop_in_place$LT$core..cell..UnsafeCell$LT$core..option..Option$LT$rayon_core..registry..Registry..in_worker_cold$LT$rayon_core..join..join_context$LT$rayon..iter..plumbing..bridge_producer_consumer..helper$LT$rayon..vec..DrainProducer$LT$typg_core..search..TypgFontFaceMatch$GT$$C$rayon..iter..filter..FilterConsumer$LT$rayon..iter..extend..ListVecConsumer$C$typg_core..search..search..$u7b$$u7b$closure$u7d$$u7d$..$u7b$$u7b$closure$u7d$$u7d$$GT$$GT$..$u7b$$u7b$closure$u7d$$u7d$$C$rayon..iter..plumbing..bridge_producer_consumer..helper$LT$rayon..vec..DrainProducer$LT$typg_core..search..TypgFontFaceMatch$GT$$C$rayon..iter..filter..FilterConsumer$LT$rayon..iter..extend..ListVecConsumer$C$typg_core..search..search..$u7b$$u7b$closure$u7d$$u7d$..$u7b$$u7b$closure$u7d$$u7d$$GT$$GT$..$u7b$$u7b$closure$u7d$$u7d$$C$alloc..collections..linked_list..LinkedList$LT$alloc..vec..Vec$LT$typg_core..search..TypgFontFaceMatch$GT$$GT$$C$alloc..collections..linked_list..LinkedList$LT$alloc..vec..Vec$LT$typg_core..search..TypgFontFaceMatch$GT$$GT$$GT$..$u7b$$u7b$closure$u7d$$u7d$$C$$LP$alloc..collections..linked_list..LinkedList$LT$alloc..vec..Vec$LT$typg_core..search..TypgFontFaceMatch$GT$$GT$$C$alloc..collections..linked_list..LinkedList$LT$alloc..vec..Vec$LT$typg_core..search..TypgFontFaceMatch$GT$$GT$$RP$$GT$..$u7b$$u7b$closure$u7d$$u7d$..$u7b$$u7b$closure$u7d$$u7d$$GT$$GT$$GT$17hd9117c135b180386E', symObjAddr: 0x23A0, symBinAddr: 0x2FB64, symSize: 0x24 }
  - { offset: 0x9B64B, size: 0x8, addend: 0x0, symName: '__ZN4core3ptr138drop_in_place$LT$core..option..Option$LT$rayon..iter..collect..consumer..CollectResult$LT$typg_core..search..TypgFontFaceMatch$GT$$GT$$GT$17hf7eb9a42e3e85688E', symObjAddr: 0x23C4, symBinAddr: 0x2FB88, symSize: 0x40 }
  - { offset: 0x9B67A, size: 0x8, addend: 0x0, symName: '__ZN4core3ptr1405drop_in_place$LT$core..cell..UnsafeCell$LT$core..option..Option$LT$rayon_core..registry..Registry..in_worker_cold$LT$rayon_core..join..join_context$LT$rayon..iter..plumbing..bridge_producer_consumer..helper$LT$rayon..vec..DrainProducer$LT$typg_core..search..TypgFontFaceMatch$GT$$C$rayon..iter..filter..FilterConsumer$LT$rayon..iter..collect..consumer..CollectConsumer$LT$typg_core..search..TypgFontFaceMatch$GT$$C$typg_core..search..search..$u7b$$u7b$closure$u7d$$u7d$..$u7b$$u7b$closure$u7d$$u7d$$GT$$GT$..$u7b$$u7b$closure$u7d$$u7d$$C$rayon..iter..plumbing..bridge_producer_consumer..helper$LT$rayon..vec..DrainProducer$LT$typg_core..search..TypgFontFaceMatch$GT$$C$rayon..iter..filter..FilterConsumer$LT$rayon..iter..collect..consumer..CollectConsumer$LT$typg_core..search..TypgFontFaceMatch$GT$$C$typg_core..search..search..$u7b$$u7b$closure$u7d$$u7d$..$u7b$$u7b$closure$u7d$$u7d$$GT$$GT$..$u7b$$u7b$closure$u7d$$u7d$$C$rayon..iter..collect..consumer..CollectResult$LT$typg_core..search..TypgFontFaceMatch$GT$$C$rayon..iter..collect..consumer..CollectResult$LT$typg_core..search..TypgFontFaceMatch$GT$$GT$..$u7b$$u7b$closure$u7d$$u7d$$C$$LP$rayon..iter..collect..consumer..CollectResult$LT$typg_core..search..TypgFontFaceMatch$GT$$C$rayon..iter..collect..consumer..CollectResult$LT$typg_core..search..TypgFontFaceMatch$GT$$RP$$GT$..$u7b$$u7b$closure$u7d$$u7d$..$u7b$$u7b$closure$u7d$$u7d$$GT$$GT$$GT$17h4646540daba39728E', symObjAddr: 0x2404, symBinAddr: 0x2FBC8, symSize: 0x24 }
  - { offset: 0x9B6A9, size: 0x8, addend: 0x0, symName: '__ZN4core3ptr1428drop_in_place$LT$rayon_core..registry..Registry..in_worker_cold$LT$rayon_core..join..join_context$LT$rayon..iter..plumbing..bridge_producer_consumer..helper$LT$rayon..vec..DrainProducer$LT$alloc..vec..Vec$LT$typg_core..search..TypgFontFaceMatch$GT$$GT$$C$rayon..iter..flatten..FlattenConsumer$LT$rayon..iter..filter..FilterConsumer$LT$rayon..iter..extend..ListVecConsumer$C$typg_core..search..search..$u7b$$u7b$closure$u7d$$u7d$..$u7b$$u7b$closure$u7d$$u7d$$GT$$GT$$GT$..$u7b$$u7b$closure$u7d$$u7d$$C$rayon..iter..plumbing..bridge_producer_consumer..helper$LT$rayon..vec..DrainProducer$LT$alloc..vec..Vec$LT$typg_core..search..TypgFontFaceMatch$GT$$GT$$C$rayon..iter..flatten..FlattenConsumer$LT$rayon..iter..filter..FilterConsumer$LT$rayon..iter..extend..ListVecConsumer$C$typg_core..search..search..$u7b$$u7b$closure$u7d$$u7d$..$u7b$$u7b$closure$u7d$$u7d$$GT$$GT$$GT$..$u7b$$u7b$closure$u7d$$u7d$$C$alloc..collections..linked_list..LinkedList$LT$alloc..vec..Vec$LT$typg_core..search..TypgFontFaceMatch$GT$$GT$$C$alloc..collections..linked_list..LinkedList$LT$alloc..vec..Vec$LT$typg_core..search..TypgFontFaceMatch$GT$$GT$$GT$..$u7b$$u7b$closure$u7d$$u7d$$C$$LP$alloc..collections..linked_list..LinkedList$LT$alloc..vec..Vec$LT$typg_core..search..TypgFontFaceMatch$GT$$GT$$C$alloc..collections..linked_list..LinkedList$LT$alloc..vec..Vec$LT$typg_core..search..TypgFontFaceMatch$GT$$GT$$RP$$GT$..$u7b$$u7b$closure$u7d$$u7d$$GT$17h6740c77749ea074eE', symObjAddr: 0x2428, symBinAddr: 0x2FBEC, symSize: 0x24 }
  - { offset: 0x9B6D8, size: 0x8, addend: 0x0, symName: '__ZN4core3ptr1429drop_in_place$LT$rayon_core..registry..Registry..in_worker_cross$LT$rayon_core..join..join_context$LT$rayon..iter..plumbing..bridge_producer_consumer..helper$LT$rayon..vec..DrainProducer$LT$alloc..vec..Vec$LT$typg_core..search..TypgFontFaceMatch$GT$$GT$$C$rayon..iter..flatten..FlattenConsumer$LT$rayon..iter..filter..FilterConsumer$LT$rayon..iter..extend..ListVecConsumer$C$typg_core..search..search..$u7b$$u7b$closure$u7d$$u7d$..$u7b$$u7b$closure$u7d$$u7d$$GT$$GT$$GT$..$u7b$$u7b$closure$u7d$$u7d$$C$rayon..iter..plumbing..bridge_producer_consumer..helper$LT$rayon..vec..DrainProducer$LT$alloc..vec..Vec$LT$typg_core..search..TypgFontFaceMatch$GT$$GT$$C$rayon..iter..flatten..FlattenConsumer$LT$rayon..iter..filter..FilterConsumer$LT$rayon..iter..extend..ListVecConsumer$C$typg_core..search..search..$u7b$$u7b$closure$u7d$$u7d$..$u7b$$u7b$closure$u7d$$u7d$$GT$$GT$$GT$..$u7b$$u7b$closure$u7d$$u7d$$C$alloc..collections..linked_list..LinkedList$LT$alloc..vec..Vec$LT$typg_core..search..TypgFontFaceMatch$GT$$GT$$C$alloc..collections..linked_list..LinkedList$LT$alloc..vec..Vec$LT$typg_core..search..TypgFontFaceMatch$GT$$GT$$GT$..$u7b$$u7b$closure$u7d$$u7d$$C$$LP$alloc..collections..linked_list..LinkedList$LT$alloc..vec..Vec$LT$typg_core..search..TypgFontFaceMatch$GT$$GT$$C$alloc..collections..linked_list..LinkedList$LT$alloc..vec..Vec$LT$typg_core..search..TypgFontFaceMatch$GT$$GT$$RP$$GT$..$u7b$$u7b$closure$u7d$$u7d$$GT$17h3b118b7d5a0a6c29E', symObjAddr: 0x244C, symBinAddr: 0x2FC10, symSize: 0x24 }
  - { offset: 0x9B707, size: 0x8, addend: 0x0, symName: '__ZN4core3ptr144drop_in_place$LT$rayon_core..job..JobResult$LT$rayon..iter..collect..consumer..CollectResult$LT$typg_core..search..TypgFontFaceMatch$GT$$GT$$GT$17haa99e35ae8a1bf8dE', symObjAddr: 0x2470, symBinAddr: 0x2FC34, symSize: 0x64 }
  - { offset: 0x9B736, size: 0x8, addend: 0x0, symName: '__ZN4core3ptr144drop_in_place$LT$std..sync..poison..PoisonError$LT$std..sync..poison..mutex..MutexGuard$LT$core..option..Option$LT$anyhow..Error$GT$$GT$$GT$$GT$17h6d2ed70b56bcb017E', symObjAddr: 0x24D4, symBinAddr: 0x2FC98, symSize: 0x24 }
  - { offset: 0x9B765, size: 0x8, addend: 0x0, symName: '__ZN4core3ptr1454drop_in_place$LT$rayon_core..registry..Registry..in_worker_cold$LT$rayon_core..join..join_context$LT$rayon..iter..plumbing..bridge_producer_consumer..helper$LT$rayon..vec..DrainProducer$LT$alloc..vec..Vec$LT$typg_core..search..TypgFontFaceMatch$GT$$GT$$C$rayon..iter..flatten..FlattenConsumer$LT$rayon..iter..filter..FilterConsumer$LT$rayon..iter..collect..consumer..CollectConsumer$LT$typg_core..search..TypgFontFaceMatch$GT$$C$typg_core..search..search..$u7b$$u7b$closure$u7d$$u7d$..$u7b$$u7b$closure$u7d$$u7d$$GT$$GT$$GT$..$u7b$$u7b$closure$u7d$$u7d$$C$rayon..iter..plumbing..bridge_producer_consumer..helper$LT$rayon..vec..DrainProducer$LT$alloc..vec..Vec$LT$typg_core..search..TypgFontFaceMatch$GT$$GT$$C$rayon..iter..flatten..FlattenConsumer$LT$rayon..iter..filter..FilterConsumer$LT$rayon..iter..collect..consumer..CollectConsumer$LT$typg_core..search..TypgFontFaceMatch$GT$$C$typg_core..search..search..$u7b$$u7b$closure$u7d$$u7d$..$u7b$$u7b$closure$u7d$$u7d$$GT$$GT$$GT$..$u7b$$u7b$closure$u7d$$u7d$$C$rayon..iter..collect..consumer..CollectResult$LT$typg_core..search..TypgFontFaceMatch$GT$$C$rayon..iter..collect..consumer..CollectResult$LT$typg_core..search..TypgFontFaceMatch$GT$$GT$..$u7b$$u7b$closure$u7d$$u7d$$C$$LP$rayon..iter..collect..consumer..CollectResult$LT$typg_core..search..TypgFontFaceMatch$GT$$C$rayon..iter..collect..consumer..CollectResult$LT$typg_core..search..TypgFontFaceMatch$GT$$RP$$GT$..$u7b$$u7b$closure$u7d$$u7d$$GT$17hd22febf3d285de3bE', symObjAddr: 0x24F8, symBinAddr: 0x2FCBC, symSize: 0x24 }
  - { offset: 0x9B794, size: 0x8, addend: 0x0, symName: '__ZN4core3ptr1455drop_in_place$LT$rayon_core..registry..Registry..in_worker_cross$LT$rayon_core..join..join_context$LT$rayon..iter..plumbing..bridge_producer_consumer..helper$LT$rayon..vec..DrainProducer$LT$alloc..vec..Vec$LT$typg_core..search..TypgFontFaceMatch$GT$$GT$$C$rayon..iter..flatten..FlattenConsumer$LT$rayon..iter..filter..FilterConsumer$LT$rayon..iter..collect..consumer..CollectConsumer$LT$typg_core..search..TypgFontFaceMatch$GT$$C$typg_core..search..search..$u7b$$u7b$closure$u7d$$u7d$..$u7b$$u7b$closure$u7d$$u7d$$GT$$GT$$GT$..$u7b$$u7b$closure$u7d$$u7d$$C$rayon..iter..plumbing..bridge_producer_consumer..helper$LT$rayon..vec..DrainProducer$LT$alloc..vec..Vec$LT$typg_core..search..TypgFontFaceMatch$GT$$GT$$C$rayon..iter..flatten..FlattenConsumer$LT$rayon..iter..filter..FilterConsumer$LT$rayon..iter..collect..consumer..CollectConsumer$LT$typg_core..search..TypgFontFaceMatch$GT$$C$typg_core..search..search..$u7b$$u7b$closure$u7d$$u7d$..$u7b$$u7b$closure$u7d$$u7d$$GT$$GT$$GT$..$u7b$$u7b$closure$u7d$$u7d$$C$rayon..iter..collect..consumer..CollectResult$LT$typg_core..search..TypgFontFaceMatch$GT$$C$rayon..iter..collect..consumer..CollectResult$LT$typg_core..search..TypgFontFaceMatch$GT$$GT$..$u7b$$u7b$closure$u7d$$u7d$$C$$LP$rayon..iter..collect..consumer..CollectResult$LT$typg_core..search..TypgFontFaceMatch$GT$$C$rayon..iter..collect..consumer..CollectResult$LT$typg_core..search..TypgFontFaceMatch$GT$$RP$$GT$..$u7b$$u7b$closure$u7d$$u7d$$GT$17h0e0c6242a9fd5377E', symObjAddr: 0x251C, symBinAddr: 0x2FCE0, symSize: 0x24 }
  - { offset: 0x9B7C3, size: 0x8, addend: 0x0, symName: '__ZN4core3ptr1457drop_in_place$LT$core..option..Option$LT$rayon_core..registry..Registry..in_worker_cross$LT$rayon_core..join..join_context$LT$rayon..iter..plumbing..bridge_producer_consumer..helper$LT$rayon..vec..DrainProducer$LT$alloc..vec..Vec$LT$typg_core..search..TypgFontFaceMatch$GT$$GT$$C$rayon..iter..flatten..FlattenConsumer$LT$rayon..iter..filter..FilterConsumer$LT$rayon..iter..extend..ListVecConsumer$C$typg_core..search..search..$u7b$$u7b$closure$u7d$$u7d$..$u7b$$u7b$closure$u7d$$u7d$$GT$$GT$$GT$..$u7b$$u7b$closure$u7d$$u7d$$C$rayon..iter..plumbing..bridge_producer_consumer..helper$LT$rayon..vec..DrainProducer$LT$alloc..vec..Vec$LT$typg_core..search..TypgFontFaceMatch$GT$$GT$$C$rayon..iter..flatten..FlattenConsumer$LT$rayon..iter..filter..FilterConsumer$LT$rayon..iter..extend..ListVecConsumer$C$typg_core..search..search..$u7b$$u7b$closure$u7d$$u7d$..$u7b$$u7b$closure$u7d$$u7d$$GT$$GT$$GT$..$u7b$$u7b$closure$u7d$$u7d$$C$alloc..collections..linked_list..LinkedList$LT$alloc..vec..Vec$LT$typg_core..search..TypgFontFaceMatch$GT$$GT$$C$alloc..collections..linked_list..LinkedList$LT$alloc..vec..Vec$LT$typg_core..search..TypgFontFaceMatch$GT$$GT$$GT$..$u7b$$u7b$closure$u7d$$u7d$$C$$LP$alloc..collections..linked_list..LinkedList$LT$alloc..vec..Vec$LT$typg_core..search..TypgFontFaceMatch$GT$$GT$$C$alloc..collections..linked_list..LinkedList$LT$alloc..vec..Vec$LT$typg_core..search..TypgFontFaceMatch$GT$$GT$$RP$$GT$..$u7b$$u7b$closure$u7d$$u7d$$GT$$GT$17heb848759f37c3257E', symObjAddr: 0x2540, symBinAddr: 0x2FD04, symSize: 0x44 }
  - { offset: 0x9B7F2, size: 0x8, addend: 0x0, symName: '__ZN4core3ptr1457drop_in_place$LT$rayon_core..registry..Registry..in_worker_cold$LT$rayon_core..join..join_context$LT$rayon..iter..plumbing..bridge_producer_consumer..helper$LT$rayon..vec..DrainProducer$LT$alloc..vec..Vec$LT$typg_core..search..TypgFontFaceMatch$GT$$GT$$C$rayon..iter..flatten..FlattenConsumer$LT$rayon..iter..filter..FilterConsumer$LT$rayon..iter..extend..ListVecConsumer$C$typg_core..search..search..$u7b$$u7b$closure$u7d$$u7d$..$u7b$$u7b$closure$u7d$$u7d$$GT$$GT$$GT$..$u7b$$u7b$closure$u7d$$u7d$$C$rayon..iter..plumbing..bridge_producer_consumer..helper$LT$rayon..vec..DrainProducer$LT$alloc..vec..Vec$LT$typg_core..search..TypgFontFaceMatch$GT$$GT$$C$rayon..iter..flatten..FlattenConsumer$LT$rayon..iter..filter..FilterConsumer$LT$rayon..iter..extend..ListVecConsumer$C$typg_core..search..search..$u7b$$u7b$closure$u7d$$u7d$..$u7b$$u7b$closure$u7d$$u7d$$GT$$GT$$GT$..$u7b$$u7b$closure$u7d$$u7d$$C$alloc..collections..linked_list..LinkedList$LT$alloc..vec..Vec$LT$typg_core..search..TypgFontFaceMatch$GT$$GT$$C$alloc..collections..linked_list..LinkedList$LT$alloc..vec..Vec$LT$typg_core..search..TypgFontFaceMatch$GT$$GT$$GT$..$u7b$$u7b$closure$u7d$$u7d$$C$$LP$alloc..collections..linked_list..LinkedList$LT$alloc..vec..Vec$LT$typg_core..search..TypgFontFaceMatch$GT$$GT$$C$alloc..collections..linked_list..LinkedList$LT$alloc..vec..Vec$LT$typg_core..search..TypgFontFaceMatch$GT$$GT$$RP$$GT$..$u7b$$u7b$closure$u7d$$u7d$..$u7b$$u7b$closure$u7d$$u7d$$GT$17h51d10e6b80d687d6E', symObjAddr: 0x2584, symBinAddr: 0x2FD48, symSize: 0x24 }
  - { offset: 0x9B821, size: 0x8, addend: 0x0, symName: '__ZN4core3ptr145drop_in_place$LT$alloc..boxed..Box$LT$anyhow..error..ErrorImpl$LT$core..mem..manually_drop..ManuallyDrop$LT$walkdir..error..Error$GT$$GT$$GT$$GT$17h05babc42c316e3acE', symObjAddr: 0x25A8, symBinAddr: 0x2FD6C, symSize: 0x60 }
  - { offset: 0x9B850, size: 0x8, addend: 0x0, symName: '__ZN4core3ptr145drop_in_place$LT$rayon..iter..flatten..Flatten$LT$rayon..vec..IntoIter$LT$alloc..vec..Vec$LT$typg_core..search..TypgFontFaceMatch$GT$$GT$$GT$$GT$17h21ba222f08576f26E', symObjAddr: 0x2608, symBinAddr: 0x2FDCC, symSize: 0x24 }
  - { offset: 0x9B87F, size: 0x8, addend: 0x0, symName: '__ZN4core3ptr145drop_in_place$LT$std..sync..poison..TryLockError$LT$std..sync..poison..mutex..MutexGuard$LT$core..option..Option$LT$anyhow..Error$GT$$GT$$GT$$GT$17ha0da482024752537E', symObjAddr: 0x262C, symBinAddr: 0x2FDF0, symSize: 0x48 }
  - { offset: 0x9B8AE, size: 0x8, addend: 0x0, symName: '__ZN4core3ptr147drop_in_place$LT$anyhow..error..ContextError$LT$alloc..string..String$C$core..mem..manually_drop..ManuallyDrop$LT$std..io..error..Error$GT$$GT$$GT$17hcead0039a74f0cf6E', symObjAddr: 0x2674, symBinAddr: 0x2FE38, symSize: 0x24 }
  - { offset: 0x9B8DD, size: 0x8, addend: 0x0, symName: '__ZN4core3ptr147drop_in_place$LT$anyhow..error..ContextError$LT$core..mem..manually_drop..ManuallyDrop$LT$alloc..string..String$GT$$C$std..io..error..Error$GT$$GT$17hcd2dd189f1977546E', symObjAddr: 0x2698, symBinAddr: 0x2FE5C, symSize: 0x24 }
  - { offset: 0x9B90C, size: 0x8, addend: 0x0, symName: '__ZN4core3ptr147drop_in_place$LT$std..sync..poison..mutex..MutexGuard$LT$alloc..vec..Vec$LT$alloc..boxed..Box$LT$regex_automata..meta..regex..Cache$GT$$GT$$GT$$GT$17h492eff0a9e4a6d75E', symObjAddr: 0x26BC, symBinAddr: 0x2FE80, symSize: 0x24 }
  - { offset: 0x9B93B, size: 0x8, addend: 0x0, symName: '__ZN4core3ptr1483drop_in_place$LT$core..option..Option$LT$rayon_core..registry..Registry..in_worker_cross$LT$rayon_core..join..join_context$LT$rayon..iter..plumbing..bridge_producer_consumer..helper$LT$rayon..vec..DrainProducer$LT$alloc..vec..Vec$LT$typg_core..search..TypgFontFaceMatch$GT$$GT$$C$rayon..iter..flatten..FlattenConsumer$LT$rayon..iter..filter..FilterConsumer$LT$rayon..iter..collect..consumer..CollectConsumer$LT$typg_core..search..TypgFontFaceMatch$GT$$C$typg_core..search..search..$u7b$$u7b$closure$u7d$$u7d$..$u7b$$u7b$closure$u7d$$u7d$$GT$$GT$$GT$..$u7b$$u7b$closure$u7d$$u7d$$C$rayon..iter..plumbing..bridge_producer_consumer..helper$LT$rayon..vec..DrainProducer$LT$alloc..vec..Vec$LT$typg_core..search..TypgFontFaceMatch$GT$$GT$$C$rayon..iter..flatten..FlattenConsumer$LT$rayon..iter..filter..FilterConsumer$LT$rayon..iter..collect..consumer..CollectConsumer$LT$typg_core..search..TypgFontFaceMatch$GT$$C$typg_core..search..search..$u7b$$u7b$closure$u7d$$u7d$..$u7b$$u7b$closure$u7d$$u7d$$GT$$GT$$GT$..$u7b$$u7b$closure$u7d$$u7d$$C$rayon..iter..collect..consumer..CollectResult$LT$typg_core..search..TypgFontFaceMatch$GT$$C$rayon..iter..collect..consumer..CollectResult$LT$typg_core..search..TypgFontFaceMatch$GT$$GT$..$u7b$$u7b$closure$u7d$$u7d$$C$$LP$rayon..iter..collect..consumer..CollectResult$LT$typg_core..search..TypgFontFaceMatch$GT$$C$rayon..iter..collect..consumer..CollectResult$LT$typg_core..search..TypgFontFaceMatch$GT$$RP$$GT$..$u7b$$u7b$closure$u7d$$u7d$$GT$$GT$17h963b1fb2d83bf690E', symObjAddr: 0x26E0, symBinAddr: 0x2FEA4, symSize: 0x44 }
  - { offset: 0x9B96A, size: 0x8, addend: 0x0, symName: '__ZN4core3ptr1483drop_in_place$LT$rayon_core..registry..Registry..in_worker_cold$LT$rayon_core..join..join_context$LT$rayon..iter..plumbing..bridge_producer_consumer..helper$LT$rayon..vec..DrainProducer$LT$alloc..vec..Vec$LT$typg_core..search..TypgFontFaceMatch$GT$$GT$$C$rayon..iter..flatten..FlattenConsumer$LT$rayon..iter..filter..FilterConsumer$LT$rayon..iter..collect..consumer..CollectConsumer$LT$typg_core..search..TypgFontFaceMatch$GT$$C$typg_core..search..search..$u7b$$u7b$closure$u7d$$u7d$..$u7b$$u7b$closure$u7d$$u7d$$GT$$GT$$GT$..$u7b$$u7b$closure$u7d$$u7d$$C$rayon..iter..plumbing..bridge_producer_consumer..helper$LT$rayon..vec..DrainProducer$LT$alloc..vec..Vec$LT$typg_core..search..TypgFontFaceMatch$GT$$GT$$C$rayon..iter..flatten..FlattenConsumer$LT$rayon..iter..filter..FilterConsumer$LT$rayon..iter..collect..consumer..CollectConsumer$LT$typg_core..search..TypgFontFaceMatch$GT$$C$typg_core..search..search..$u7b$$u7b$closure$u7d$$u7d$..$u7b$$u7b$closure$u7d$$u7d$$GT$$GT$$GT$..$u7b$$u7b$closure$u7d$$u7d$$C$rayon..iter..collect..consumer..CollectResult$LT$typg_core..search..TypgFontFaceMatch$GT$$C$rayon..iter..collect..consumer..CollectResult$LT$typg_core..search..TypgFontFaceMatch$GT$$GT$..$u7b$$u7b$closure$u7d$$u7d$$C$$LP$rayon..iter..collect..consumer..CollectResult$LT$typg_core..search..TypgFontFaceMatch$GT$$C$rayon..iter..collect..consumer..CollectResult$LT$typg_core..search..TypgFontFaceMatch$GT$$RP$$GT$..$u7b$$u7b$closure$u7d$$u7d$..$u7b$$u7b$closure$u7d$$u7d$$GT$17h83dcda56e29be7b3E', symObjAddr: 0x2724, symBinAddr: 0x2FEE8, symSize: 0x24 }
  - { offset: 0x9B999, size: 0x8, addend: 0x0, symName: '__ZN4core3ptr1485drop_in_place$LT$core..option..Option$LT$rayon_core..registry..Registry..in_worker_cold$LT$rayon_core..join..join_context$LT$rayon..iter..plumbing..bridge_producer_consumer..helper$LT$rayon..vec..DrainProducer$LT$alloc..vec..Vec$LT$typg_core..search..TypgFontFaceMatch$GT$$GT$$C$rayon..iter..flatten..FlattenConsumer$LT$rayon..iter..filter..FilterConsumer$LT$rayon..iter..extend..ListVecConsumer$C$typg_core..search..search..$u7b$$u7b$closure$u7d$$u7d$..$u7b$$u7b$closure$u7d$$u7d$$GT$$GT$$GT$..$u7b$$u7b$closure$u7d$$u7d$$C$rayon..iter..plumbing..bridge_producer_consumer..helper$LT$rayon..vec..DrainProducer$LT$alloc..vec..Vec$LT$typg_core..search..TypgFontFaceMatch$GT$$GT$$C$rayon..iter..flatten..FlattenConsumer$LT$rayon..iter..filter..FilterConsumer$LT$rayon..iter..extend..ListVecConsumer$C$typg_core..search..search..$u7b$$u7b$closure$u7d$$u7d$..$u7b$$u7b$closure$u7d$$u7d$$GT$$GT$$GT$..$u7b$$u7b$closure$u7d$$u7d$$C$alloc..collections..linked_list..LinkedList$LT$alloc..vec..Vec$LT$typg_core..search..TypgFontFaceMatch$GT$$GT$$C$alloc..collections..linked_list..LinkedList$LT$alloc..vec..Vec$LT$typg_core..search..TypgFontFaceMatch$GT$$GT$$GT$..$u7b$$u7b$closure$u7d$$u7d$$C$$LP$alloc..collections..linked_list..LinkedList$LT$alloc..vec..Vec$LT$typg_core..search..TypgFontFaceMatch$GT$$GT$$C$alloc..collections..linked_list..LinkedList$LT$alloc..vec..Vec$LT$typg_core..search..TypgFontFaceMatch$GT$$GT$$RP$$GT$..$u7b$$u7b$closure$u7d$$u7d$..$u7b$$u7b$closure$u7d$$u7d$$GT$$GT$17h9fb8ecc50a430607E', symObjAddr: 0x2748, symBinAddr: 0x2FF0C, symSize: 0x44 }
  - { offset: 0x9B9C8, size: 0x8, addend: 0x0, symName: '__ZN4core3ptr1487drop_in_place$LT$core..cell..UnsafeCell$LT$core..option..Option$LT$rayon_core..registry..Registry..in_worker_cross$LT$rayon_core..join..join_context$LT$rayon..iter..plumbing..bridge_producer_consumer..helper$LT$rayon..vec..DrainProducer$LT$alloc..vec..Vec$LT$typg_core..search..TypgFontFaceMatch$GT$$GT$$C$rayon..iter..flatten..FlattenConsumer$LT$rayon..iter..filter..FilterConsumer$LT$rayon..iter..extend..ListVecConsumer$C$typg_core..search..search..$u7b$$u7b$closure$u7d$$u7d$..$u7b$$u7b$closure$u7d$$u7d$$GT$$GT$$GT$..$u7b$$u7b$closure$u7d$$u7d$$C$rayon..iter..plumbing..bridge_producer_consumer..helper$LT$rayon..vec..DrainProducer$LT$alloc..vec..Vec$LT$typg_core..search..TypgFontFaceMatch$GT$$GT$$C$rayon..iter..flatten..FlattenConsumer$LT$rayon..iter..filter..FilterConsumer$LT$rayon..iter..extend..ListVecConsumer$C$typg_core..search..search..$u7b$$u7b$closure$u7d$$u7d$..$u7b$$u7b$closure$u7d$$u7d$$GT$$GT$$GT$..$u7b$$u7b$closure$u7d$$u7d$$C$alloc..collections..linked_list..LinkedList$LT$alloc..vec..Vec$LT$typg_core..search..TypgFontFaceMatch$GT$$GT$$C$alloc..collections..linked_list..LinkedList$LT$alloc..vec..Vec$LT$typg_core..search..TypgFontFaceMatch$GT$$GT$$GT$..$u7b$$u7b$closure$u7d$$u7d$$C$$LP$alloc..collections..linked_list..LinkedList$LT$alloc..vec..Vec$LT$typg_core..search..TypgFontFaceMatch$GT$$GT$$C$alloc..collections..linked_list..LinkedList$LT$alloc..vec..Vec$LT$typg_core..search..TypgFontFaceMatch$GT$$GT$$RP$$GT$..$u7b$$u7b$closure$u7d$$u7d$$GT$$GT$$GT$17hf25aa520ccbaf32aE', symObjAddr: 0x278C, symBinAddr: 0x2FF50, symSize: 0x24 }
  - { offset: 0x9B9F7, size: 0x8, addend: 0x0, symName: '__ZN4core3ptr148drop_in_place$LT$alloc..collections..linked_list..Node$LT$alloc..vec..Vec$LT$alloc..vec..Vec$LT$typg_core..search..TypgFontFaceMatch$GT$$GT$$GT$$GT$17h17bca9e5fc80095fE', symObjAddr: 0x27B0, symBinAddr: 0x2FF74, symSize: 0x24 }
  - { offset: 0x9BA26, size: 0x8, addend: 0x0, symName: '__ZN4core3ptr1511drop_in_place$LT$core..option..Option$LT$rayon_core..registry..Registry..in_worker_cold$LT$rayon_core..join..join_context$LT$rayon..iter..plumbing..bridge_producer_consumer..helper$LT$rayon..vec..DrainProducer$LT$alloc..vec..Vec$LT$typg_core..search..TypgFontFaceMatch$GT$$GT$$C$rayon..iter..flatten..FlattenConsumer$LT$rayon..iter..filter..FilterConsumer$LT$rayon..iter..collect..consumer..CollectConsumer$LT$typg_core..search..TypgFontFaceMatch$GT$$C$typg_core..search..search..$u7b$$u7b$closure$u7d$$u7d$..$u7b$$u7b$closure$u7d$$u7d$$GT$$GT$$GT$..$u7b$$u7b$closure$u7d$$u7d$$C$rayon..iter..plumbing..bridge_producer_consumer..helper$LT$rayon..vec..DrainProducer$LT$alloc..vec..Vec$LT$typg_core..search..TypgFontFaceMatch$GT$$GT$$C$rayon..iter..flatten..FlattenConsumer$LT$rayon..iter..filter..FilterConsumer$LT$rayon..iter..collect..consumer..CollectConsumer$LT$typg_core..search..TypgFontFaceMatch$GT$$C$typg_core..search..search..$u7b$$u7b$closure$u7d$$u7d$..$u7b$$u7b$closure$u7d$$u7d$$GT$$GT$$GT$..$u7b$$u7b$closure$u7d$$u7d$$C$rayon..iter..collect..consumer..CollectResult$LT$typg_core..search..TypgFontFaceMatch$GT$$C$rayon..iter..collect..consumer..CollectResult$LT$typg_core..search..TypgFontFaceMatch$GT$$GT$..$u7b$$u7b$closure$u7d$$u7d$$C$$LP$rayon..iter..collect..consumer..CollectResult$LT$typg_core..search..TypgFontFaceMatch$GT$$C$rayon..iter..collect..consumer..CollectResult$LT$typg_core..search..TypgFontFaceMatch$GT$$RP$$GT$..$u7b$$u7b$closure$u7d$$u7d$..$u7b$$u7b$closure$u7d$$u7d$$GT$$GT$17hc3a21ac899fc71d4E', symObjAddr: 0x27D4, symBinAddr: 0x2FF98, symSize: 0x44 }
  - { offset: 0x9BA55, size: 0x8, addend: 0x0, symName: '__ZN4core3ptr1513drop_in_place$LT$core..cell..UnsafeCell$LT$core..option..Option$LT$rayon_core..registry..Registry..in_worker_cross$LT$rayon_core..join..join_context$LT$rayon..iter..plumbing..bridge_producer_consumer..helper$LT$rayon..vec..DrainProducer$LT$alloc..vec..Vec$LT$typg_core..search..TypgFontFaceMatch$GT$$GT$$C$rayon..iter..flatten..FlattenConsumer$LT$rayon..iter..filter..FilterConsumer$LT$rayon..iter..collect..consumer..CollectConsumer$LT$typg_core..search..TypgFontFaceMatch$GT$$C$typg_core..search..search..$u7b$$u7b$closure$u7d$$u7d$..$u7b$$u7b$closure$u7d$$u7d$$GT$$GT$$GT$..$u7b$$u7b$closure$u7d$$u7d$$C$rayon..iter..plumbing..bridge_producer_consumer..helper$LT$rayon..vec..DrainProducer$LT$alloc..vec..Vec$LT$typg_core..search..TypgFontFaceMatch$GT$$GT$$C$rayon..iter..flatten..FlattenConsumer$LT$rayon..iter..filter..FilterConsumer$LT$rayon..iter..collect..consumer..CollectConsumer$LT$typg_core..search..TypgFontFaceMatch$GT$$C$typg_core..search..search..$u7b$$u7b$closure$u7d$$u7d$..$u7b$$u7b$closure$u7d$$u7d$$GT$$GT$$GT$..$u7b$$u7b$closure$u7d$$u7d$$C$rayon..iter..collect..consumer..CollectResult$LT$typg_core..search..TypgFontFaceMatch$GT$$C$rayon..iter..collect..consumer..CollectResult$LT$typg_core..search..TypgFontFaceMatch$GT$$GT$..$u7b$$u7b$closure$u7d$$u7d$$C$$LP$rayon..iter..collect..consumer..CollectResult$LT$typg_core..search..TypgFontFaceMatch$GT$$C$rayon..iter..collect..consumer..CollectResult$LT$typg_core..search..TypgFontFaceMatch$GT$$RP$$GT$..$u7b$$u7b$closure$u7d$$u7d$$GT$$GT$$GT$17hb25c4d44cb6d4714E', symObjAddr: 0x2818, symBinAddr: 0x2FFDC, symSize: 0x24 }
  - { offset: 0x9BA84, size: 0x8, addend: 0x0, symName: '__ZN4core3ptr1515drop_in_place$LT$core..cell..UnsafeCell$LT$core..option..Option$LT$rayon_core..registry..Registry..in_worker_cold$LT$rayon_core..join..join_context$LT$rayon..iter..plumbing..bridge_producer_consumer..helper$LT$rayon..vec..DrainProducer$LT$alloc..vec..Vec$LT$typg_core..search..TypgFontFaceMatch$GT$$GT$$C$rayon..iter..flatten..FlattenConsumer$LT$rayon..iter..filter..FilterConsumer$LT$rayon..iter..extend..ListVecConsumer$C$typg_core..search..search..$u7b$$u7b$closure$u7d$$u7d$..$u7b$$u7b$closure$u7d$$u7d$$GT$$GT$$GT$..$u7b$$u7b$closure$u7d$$u7d$$C$rayon..iter..plumbing..bridge_producer_consumer..helper$LT$rayon..vec..DrainProducer$LT$alloc..vec..Vec$LT$typg_core..search..TypgFontFaceMatch$GT$$GT$$C$rayon..iter..flatten..FlattenConsumer$LT$rayon..iter..filter..FilterConsumer$LT$rayon..iter..extend..ListVecConsumer$C$typg_core..search..search..$u7b$$u7b$closure$u7d$$u7d$..$u7b$$u7b$closure$u7d$$u7d$$GT$$GT$$GT$..$u7b$$u7b$closure$u7d$$u7d$$C$alloc..collections..linked_list..LinkedList$LT$alloc..vec..Vec$LT$typg_core..search..TypgFontFaceMatch$GT$$GT$$C$alloc..collections..linked_list..LinkedList$LT$alloc..vec..Vec$LT$typg_core..search..TypgFontFaceMatch$GT$$GT$$GT$..$u7b$$u7b$closure$u7d$$u7d$$C$$LP$alloc..collections..linked_list..LinkedList$LT$alloc..vec..Vec$LT$typg_core..search..TypgFontFaceMatch$GT$$GT$$C$alloc..collections..linked_list..LinkedList$LT$alloc..vec..Vec$LT$typg_core..search..TypgFontFaceMatch$GT$$GT$$RP$$GT$..$u7b$$u7b$closure$u7d$$u7d$..$u7b$$u7b$closure$u7d$$u7d$$GT$$GT$$GT$17h956e653b5c8ee78bE', symObjAddr: 0x283C, symBinAddr: 0x30000, symSize: 0x24 }
  - { offset: 0x9BAB3, size: 0x8, addend: 0x0, symName: '__ZN4core3ptr151drop_in_place$LT$alloc..boxed..Box$LT$anyhow..error..ErrorImpl$LT$core..mem..manually_drop..ManuallyDrop$LT$read_fonts..read..ReadError$GT$$GT$$GT$$GT$17he6a8916c0d00ddc1E', symObjAddr: 0x2860, symBinAddr: 0x30024, symSize: 0x60 }
  - { offset: 0x9BAE2, size: 0x8, addend: 0x0, symName: '__ZN4core3ptr152drop_in_place$LT$alloc..collections..linked_list..IntoIter$LT$alloc..vec..Vec$LT$alloc..vec..Vec$LT$typg_core..search..TypgFontFaceMatch$GT$$GT$$GT$$GT$17h405ed1de6d22a6daE', symObjAddr: 0x28C0, symBinAddr: 0x30084, symSize: 0x24 }
  - { offset: 0x9BB11, size: 0x8, addend: 0x0, symName: '__ZN4core3ptr1541drop_in_place$LT$core..cell..UnsafeCell$LT$core..option..Option$LT$rayon_core..registry..Registry..in_worker_cold$LT$rayon_core..join..join_context$LT$rayon..iter..plumbing..bridge_producer_consumer..helper$LT$rayon..vec..DrainProducer$LT$alloc..vec..Vec$LT$typg_core..search..TypgFontFaceMatch$GT$$GT$$C$rayon..iter..flatten..FlattenConsumer$LT$rayon..iter..filter..FilterConsumer$LT$rayon..iter..collect..consumer..CollectConsumer$LT$typg_core..search..TypgFontFaceMatch$GT$$C$typg_core..search..search..$u7b$$u7b$closure$u7d$$u7d$..$u7b$$u7b$closure$u7d$$u7d$$GT$$GT$$GT$..$u7b$$u7b$closure$u7d$$u7d$$C$rayon..iter..plumbing..bridge_producer_consumer..helper$LT$rayon..vec..DrainProducer$LT$alloc..vec..Vec$LT$typg_core..search..TypgFontFaceMatch$GT$$GT$$C$rayon..iter..flatten..FlattenConsumer$LT$rayon..iter..filter..FilterConsumer$LT$rayon..iter..collect..consumer..CollectConsumer$LT$typg_core..search..TypgFontFaceMatch$GT$$C$typg_core..search..search..$u7b$$u7b$closure$u7d$$u7d$..$u7b$$u7b$closure$u7d$$u7d$$GT$$GT$$GT$..$u7b$$u7b$closure$u7d$$u7d$$C$rayon..iter..collect..consumer..CollectResult$LT$typg_core..search..TypgFontFaceMatch$GT$$C$rayon..iter..collect..consumer..CollectResult$LT$typg_core..search..TypgFontFaceMatch$GT$$GT$..$u7b$$u7b$closure$u7d$$u7d$$C$$LP$rayon..iter..collect..consumer..CollectResult$LT$typg_core..search..TypgFontFaceMatch$GT$$C$rayon..iter..collect..consumer..CollectResult$LT$typg_core..search..TypgFontFaceMatch$GT$$RP$$GT$..$u7b$$u7b$closure$u7d$$u7d$..$u7b$$u7b$closure$u7d$$u7d$$GT$$GT$$GT$17h24285aa5d8d02911E', symObjAddr: 0x28E4, symBinAddr: 0x300A8, symSize: 0x24 }
  - { offset: 0x9BB40, size: 0x8, addend: 0x0, symName: '__ZN4core3ptr154drop_in_place$LT$alloc..collections..linked_list..LinkedList$LT$alloc..vec..Vec$LT$alloc..vec..Vec$LT$typg_core..search..TypgFontFaceMatch$GT$$GT$$GT$$GT$17had1b6e5ab5f4b770E', symObjAddr: 0x2908, symBinAddr: 0x300CC, symSize: 0x24 }
  - { offset: 0x9BB6F, size: 0x8, addend: 0x0, symName: '__ZN4core3ptr155drop_in_place$LT$alloc..boxed..Box$LT$anyhow..error..ErrorImpl$LT$core..mem..manually_drop..ManuallyDrop$LT$core..num..error..ParseIntError$GT$$GT$$GT$$GT$17hf7aa682d12df79b2E', symObjAddr: 0x292C, symBinAddr: 0x300F0, symSize: 0x60 }
  - { offset: 0x9BB9E, size: 0x8, addend: 0x0, symName: '__ZN4core3ptr156drop_in_place$LT$alloc..boxed..Box$LT$anyhow..error..ErrorImpl$LT$core..mem..manually_drop..ManuallyDrop$LT$rayon_core..ThreadPoolBuildError$GT$$GT$$GT$$GT$17h5e4dfac7d72071fbE', symObjAddr: 0x298C, symBinAddr: 0x30150, symSize: 0x60 }
  - { offset: 0x9BBCD, size: 0x8, addend: 0x0, symName: '__ZN4core3ptr1575drop_in_place$LT$rayon_core..job..StackJob$LT$rayon_core..latch..SpinLatch$C$rayon_core..registry..Registry..in_worker_cross$LT$rayon_core..join..join_context$LT$rayon..iter..plumbing..bridge_producer_consumer..helper$LT$rayon..vec..DrainProducer$LT$typg_core..search..TypgFontFaceMatch$GT$$C$rayon..iter..filter..FilterConsumer$LT$rayon..iter..collect..consumer..CollectConsumer$LT$typg_core..search..TypgFontFaceMatch$GT$$C$typg_core..search..search..$u7b$$u7b$closure$u7d$$u7d$..$u7b$$u7b$closure$u7d$$u7d$$GT$$GT$..$u7b$$u7b$closure$u7d$$u7d$$C$rayon..iter..plumbing..bridge_producer_consumer..helper$LT$rayon..vec..DrainProducer$LT$typg_core..search..TypgFontFaceMatch$GT$$C$rayon..iter..filter..FilterConsumer$LT$rayon..iter..collect..consumer..CollectConsumer$LT$typg_core..search..TypgFontFaceMatch$GT$$C$typg_core..search..search..$u7b$$u7b$closure$u7d$$u7d$..$u7b$$u7b$closure$u7d$$u7d$$GT$$GT$..$u7b$$u7b$closure$u7d$$u7d$$C$rayon..iter..collect..consumer..CollectResult$LT$typg_core..search..TypgFontFaceMatch$GT$$C$rayon..iter..collect..consumer..CollectResult$LT$typg_core..search..TypgFontFaceMatch$GT$$GT$..$u7b$$u7b$closure$u7d$$u7d$$C$$LP$rayon..iter..collect..consumer..CollectResult$LT$typg_core..search..TypgFontFaceMatch$GT$$C$rayon..iter..collect..consumer..CollectResult$LT$typg_core..search..TypgFontFaceMatch$GT$$RP$$GT$..$u7b$$u7b$closure$u7d$$u7d$$C$$LP$rayon..iter..collect..consumer..CollectResult$LT$typg_core..search..TypgFontFaceMatch$GT$$C$rayon..iter..collect..consumer..CollectResult$LT$typg_core..search..TypgFontFaceMatch$GT$$RP$$GT$$GT$17h26325834c5384a06E', symObjAddr: 0x29EC, symBinAddr: 0x301B0, symSize: 0x60 }
  - { offset: 0x9BBFC, size: 0x8, addend: 0x0, symName: '__ZN4core3ptr158drop_in_place$LT$alloc..boxed..Box$LT$anyhow..error..ErrorImpl$LT$anyhow..error..ContextError$LT$alloc..string..String$C$std..io..error..Error$GT$$GT$$GT$$GT$17h2ac699bf19bffd5fE', symObjAddr: 0x2A4C, symBinAddr: 0x30210, symSize: 0x60 }
  - { offset: 0x9BC2B, size: 0x8, addend: 0x0, symName: '__ZN4core3ptr158drop_in_place$LT$rayon_core..job..JobResult$LT$core..result..Result$LT$alloc..vec..Vec$LT$typg_core..search..TypgFontFaceMatch$GT$$C$anyhow..Error$GT$$GT$$GT$17hb7f3ef97ae746037E', symObjAddr: 0x2AAC, symBinAddr: 0x30270, symSize: 0x74 }
  - { offset: 0x9BC5A, size: 0x8, addend: 0x0, symName: '__ZN4core3ptr1591drop_in_place$LT$rayon_core..job..StackJob$LT$rayon_core..latch..SpinLatch$C$rayon_core..registry..Registry..in_worker_cross$LT$rayon_core..join..join_context$LT$rayon..iter..plumbing..bridge_producer_consumer..helper$LT$rayon..vec..DrainProducer$LT$typg_core..search..TypgFontFaceMatch$GT$$C$rayon..iter..filter..FilterConsumer$LT$rayon..iter..extend..ListVecConsumer$C$typg_core..search..search..$u7b$$u7b$closure$u7d$$u7d$..$u7b$$u7b$closure$u7d$$u7d$$GT$$GT$..$u7b$$u7b$closure$u7d$$u7d$$C$rayon..iter..plumbing..bridge_producer_consumer..helper$LT$rayon..vec..DrainProducer$LT$typg_core..search..TypgFontFaceMatch$GT$$C$rayon..iter..filter..FilterConsumer$LT$rayon..iter..extend..ListVecConsumer$C$typg_core..search..search..$u7b$$u7b$closure$u7d$$u7d$..$u7b$$u7b$closure$u7d$$u7d$$GT$$GT$..$u7b$$u7b$closure$u7d$$u7d$$C$alloc..collections..linked_list..LinkedList$LT$alloc..vec..Vec$LT$typg_core..search..TypgFontFaceMatch$GT$$GT$$C$alloc..collections..linked_list..LinkedList$LT$alloc..vec..Vec$LT$typg_core..search..TypgFontFaceMatch$GT$$GT$$GT$..$u7b$$u7b$closure$u7d$$u7d$$C$$LP$alloc..collections..linked_list..LinkedList$LT$alloc..vec..Vec$LT$typg_core..search..TypgFontFaceMatch$GT$$GT$$C$alloc..collections..linked_list..LinkedList$LT$alloc..vec..Vec$LT$typg_core..search..TypgFontFaceMatch$GT$$GT$$RP$$GT$..$u7b$$u7b$closure$u7d$$u7d$$C$$LP$alloc..collections..linked_list..LinkedList$LT$alloc..vec..Vec$LT$typg_core..search..TypgFontFaceMatch$GT$$GT$$C$alloc..collections..linked_list..LinkedList$LT$alloc..vec..Vec$LT$typg_core..search..TypgFontFaceMatch$GT$$GT$$RP$$GT$$GT$17he19221946a75bdffE', symObjAddr: 0x2B20, symBinAddr: 0x302E4, symSize: 0x60 }
  - { offset: 0x9BC89, size: 0x8, addend: 0x0, symName: '__ZN4core3ptr159drop_in_place$LT$core..option..Option$LT$alloc..collections..linked_list..LinkedList$LT$alloc..vec..Vec$LT$typg_core..search..TypgFontFaceMatch$GT$$GT$$GT$$GT$17h7307b93bcfe79bd2E', symObjAddr: 0x2B80, symBinAddr: 0x30344, symSize: 0x40 }
  - { offset: 0x9BCB8, size: 0x8, addend: 0x0, symName: '__ZN4core3ptr1638drop_in_place$LT$rayon_core..job..StackJob$LT$rayon_core..latch..LatchRef$LT$rayon_core..latch..LockLatch$GT$$C$rayon_core..registry..Registry..in_worker_cold$LT$rayon_core..join..join_context$LT$rayon..iter..plumbing..bridge_producer_consumer..helper$LT$rayon..vec..DrainProducer$LT$typg_core..search..TypgFontFaceMatch$GT$$C$rayon..iter..filter..FilterConsumer$LT$rayon..iter..collect..consumer..CollectConsumer$LT$typg_core..search..TypgFontFaceMatch$GT$$C$typg_core..search..search..$u7b$$u7b$closure$u7d$$u7d$..$u7b$$u7b$closure$u7d$$u7d$$GT$$GT$..$u7b$$u7b$closure$u7d$$u7d$$C$rayon..iter..plumbing..bridge_producer_consumer..helper$LT$rayon..vec..DrainProducer$LT$typg_core..search..TypgFontFaceMatch$GT$$C$rayon..iter..filter..FilterConsumer$LT$rayon..iter..collect..consumer..CollectConsumer$LT$typg_core..search..TypgFontFaceMatch$GT$$C$typg_core..search..search..$u7b$$u7b$closure$u7d$$u7d$..$u7b$$u7b$closure$u7d$$u7d$$GT$$GT$..$u7b$$u7b$closure$u7d$$u7d$$C$rayon..iter..collect..consumer..CollectResult$LT$typg_core..search..TypgFontFaceMatch$GT$$C$rayon..iter..collect..consumer..CollectResult$LT$typg_core..search..TypgFontFaceMatch$GT$$GT$..$u7b$$u7b$closure$u7d$$u7d$$C$$LP$rayon..iter..collect..consumer..CollectResult$LT$typg_core..search..TypgFontFaceMatch$GT$$C$rayon..iter..collect..consumer..CollectResult$LT$typg_core..search..TypgFontFaceMatch$GT$$RP$$GT$..$u7b$$u7b$closure$u7d$$u7d$..$u7b$$u7b$closure$u7d$$u7d$$C$$LP$rayon..iter..collect..consumer..CollectResult$LT$typg_core..search..TypgFontFaceMatch$GT$$C$rayon..iter..collect..consumer..CollectResult$LT$typg_core..search..TypgFontFaceMatch$GT$$RP$$GT$$GT$17hde066e1be868678fE', symObjAddr: 0x2BC0, symBinAddr: 0x30384, symSize: 0x64 }
  - { offset: 0x9BCE7, size: 0x8, addend: 0x0, symName: '__ZN4core3ptr1654drop_in_place$LT$rayon_core..job..StackJob$LT$rayon_core..latch..LatchRef$LT$rayon_core..latch..LockLatch$GT$$C$rayon_core..registry..Registry..in_worker_cold$LT$rayon_core..join..join_context$LT$rayon..iter..plumbing..bridge_producer_consumer..helper$LT$rayon..vec..DrainProducer$LT$typg_core..search..TypgFontFaceMatch$GT$$C$rayon..iter..filter..FilterConsumer$LT$rayon..iter..extend..ListVecConsumer$C$typg_core..search..search..$u7b$$u7b$closure$u7d$$u7d$..$u7b$$u7b$closure$u7d$$u7d$$GT$$GT$..$u7b$$u7b$closure$u7d$$u7d$$C$rayon..iter..plumbing..bridge_producer_consumer..helper$LT$rayon..vec..DrainProducer$LT$typg_core..search..TypgFontFaceMatch$GT$$C$rayon..iter..filter..FilterConsumer$LT$rayon..iter..extend..ListVecConsumer$C$typg_core..search..search..$u7b$$u7b$closure$u7d$$u7d$..$u7b$$u7b$closure$u7d$$u7d$$GT$$GT$..$u7b$$u7b$closure$u7d$$u7d$$C$alloc..collections..linked_list..LinkedList$LT$alloc..vec..Vec$LT$typg_core..search..TypgFontFaceMatch$GT$$GT$$C$alloc..collections..linked_list..LinkedList$LT$alloc..vec..Vec$LT$typg_core..search..TypgFontFaceMatch$GT$$GT$$GT$..$u7b$$u7b$closure$u7d$$u7d$$C$$LP$alloc..collections..linked_list..LinkedList$LT$alloc..vec..Vec$LT$typg_core..search..TypgFontFaceMatch$GT$$GT$$C$alloc..collections..linked_list..LinkedList$LT$alloc..vec..Vec$LT$typg_core..search..TypgFontFaceMatch$GT$$GT$$RP$$GT$..$u7b$$u7b$closure$u7d$$u7d$..$u7b$$u7b$closure$u7d$$u7d$$C$$LP$alloc..collections..linked_list..LinkedList$LT$alloc..vec..Vec$LT$typg_core..search..TypgFontFaceMatch$GT$$GT$$C$alloc..collections..linked_list..LinkedList$LT$alloc..vec..Vec$LT$typg_core..search..TypgFontFaceMatch$GT$$GT$$RP$$GT$$GT$17h17d1ae307e43fab0E', symObjAddr: 0x2C24, symBinAddr: 0x303E8, symSize: 0x64 }
  - { offset: 0x9BD16, size: 0x8, addend: 0x0, symName: '__ZN4core3ptr165drop_in_place$LT$rayon_core..job..JobResult$LT$alloc..collections..linked_list..LinkedList$LT$alloc..vec..Vec$LT$typg_core..search..TypgFontFaceMatch$GT$$GT$$GT$$GT$17h4d15360dd5298306E', symObjAddr: 0x2C88, symBinAddr: 0x3044C, symSize: 0x64 }
  - { offset: 0x9BD45, size: 0x8, addend: 0x0, symName: '__ZN4core3ptr167drop_in_place$LT$rayon_core..job..JobResult$LT$rayon..iter..collect..consumer..CollectResult$LT$alloc..vec..Vec$LT$typg_core..search..TypgFontFaceMatch$GT$$GT$$GT$$GT$17hfdc5b9800a40913eE', symObjAddr: 0x2CEC, symBinAddr: 0x304B0, symSize: 0x64 }
  - { offset: 0x9BD74, size: 0x8, addend: 0x0, symName: '__ZN4core3ptr170drop_in_place$LT$rayon..iter..while_some..WhileSomeFolder$LT$rayon..iter..extend..ListVecFolder$LT$alloc..vec..Vec$LT$typg_core..search..TypgFontFaceMatch$GT$$GT$$GT$$GT$17h904dd057a82e653cE', symObjAddr: 0x2D50, symBinAddr: 0x30514, symSize: 0x24 }
  - { offset: 0x9BDA3, size: 0x8, addend: 0x0, symName: '__ZN4core3ptr1711drop_in_place$LT$rayon_core..job..StackJob$LT$rayon_core..latch..SpinLatch$C$rayon_core..registry..Registry..in_worker_cross$LT$rayon_core..join..join_context$LT$rayon..iter..plumbing..bridge_producer_consumer..helper$LT$rayon..vec..DrainProducer$LT$alloc..vec..Vec$LT$typg_core..search..TypgFontFaceMatch$GT$$GT$$C$rayon..iter..flatten..FlattenConsumer$LT$rayon..iter..filter..FilterConsumer$LT$rayon..iter..collect..consumer..CollectConsumer$LT$typg_core..search..TypgFontFaceMatch$GT$$C$typg_core..search..search..$u7b$$u7b$closure$u7d$$u7d$..$u7b$$u7b$closure$u7d$$u7d$$GT$$GT$$GT$..$u7b$$u7b$closure$u7d$$u7d$$C$rayon..iter..plumbing..bridge_producer_consumer..helper$LT$rayon..vec..DrainProducer$LT$alloc..vec..Vec$LT$typg_core..search..TypgFontFaceMatch$GT$$GT$$C$rayon..iter..flatten..FlattenConsumer$LT$rayon..iter..filter..FilterConsumer$LT$rayon..iter..collect..consumer..CollectConsumer$LT$typg_core..search..TypgFontFaceMatch$GT$$C$typg_core..search..search..$u7b$$u7b$closure$u7d$$u7d$..$u7b$$u7b$closure$u7d$$u7d$$GT$$GT$$GT$..$u7b$$u7b$closure$u7d$$u7d$$C$rayon..iter..collect..consumer..CollectResult$LT$typg_core..search..TypgFontFaceMatch$GT$$C$rayon..iter..collect..consumer..CollectResult$LT$typg_core..search..TypgFontFaceMatch$GT$$GT$..$u7b$$u7b$closure$u7d$$u7d$$C$$LP$rayon..iter..collect..consumer..CollectResult$LT$typg_core..search..TypgFontFaceMatch$GT$$C$rayon..iter..collect..consumer..CollectResult$LT$typg_core..search..TypgFontFaceMatch$GT$$RP$$GT$..$u7b$$u7b$closure$u7d$$u7d$$C$$LP$rayon..iter..collect..consumer..CollectResult$LT$typg_core..search..TypgFontFaceMatch$GT$$C$rayon..iter..collect..consumer..CollectResult$LT$typg_core..search..TypgFontFaceMatch$GT$$RP$$GT$$GT$17hde23c3ec71f0d658E', symObjAddr: 0x2D74, symBinAddr: 0x30538, symSize: 0x60 }
  - { offset: 0x9BDD2, size: 0x8, addend: 0x0, symName: '__ZN4core3ptr1727drop_in_place$LT$rayon_core..job..StackJob$LT$rayon_core..latch..SpinLatch$C$rayon_core..registry..Registry..in_worker_cross$LT$rayon_core..join..join_context$LT$rayon..iter..plumbing..bridge_producer_consumer..helper$LT$rayon..vec..DrainProducer$LT$alloc..vec..Vec$LT$typg_core..search..TypgFontFaceMatch$GT$$GT$$C$rayon..iter..flatten..FlattenConsumer$LT$rayon..iter..filter..FilterConsumer$LT$rayon..iter..extend..ListVecConsumer$C$typg_core..search..search..$u7b$$u7b$closure$u7d$$u7d$..$u7b$$u7b$closure$u7d$$u7d$$GT$$GT$$GT$..$u7b$$u7b$closure$u7d$$u7d$$C$rayon..iter..plumbing..bridge_producer_consumer..helper$LT$rayon..vec..DrainProducer$LT$alloc..vec..Vec$LT$typg_core..search..TypgFontFaceMatch$GT$$GT$$C$rayon..iter..flatten..FlattenConsumer$LT$rayon..iter..filter..FilterConsumer$LT$rayon..iter..extend..ListVecConsumer$C$typg_core..search..search..$u7b$$u7b$closure$u7d$$u7d$..$u7b$$u7b$closure$u7d$$u7d$$GT$$GT$$GT$..$u7b$$u7b$closure$u7d$$u7d$$C$alloc..collections..linked_list..LinkedList$LT$alloc..vec..Vec$LT$typg_core..search..TypgFontFaceMatch$GT$$GT$$C$alloc..collections..linked_list..LinkedList$LT$alloc..vec..Vec$LT$typg_core..search..TypgFontFaceMatch$GT$$GT$$GT$..$u7b$$u7b$closure$u7d$$u7d$$C$$LP$alloc..collections..linked_list..LinkedList$LT$alloc..vec..Vec$LT$typg_core..search..TypgFontFaceMatch$GT$$GT$$C$alloc..collections..linked_list..LinkedList$LT$alloc..vec..Vec$LT$typg_core..search..TypgFontFaceMatch$GT$$GT$$RP$$GT$..$u7b$$u7b$closure$u7d$$u7d$$C$$LP$alloc..collections..linked_list..LinkedList$LT$alloc..vec..Vec$LT$typg_core..search..TypgFontFaceMatch$GT$$GT$$C$alloc..collections..linked_list..LinkedList$LT$alloc..vec..Vec$LT$typg_core..search..TypgFontFaceMatch$GT$$GT$$RP$$GT$$GT$17h0cd0909deaa54f44E', symObjAddr: 0x2DD4, symBinAddr: 0x30598, symSize: 0x60 }
  - { offset: 0x9BE01, size: 0x8, addend: 0x0, symName: '__ZN4core3ptr174drop_in_place$LT$core..cell..UnsafeCell$LT$rayon_core..job..JobResult$LT$rayon..iter..collect..consumer..CollectResult$LT$typg_core..search..TypgFontFaceMatch$GT$$GT$$GT$$GT$17h80f17c22e9c0c369E', symObjAddr: 0x2E34, symBinAddr: 0x305F8, symSize: 0x24 }
  - { offset: 0x9BE30, size: 0x8, addend: 0x0, symName: '__ZN4core3ptr1774drop_in_place$LT$rayon_core..job..StackJob$LT$rayon_core..latch..LatchRef$LT$rayon_core..latch..LockLatch$GT$$C$rayon_core..registry..Registry..in_worker_cold$LT$rayon_core..join..join_context$LT$rayon..iter..plumbing..bridge_producer_consumer..helper$LT$rayon..vec..DrainProducer$LT$alloc..vec..Vec$LT$typg_core..search..TypgFontFaceMatch$GT$$GT$$C$rayon..iter..flatten..FlattenConsumer$LT$rayon..iter..filter..FilterConsumer$LT$rayon..iter..collect..consumer..CollectConsumer$LT$typg_core..search..TypgFontFaceMatch$GT$$C$typg_core..search..search..$u7b$$u7b$closure$u7d$$u7d$..$u7b$$u7b$closure$u7d$$u7d$$GT$$GT$$GT$..$u7b$$u7b$closure$u7d$$u7d$$C$rayon..iter..plumbing..bridge_producer_consumer..helper$LT$rayon..vec..DrainProducer$LT$alloc..vec..Vec$LT$typg_core..search..TypgFontFaceMatch$GT$$GT$$C$rayon..iter..flatten..FlattenConsumer$LT$rayon..iter..filter..FilterConsumer$LT$rayon..iter..collect..consumer..CollectConsumer$LT$typg_core..search..TypgFontFaceMatch$GT$$C$typg_core..search..search..$u7b$$u7b$closure$u7d$$u7d$..$u7b$$u7b$closure$u7d$$u7d$$GT$$GT$$GT$..$u7b$$u7b$closure$u7d$$u7d$$C$rayon..iter..collect..consumer..CollectResult$LT$typg_core..search..TypgFontFaceMatch$GT$$C$rayon..iter..collect..consumer..CollectResult$LT$typg_core..search..TypgFontFaceMatch$GT$$GT$..$u7b$$u7b$closure$u7d$$u7d$$C$$LP$rayon..iter..collect..consumer..CollectResult$LT$typg_core..search..TypgFontFaceMatch$GT$$C$rayon..iter..collect..consumer..CollectResult$LT$typg_core..search..TypgFontFaceMatch$GT$$RP$$GT$..$u7b$$u7b$closure$u7d$$u7d$..$u7b$$u7b$closure$u7d$$u7d$$C$$LP$rayon..iter..collect..consumer..CollectResult$LT$typg_core..search..TypgFontFaceMatch$GT$$C$rayon..iter..collect..consumer..CollectResult$LT$typg_core..search..TypgFontFaceMatch$GT$$RP$$GT$$GT$17h23539d1229b7132eE', symObjAddr: 0x2E58, symBinAddr: 0x3061C, symSize: 0x64 }
  - { offset: 0x9BE5F, size: 0x8, addend: 0x0, symName: '__ZN4core3ptr177drop_in_place$LT$alloc..boxed..Box$LT$alloc..collections..linked_list..Node$LT$alloc..vec..Vec$LT$typg_core..search..TypgFontFaceMatch$GT$$GT$$C$$RF$alloc..alloc..Global$GT$$GT$17ha1feee6f785effa3E', symObjAddr: 0x2EBC, symBinAddr: 0x30680, symSize: 0x60 }
  - { offset: 0x9BE8E, size: 0x8, addend: 0x0, symName: '__ZN4core3ptr178drop_in_place$LT$$LT$T$u20$as$u20$alloc..slice..$LT$impl$u20$$u5b$T$u5d$$GT$..to_vec_in..ConvertVec$GT$..to_vec..DropGuard$LT$alloc..string..String$C$alloc..alloc..Global$GT$$GT$17h0a647212b9a57f25E', symObjAddr: 0x2F1C, symBinAddr: 0x306E0, symSize: 0x24 }
  - { offset: 0x9BEBD, size: 0x8, addend: 0x0, symName: '__ZN4core3ptr1790drop_in_place$LT$rayon_core..job..StackJob$LT$rayon_core..latch..LatchRef$LT$rayon_core..latch..LockLatch$GT$$C$rayon_core..registry..Registry..in_worker_cold$LT$rayon_core..join..join_context$LT$rayon..iter..plumbing..bridge_producer_consumer..helper$LT$rayon..vec..DrainProducer$LT$alloc..vec..Vec$LT$typg_core..search..TypgFontFaceMatch$GT$$GT$$C$rayon..iter..flatten..FlattenConsumer$LT$rayon..iter..filter..FilterConsumer$LT$rayon..iter..extend..ListVecConsumer$C$typg_core..search..search..$u7b$$u7b$closure$u7d$$u7d$..$u7b$$u7b$closure$u7d$$u7d$$GT$$GT$$GT$..$u7b$$u7b$closure$u7d$$u7d$$C$rayon..iter..plumbing..bridge_producer_consumer..helper$LT$rayon..vec..DrainProducer$LT$alloc..vec..Vec$LT$typg_core..search..TypgFontFaceMatch$GT$$GT$$C$rayon..iter..flatten..FlattenConsumer$LT$rayon..iter..filter..FilterConsumer$LT$rayon..iter..extend..ListVecConsumer$C$typg_core..search..search..$u7b$$u7b$closure$u7d$$u7d$..$u7b$$u7b$closure$u7d$$u7d$$GT$$GT$$GT$..$u7b$$u7b$closure$u7d$$u7d$$C$alloc..collections..linked_list..LinkedList$LT$alloc..vec..Vec$LT$typg_core..search..TypgFontFaceMatch$GT$$GT$$C$alloc..collections..linked_list..LinkedList$LT$alloc..vec..Vec$LT$typg_core..search..TypgFontFaceMatch$GT$$GT$$GT$..$u7b$$u7b$closure$u7d$$u7d$$C$$LP$alloc..collections..linked_list..LinkedList$LT$alloc..vec..Vec$LT$typg_core..search..TypgFontFaceMatch$GT$$GT$$C$alloc..collections..linked_list..LinkedList$LT$alloc..vec..Vec$LT$typg_core..search..TypgFontFaceMatch$GT$$GT$$RP$$GT$..$u7b$$u7b$closure$u7d$$u7d$..$u7b$$u7b$closure$u7d$$u7d$$C$$LP$alloc..collections..linked_list..LinkedList$LT$alloc..vec..Vec$LT$typg_core..search..TypgFontFaceMatch$GT$$GT$$C$alloc..collections..linked_list..LinkedList$LT$alloc..vec..Vec$LT$typg_core..search..TypgFontFaceMatch$GT$$GT$$RP$$GT$$GT$17h208c5707a20685c4E', symObjAddr: 0x2F40, symBinAddr: 0x30704, symSize: 0x64 }
  - { offset: 0x9BEEC, size: 0x8, addend: 0x0, symName: '__ZN4core3ptr179drop_in_place$LT$anyhow..error..ErrorImpl$LT$anyhow..error..ContextError$LT$alloc..string..String$C$core..mem..manually_drop..ManuallyDrop$LT$std..io..error..Error$GT$$GT$$GT$$GT$17h82e74d8d5a109b42E', symObjAddr: 0x2FA4, symBinAddr: 0x30768, symSize: 0x64 }
  - { offset: 0x9BF1B, size: 0x8, addend: 0x0, symName: '__ZN4core3ptr179drop_in_place$LT$anyhow..error..ErrorImpl$LT$anyhow..error..ContextError$LT$core..mem..manually_drop..ManuallyDrop$LT$alloc..string..String$GT$$C$std..io..error..Error$GT$$GT$$GT$17he5dc42043101dc6bE', symObjAddr: 0x3008, symBinAddr: 0x307CC, symSize: 0x64 }
  - { offset: 0x9BF4A, size: 0x8, addend: 0x0, symName: '__ZN4core3ptr181drop_in_place$LT$rayon..iter..while_some..WhileSomeFolder$LT$rayon..iter..collect..consumer..CollectResult$LT$alloc..vec..Vec$LT$typg_core..search..TypgFontFaceMatch$GT$$GT$$GT$$GT$17h699eaa5ea19f1e3fE', symObjAddr: 0x306C, symBinAddr: 0x30830, symSize: 0x24 }
  - { offset: 0x9BF79, size: 0x8, addend: 0x0, symName: '__ZN4core3ptr183drop_in_place$LT$$LT$alloc..vec..drain..Drain$LT$T$C$A$GT$$u20$as$u20$core..ops..drop..Drop$GT$..drop..DropGuard$LT$typg_core..search..TypgFontFaceMatch$C$alloc..alloc..Global$GT$$GT$17h54d0b4db45095f58E', symObjAddr: 0x3090, symBinAddr: 0x30854, symSize: 0x24 }
  - { offset: 0x9BFA8, size: 0x8, addend: 0x0, symName: '__ZN4core3ptr185drop_in_place$LT$std..sync..poison..PoisonError$LT$std..sync..poison..mutex..MutexGuard$LT$alloc..vec..Vec$LT$alloc..boxed..Box$LT$regex_automata..meta..regex..Cache$GT$$GT$$GT$$GT$$GT$17ha7e1d67f0d577d46E', symObjAddr: 0x30B4, symBinAddr: 0x30878, symSize: 0x24 }
  - { offset: 0x9BFD7, size: 0x8, addend: 0x0, symName: '__ZN4core3ptr186drop_in_place$LT$std..sync..poison..TryLockError$LT$std..sync..poison..mutex..MutexGuard$LT$alloc..vec..Vec$LT$alloc..boxed..Box$LT$regex_automata..meta..regex..Cache$GT$$GT$$GT$$GT$$GT$17h5ef389f09216e2d7E', symObjAddr: 0x30D8, symBinAddr: 0x3089C, symSize: 0x48 }
  - { offset: 0x9C006, size: 0x8, addend: 0x0, symName: '__ZN4core3ptr188drop_in_place$LT$core..cell..UnsafeCell$LT$rayon_core..job..JobResult$LT$core..result..Result$LT$alloc..vec..Vec$LT$typg_core..search..TypgFontFaceMatch$GT$$C$anyhow..Error$GT$$GT$$GT$$GT$17h2fa546a87f3d9344E', symObjAddr: 0x3120, symBinAddr: 0x308E4, symSize: 0x24 }
  - { offset: 0x9C035, size: 0x8, addend: 0x0, symName: '__ZN4core3ptr188drop_in_place$LT$rayon_core..job..JobResult$LT$alloc..collections..linked_list..LinkedList$LT$alloc..vec..Vec$LT$alloc..vec..Vec$LT$typg_core..search..TypgFontFaceMatch$GT$$GT$$GT$$GT$$GT$17hbceea0e08219f4e5E', symObjAddr: 0x3144, symBinAddr: 0x30908, symSize: 0x64 }
  - { offset: 0x9C064, size: 0x8, addend: 0x0, symName: '__ZN4core3ptr195drop_in_place$LT$core..cell..UnsafeCell$LT$rayon_core..job..JobResult$LT$alloc..collections..linked_list..LinkedList$LT$alloc..vec..Vec$LT$typg_core..search..TypgFontFaceMatch$GT$$GT$$GT$$GT$$GT$17he9bfef631738ae16E', symObjAddr: 0x31A8, symBinAddr: 0x3096C, symSize: 0x24 }
  - { offset: 0x9C093, size: 0x8, addend: 0x0, symName: '__ZN4core3ptr197drop_in_place$LT$core..cell..UnsafeCell$LT$rayon_core..job..JobResult$LT$rayon..iter..collect..consumer..CollectResult$LT$alloc..vec..Vec$LT$typg_core..search..TypgFontFaceMatch$GT$$GT$$GT$$GT$$GT$17h0d86932a05af4254E', symObjAddr: 0x31CC, symBinAddr: 0x30990, symSize: 0x24 }
  - { offset: 0x9C0C2, size: 0x8, addend: 0x0, symName: '__ZN4core3ptr200drop_in_place$LT$alloc..boxed..Box$LT$alloc..collections..linked_list..Node$LT$alloc..vec..Vec$LT$alloc..vec..Vec$LT$typg_core..search..TypgFontFaceMatch$GT$$GT$$GT$$C$$RF$alloc..alloc..Global$GT$$GT$17h736f757a56cafe52E', symObjAddr: 0x31F0, symBinAddr: 0x309B4, symSize: 0x60 }
  - { offset: 0x9C0F1, size: 0x8, addend: 0x0, symName: '__ZN4core3ptr204drop_in_place$LT$alloc..boxed..Box$LT$anyhow..error..ErrorImpl$LT$anyhow..error..ContextError$LT$alloc..string..String$C$core..mem..manually_drop..ManuallyDrop$LT$std..io..error..Error$GT$$GT$$GT$$GT$$GT$17h80ff31cce781eea1E', symObjAddr: 0x3250, symBinAddr: 0x30A14, symSize: 0x60 }
  - { offset: 0x9C120, size: 0x8, addend: 0x0, symName: '__ZN4core3ptr204drop_in_place$LT$alloc..boxed..Box$LT$anyhow..error..ErrorImpl$LT$anyhow..error..ContextError$LT$core..mem..manually_drop..ManuallyDrop$LT$alloc..string..String$GT$$C$std..io..error..Error$GT$$GT$$GT$$GT$17h9f98ff9f02acb6dfE', symObjAddr: 0x32B0, symBinAddr: 0x30A74, symSize: 0x60 }
  - { offset: 0x9C14F, size: 0x8, addend: 0x0, symName: '__ZN4core3ptr205drop_in_place$LT$core..option..Option$LT$alloc..boxed..Box$LT$alloc..collections..linked_list..Node$LT$alloc..vec..Vec$LT$typg_core..search..TypgFontFaceMatch$GT$$GT$$C$$RF$alloc..alloc..Global$GT$$GT$$GT$17h35fa32013f95c552E', symObjAddr: 0x3310, symBinAddr: 0x30AD4, symSize: 0x44 }
  - { offset: 0x9C17E, size: 0x8, addend: 0x0, symName: '__ZN4core3ptr206drop_in_place$LT$$LT$alloc..vec..drain..Drain$LT$T$C$A$GT$$u20$as$u20$core..ops..drop..Drop$GT$..drop..DropGuard$LT$alloc..vec..Vec$LT$typg_core..search..TypgFontFaceMatch$GT$$C$alloc..alloc..Global$GT$$GT$17ha87ff6984b149e5fE', symObjAddr: 0x3354, symBinAddr: 0x30B18, symSize: 0x24 }
  - { offset: 0x9C1AD, size: 0x8, addend: 0x0, symName: '__ZN4core3ptr210drop_in_place$LT$$LP$rayon..iter..collect..consumer..CollectResult$LT$typg_core..search..TypgFontFaceMatch$GT$$C$rayon..iter..collect..consumer..CollectResult$LT$typg_core..search..TypgFontFaceMatch$GT$$RP$$GT$17h7c88b7d7b375459cE', symObjAddr: 0x3378, symBinAddr: 0x30B3C, symSize: 0x60 }
  - { offset: 0x9C1DC, size: 0x8, addend: 0x0, symName: '__ZN4core3ptr218drop_in_place$LT$core..cell..UnsafeCell$LT$rayon_core..job..JobResult$LT$alloc..collections..linked_list..LinkedList$LT$alloc..vec..Vec$LT$alloc..vec..Vec$LT$typg_core..search..TypgFontFaceMatch$GT$$GT$$GT$$GT$$GT$$GT$17h8ce3c7bd53d56efdE', symObjAddr: 0x33D8, symBinAddr: 0x30B9C, symSize: 0x24 }
  - { offset: 0x9C20B, size: 0x8, addend: 0x0, symName: '__ZN4core3ptr225drop_in_place$LT$$LT$alloc..collections..linked_list..LinkedList$LT$T$C$A$GT$$u20$as$u20$core..ops..drop..Drop$GT$..drop..DropGuard$LT$alloc..vec..Vec$LT$typg_core..search..TypgFontFaceMatch$GT$$C$alloc..alloc..Global$GT$$GT$17h35c3cbb7f3a90782E', symObjAddr: 0x33FC, symBinAddr: 0x30BC0, symSize: 0x24 }
  - { offset: 0x9C23A, size: 0x8, addend: 0x0, symName: '__ZN4core3ptr226drop_in_place$LT$rayon..iter..filter..FilterFolder$LT$rayon..iter..extend..ListVecFolder$LT$typg_core..search..TypgFontFaceMatch$GT$$C$typg_core..search..search..$u7b$$u7b$closure$u7d$$u7d$..$u7b$$u7b$closure$u7d$$u7d$$GT$$GT$17hffc4f0bcf7e959f4E', symObjAddr: 0x3420, symBinAddr: 0x30BE4, symSize: 0x24 }
  - { offset: 0x9C269, size: 0x8, addend: 0x0, symName: '__ZN4core3ptr228drop_in_place$LT$core..option..Option$LT$alloc..boxed..Box$LT$alloc..collections..linked_list..Node$LT$alloc..vec..Vec$LT$alloc..vec..Vec$LT$typg_core..search..TypgFontFaceMatch$GT$$GT$$GT$$C$$RF$alloc..alloc..Global$GT$$GT$$GT$17h8eceb7104733325dE', symObjAddr: 0x3444, symBinAddr: 0x30C08, symSize: 0x44 }
  - { offset: 0x9C298, size: 0x8, addend: 0x0, symName: '__ZN4core3ptr237drop_in_place$LT$rayon..iter..filter..FilterFolder$LT$rayon..iter..collect..consumer..CollectResult$LT$typg_core..search..TypgFontFaceMatch$GT$$C$typg_core..search..search..$u7b$$u7b$closure$u7d$$u7d$..$u7b$$u7b$closure$u7d$$u7d$$GT$$GT$17h09c08bc958cfdf00E', symObjAddr: 0x3488, symBinAddr: 0x30C4C, symSize: 0x24 }
  - { offset: 0x9C2C7, size: 0x8, addend: 0x0, symName: '__ZN4core3ptr244drop_in_place$LT$rayon_core..job..JobResult$LT$$LP$rayon..iter..collect..consumer..CollectResult$LT$typg_core..search..TypgFontFaceMatch$GT$$C$rayon..iter..collect..consumer..CollectResult$LT$typg_core..search..TypgFontFaceMatch$GT$$RP$$GT$$GT$17hdd759cfca19bc269E', symObjAddr: 0x34AC, symBinAddr: 0x30C70, symSize: 0x64 }
  - { offset: 0x9C2F6, size: 0x8, addend: 0x0, symName: '__ZN4core3ptr2471drop_in_place$LT$rayon_core..job..StackJob$LT$rayon_core..latch..SpinLatch$C$rayon_core..registry..Registry..in_worker_cross$LT$rayon_core..join..join_context$LT$rayon..iter..plumbing..bridge_producer_consumer..helper$LT$rayon..slice..IterProducer$LT$typg_core..discovery..TypgFontSourceRef$GT$$C$rayon..iter..map..MapConsumer$LT$rayon..iter..map..MapConsumer$LT$rayon..iter..while_some..WhileSomeConsumer$LT$rayon..iter..extend..ListVecConsumer$GT$$C$rayon..result..$LT$impl$u20$rayon..iter..FromParallelIterator$LT$core..result..Result$LT$T$C$E$GT$$GT$$u20$for$u20$core..result..Result$LT$C$C$E$GT$$GT$..from_par_iter..ok$LT$alloc..vec..Vec$LT$typg_core..search..TypgFontFaceMatch$GT$$C$anyhow..Error$GT$..$u7b$$u7b$closure$u7d$$u7d$$GT$$C$typg_core..search..search..$u7b$$u7b$closure$u7d$$u7d$..$u7b$$u7b$closure$u7d$$u7d$$GT$$GT$..$u7b$$u7b$closure$u7d$$u7d$$C$rayon..iter..plumbing..bridge_producer_consumer..helper$LT$rayon..slice..IterProducer$LT$typg_core..discovery..TypgFontSourceRef$GT$$C$rayon..iter..map..MapConsumer$LT$rayon..iter..map..MapConsumer$LT$rayon..iter..while_some..WhileSomeConsumer$LT$rayon..iter..extend..ListVecConsumer$GT$$C$rayon..result..$LT$impl$u20$rayon..iter..FromParallelIterator$LT$core..result..Result$LT$T$C$E$GT$$GT$$u20$for$u20$core..result..Result$LT$C$C$E$GT$$GT$..from_par_iter..ok$LT$alloc..vec..Vec$LT$typg_core..search..TypgFontFaceMatch$GT$$C$anyhow..Error$GT$..$u7b$$u7b$closure$u7d$$u7d$$GT$$C$typg_core..search..search..$u7b$$u7b$closure$u7d$$u7d$..$u7b$$u7b$closure$u7d$$u7d$$GT$$GT$..$u7b$$u7b$closure$u7d$$u7d$$C$alloc..collections..linked_list..LinkedList$LT$alloc..vec..Vec$LT$alloc..vec..Vec$LT$typg_core..search..TypgFontFaceMatch$GT$$GT$$GT$$C$alloc..collections..linked_list..LinkedList$LT$alloc..vec..Vec$LT$alloc..vec..Vec$LT$typg_core..search..TypgFontFaceMatch$GT$$GT$$GT$$GT$..$u7b$$u7b$closure$u7d$$u7d$$C$$LP$alloc..collections..linked_list..LinkedList$LT$alloc..vec..Vec$LT$alloc..vec..Vec$LT$typg_core..search..TypgFontFaceMatch$GT$$GT$$GT$$C$alloc..collections..linked_list..LinkedList$LT$alloc..vec..Vec$LT$alloc..vec..Vec$LT$typg_core..search..TypgFontFaceMatch$GT$$GT$$GT$$RP$$GT$..$u7b$$u7b$closure$u7d$$u7d$$C$$LP$alloc..collections..linked_list..LinkedList$LT$alloc..vec..Vec$LT$alloc..vec..Vec$LT$typg_core..search..TypgFontFaceMatch$GT$$GT$$GT$$C$alloc..collections..linked_list..LinkedList$LT$alloc..vec..Vec$LT$alloc..vec..Vec$LT$typg_core..search..TypgFontFaceMatch$GT$$GT$$GT$$RP$$GT$$GT$17hf81a831fe33e48b4E', symObjAddr: 0x3510, symBinAddr: 0x30CD4, symSize: 0x24 }
  - { offset: 0x9C325, size: 0x8, addend: 0x0, symName: '__ZN4core3ptr248drop_in_place$LT$$LT$alloc..collections..linked_list..LinkedList$LT$T$C$A$GT$$u20$as$u20$core..ops..drop..Drop$GT$..drop..DropGuard$LT$alloc..vec..Vec$LT$alloc..vec..Vec$LT$typg_core..search..TypgFontFaceMatch$GT$$GT$$C$alloc..alloc..Global$GT$$GT$17he97ace846b58512bE', symObjAddr: 0x3534, symBinAddr: 0x30CF8, symSize: 0x24 }
  - { offset: 0x9C354, size: 0x8, addend: 0x0, symName: '__ZN4core3ptr2501drop_in_place$LT$rayon_core..job..StackJob$LT$rayon_core..latch..SpinLatch$C$rayon_core..registry..Registry..in_worker_cross$LT$rayon_core..join..join_context$LT$rayon..iter..plumbing..bridge_producer_consumer..helper$LT$rayon..slice..IterProducer$LT$typg_core..discovery..TypgFontSourceRef$GT$$C$rayon..iter..map..MapConsumer$LT$rayon..iter..map..MapConsumer$LT$rayon..iter..while_some..WhileSomeConsumer$LT$rayon..iter..collect..consumer..CollectConsumer$LT$alloc..vec..Vec$LT$typg_core..search..TypgFontFaceMatch$GT$$GT$$GT$$C$rayon..result..$LT$impl$u20$rayon..iter..FromParallelIterator$LT$core..result..Result$LT$T$C$E$GT$$GT$$u20$for$u20$core..result..Result$LT$C$C$E$GT$$GT$..from_par_iter..ok$LT$alloc..vec..Vec$LT$typg_core..search..TypgFontFaceMatch$GT$$C$anyhow..Error$GT$..$u7b$$u7b$closure$u7d$$u7d$$GT$$C$typg_core..search..search..$u7b$$u7b$closure$u7d$$u7d$..$u7b$$u7b$closure$u7d$$u7d$$GT$$GT$..$u7b$$u7b$closure$u7d$$u7d$$C$rayon..iter..plumbing..bridge_producer_consumer..helper$LT$rayon..slice..IterProducer$LT$typg_core..discovery..TypgFontSourceRef$GT$$C$rayon..iter..map..MapConsumer$LT$rayon..iter..map..MapConsumer$LT$rayon..iter..while_some..WhileSomeConsumer$LT$rayon..iter..collect..consumer..CollectConsumer$LT$alloc..vec..Vec$LT$typg_core..search..TypgFontFaceMatch$GT$$GT$$GT$$C$rayon..result..$LT$impl$u20$rayon..iter..FromParallelIterator$LT$core..result..Result$LT$T$C$E$GT$$GT$$u20$for$u20$core..result..Result$LT$C$C$E$GT$$GT$..from_par_iter..ok$LT$alloc..vec..Vec$LT$typg_core..search..TypgFontFaceMatch$GT$$C$anyhow..Error$GT$..$u7b$$u7b$closure$u7d$$u7d$$GT$$C$typg_core..search..search..$u7b$$u7b$closure$u7d$$u7d$..$u7b$$u7b$closure$u7d$$u7d$$GT$$GT$..$u7b$$u7b$closure$u7d$$u7d$$C$rayon..iter..collect..consumer..CollectResult$LT$alloc..vec..Vec$LT$typg_core..search..TypgFontFaceMatch$GT$$GT$$C$rayon..iter..collect..consumer..CollectResult$LT$alloc..vec..Vec$LT$typg_core..search..TypgFontFaceMatch$GT$$GT$$GT$..$u7b$$u7b$closure$u7d$$u7d$$C$$LP$rayon..iter..collect..consumer..CollectResult$LT$alloc..vec..Vec$LT$typg_core..search..TypgFontFaceMatch$GT$$GT$$C$rayon..iter..collect..consumer..CollectResult$LT$alloc..vec..Vec$LT$typg_core..search..TypgFontFaceMatch$GT$$GT$$RP$$GT$..$u7b$$u7b$closure$u7d$$u7d$$C$$LP$rayon..iter..collect..consumer..CollectResult$LT$alloc..vec..Vec$LT$typg_core..search..TypgFontFaceMatch$GT$$GT$$C$rayon..iter..collect..consumer..CollectResult$LT$alloc..vec..Vec$LT$typg_core..search..TypgFontFaceMatch$GT$$GT$$RP$$GT$$GT$17h085fd45bb470b1a5E', symObjAddr: 0x3558, symBinAddr: 0x30D1C, symSize: 0x24 }
  - { offset: 0x9C383, size: 0x8, addend: 0x0, symName: '__ZN4core3ptr252drop_in_place$LT$$LP$alloc..collections..linked_list..LinkedList$LT$alloc..vec..Vec$LT$typg_core..search..TypgFontFaceMatch$GT$$GT$$C$alloc..collections..linked_list..LinkedList$LT$alloc..vec..Vec$LT$typg_core..search..TypgFontFaceMatch$GT$$GT$$RP$$GT$17h57827052f573cb41E', symObjAddr: 0x357C, symBinAddr: 0x30D40, symSize: 0x60 }
  - { offset: 0x9C3B2, size: 0x8, addend: 0x0, symName: '__ZN4core3ptr2534drop_in_place$LT$rayon_core..job..StackJob$LT$rayon_core..latch..LatchRef$LT$rayon_core..latch..LockLatch$GT$$C$rayon_core..registry..Registry..in_worker_cold$LT$rayon_core..join..join_context$LT$rayon..iter..plumbing..bridge_producer_consumer..helper$LT$rayon..slice..IterProducer$LT$typg_core..discovery..TypgFontSourceRef$GT$$C$rayon..iter..map..MapConsumer$LT$rayon..iter..map..MapConsumer$LT$rayon..iter..while_some..WhileSomeConsumer$LT$rayon..iter..extend..ListVecConsumer$GT$$C$rayon..result..$LT$impl$u20$rayon..iter..FromParallelIterator$LT$core..result..Result$LT$T$C$E$GT$$GT$$u20$for$u20$core..result..Result$LT$C$C$E$GT$$GT$..from_par_iter..ok$LT$alloc..vec..Vec$LT$typg_core..search..TypgFontFaceMatch$GT$$C$anyhow..Error$GT$..$u7b$$u7b$closure$u7d$$u7d$$GT$$C$typg_core..search..search..$u7b$$u7b$closure$u7d$$u7d$..$u7b$$u7b$closure$u7d$$u7d$$GT$$GT$..$u7b$$u7b$closure$u7d$$u7d$$C$rayon..iter..plumbing..bridge_producer_consumer..helper$LT$rayon..slice..IterProducer$LT$typg_core..discovery..TypgFontSourceRef$GT$$C$rayon..iter..map..MapConsumer$LT$rayon..iter..map..MapConsumer$LT$rayon..iter..while_some..WhileSomeConsumer$LT$rayon..iter..extend..ListVecConsumer$GT$$C$rayon..result..$LT$impl$u20$rayon..iter..FromParallelIterator$LT$core..result..Result$LT$T$C$E$GT$$GT$$u20$for$u20$core..result..Result$LT$C$C$E$GT$$GT$..from_par_iter..ok$LT$alloc..vec..Vec$LT$typg_core..search..TypgFontFaceMatch$GT$$C$anyhow..Error$GT$..$u7b$$u7b$closure$u7d$$u7d$$GT$$C$typg_core..search..search..$u7b$$u7b$closure$u7d$$u7d$..$u7b$$u7b$closure$u7d$$u7d$$GT$$GT$..$u7b$$u7b$closure$u7d$$u7d$$C$alloc..collections..linked_list..LinkedList$LT$alloc..vec..Vec$LT$alloc..vec..Vec$LT$typg_core..search..TypgFontFaceMatch$GT$$GT$$GT$$C$alloc..collections..linked_list..LinkedList$LT$alloc..vec..Vec$LT$alloc..vec..Vec$LT$typg_core..search..TypgFontFaceMatch$GT$$GT$$GT$$GT$..$u7b$$u7b$closure$u7d$$u7d$$C$$LP$alloc..collections..linked_list..LinkedList$LT$alloc..vec..Vec$LT$alloc..vec..Vec$LT$typg_core..search..TypgFontFaceMatch$GT$$GT$$GT$$C$alloc..collections..linked_list..LinkedList$LT$alloc..vec..Vec$LT$alloc..vec..Vec$LT$typg_core..search..TypgFontFaceMatch$GT$$GT$$GT$$RP$$GT$..$u7b$$u7b$closure$u7d$$u7d$..$u7b$$u7b$closure$u7d$$u7d$$C$$LP$alloc..collections..linked_list..LinkedList$LT$alloc..vec..Vec$LT$alloc..vec..Vec$LT$typg_core..search..TypgFontFaceMatch$GT$$GT$$GT$$C$alloc..collections..linked_list..LinkedList$LT$alloc..vec..Vec$LT$alloc..vec..Vec$LT$typg_core..search..TypgFontFaceMatch$GT$$GT$$GT$$RP$$GT$$GT$17h4d5345973778fa12E', symObjAddr: 0x35DC, symBinAddr: 0x30DA0, symSize: 0x24 }
  - { offset: 0x9C3E1, size: 0x8, addend: 0x0, symName: '__ZN4core3ptr2564drop_in_place$LT$rayon_core..job..StackJob$LT$rayon_core..latch..LatchRef$LT$rayon_core..latch..LockLatch$GT$$C$rayon_core..registry..Registry..in_worker_cold$LT$rayon_core..join..join_context$LT$rayon..iter..plumbing..bridge_producer_consumer..helper$LT$rayon..slice..IterProducer$LT$typg_core..discovery..TypgFontSourceRef$GT$$C$rayon..iter..map..MapConsumer$LT$rayon..iter..map..MapConsumer$LT$rayon..iter..while_some..WhileSomeConsumer$LT$rayon..iter..collect..consumer..CollectConsumer$LT$alloc..vec..Vec$LT$typg_core..search..TypgFontFaceMatch$GT$$GT$$GT$$C$rayon..result..$LT$impl$u20$rayon..iter..FromParallelIterator$LT$core..result..Result$LT$T$C$E$GT$$GT$$u20$for$u20$core..result..Result$LT$C$C$E$GT$$GT$..from_par_iter..ok$LT$alloc..vec..Vec$LT$typg_core..search..TypgFontFaceMatch$GT$$C$anyhow..Error$GT$..$u7b$$u7b$closure$u7d$$u7d$$GT$$C$typg_core..search..search..$u7b$$u7b$closure$u7d$$u7d$..$u7b$$u7b$closure$u7d$$u7d$$GT$$GT$..$u7b$$u7b$closure$u7d$$u7d$$C$rayon..iter..plumbing..bridge_producer_consumer..helper$LT$rayon..slice..IterProducer$LT$typg_core..discovery..TypgFontSourceRef$GT$$C$rayon..iter..map..MapConsumer$LT$rayon..iter..map..MapConsumer$LT$rayon..iter..while_some..WhileSomeConsumer$LT$rayon..iter..collect..consumer..CollectConsumer$LT$alloc..vec..Vec$LT$typg_core..search..TypgFontFaceMatch$GT$$GT$$GT$$C$rayon..result..$LT$impl$u20$rayon..iter..FromParallelIterator$LT$core..result..Result$LT$T$C$E$GT$$GT$$u20$for$u20$core..result..Result$LT$C$C$E$GT$$GT$..from_par_iter..ok$LT$alloc..vec..Vec$LT$typg_core..search..TypgFontFaceMatch$GT$$C$anyhow..Error$GT$..$u7b$$u7b$closure$u7d$$u7d$$GT$$C$typg_core..search..search..$u7b$$u7b$closure$u7d$$u7d$..$u7b$$u7b$closure$u7d$$u7d$$GT$$GT$..$u7b$$u7b$closure$u7d$$u7d$$C$rayon..iter..collect..consumer..CollectResult$LT$alloc..vec..Vec$LT$typg_core..search..TypgFontFaceMatch$GT$$GT$$C$rayon..iter..collect..consumer..CollectResult$LT$alloc..vec..Vec$LT$typg_core..search..TypgFontFaceMatch$GT$$GT$$GT$..$u7b$$u7b$closure$u7d$$u7d$$C$$LP$rayon..iter..collect..consumer..CollectResult$LT$alloc..vec..Vec$LT$typg_core..search..TypgFontFaceMatch$GT$$GT$$C$rayon..iter..collect..consumer..CollectResult$LT$alloc..vec..Vec$LT$typg_core..search..TypgFontFaceMatch$GT$$GT$$RP$$GT$..$u7b$$u7b$closure$u7d$$u7d$..$u7b$$u7b$closure$u7d$$u7d$$C$$LP$rayon..iter..collect..consumer..CollectResult$LT$alloc..vec..Vec$LT$typg_core..search..TypgFontFaceMatch$GT$$GT$$C$rayon..iter..collect..consumer..CollectResult$LT$alloc..vec..Vec$LT$typg_core..search..TypgFontFaceMatch$GT$$GT$$RP$$GT$$GT$17he37c4fed2074c9fcE', symObjAddr: 0x3600, symBinAddr: 0x30DC4, symSize: 0x24 }
  - { offset: 0x9C410, size: 0x8, addend: 0x0, symName: '__ZN4core3ptr256drop_in_place$LT$$LP$rayon..iter..collect..consumer..CollectResult$LT$alloc..vec..Vec$LT$typg_core..search..TypgFontFaceMatch$GT$$GT$$C$rayon..iter..collect..consumer..CollectResult$LT$alloc..vec..Vec$LT$typg_core..search..TypgFontFaceMatch$GT$$GT$$RP$$GT$17h2a0948b1eaf859e4E', symObjAddr: 0x3624, symBinAddr: 0x30DE8, symSize: 0x60 }
  - { offset: 0x9C43F, size: 0x8, addend: 0x0, symName: '__ZN4core3ptr261drop_in_place$LT$core..result..Result$LT$std..sync..poison..mutex..MutexGuard$LT$core..option..Option$LT$anyhow..Error$GT$$GT$$C$std..sync..poison..TryLockError$LT$std..sync..poison..mutex..MutexGuard$LT$core..option..Option$LT$anyhow..Error$GT$$GT$$GT$$GT$$GT$17he7cc7ddf3d17f9c3E', symObjAddr: 0x3684, symBinAddr: 0x30E48, symSize: 0x50 }
  - { offset: 0x9C46E, size: 0x8, addend: 0x0, symName: '__ZN4core3ptr266drop_in_place$LT$rayon..iter..filter..Filter$LT$rayon..iter..flatten..Flatten$LT$rayon..vec..IntoIter$LT$alloc..vec..Vec$LT$typg_core..search..TypgFontFaceMatch$GT$$GT$$GT$$C$typg_core..search..search..$u7b$$u7b$closure$u7d$$u7d$..$u7b$$u7b$closure$u7d$$u7d$$GT$$GT$17h4eb639fa46403d29E', symObjAddr: 0x36D4, symBinAddr: 0x30E98, symSize: 0x24 }
  - { offset: 0x9C49D, size: 0x8, addend: 0x0, symName: '__ZN4core3ptr274drop_in_place$LT$alloc..vec..Vec$LT$font_types..tag..Tag$GT$..extend_trusted$LT$core..iter..adapters..map..Map$LT$core..slice..iter..Iter$LT$read_fonts..TableRecord$GT$$C$typg_core..search..collect_tables..$u7b$$u7b$closure$u7d$$u7d$$GT$$GT$..$u7b$$u7b$closure$u7d$$u7d$$GT$17hfb25e5a5408ca947E', symObjAddr: 0x36F8, symBinAddr: 0x30EBC, symSize: 0x24 }
  - { offset: 0x9C4CC, size: 0x8, addend: 0x0, symName: '__ZN4core3ptr274drop_in_place$LT$core..cell..UnsafeCell$LT$rayon_core..job..JobResult$LT$$LP$rayon..iter..collect..consumer..CollectResult$LT$typg_core..search..TypgFontFaceMatch$GT$$C$rayon..iter..collect..consumer..CollectResult$LT$typg_core..search..TypgFontFaceMatch$GT$$RP$$GT$$GT$$GT$17h637161016dc05810E', symObjAddr: 0x371C, symBinAddr: 0x30EE0, symSize: 0x24 }
  - { offset: 0x9C4FB, size: 0x8, addend: 0x0, symName: '__ZN4core3ptr286drop_in_place$LT$rayon_core..job..JobResult$LT$$LP$alloc..collections..linked_list..LinkedList$LT$alloc..vec..Vec$LT$typg_core..search..TypgFontFaceMatch$GT$$GT$$C$alloc..collections..linked_list..LinkedList$LT$alloc..vec..Vec$LT$typg_core..search..TypgFontFaceMatch$GT$$GT$$RP$$GT$$GT$17h04ca58facaf07f77E', symObjAddr: 0x3740, symBinAddr: 0x30F04, symSize: 0x64 }
  - { offset: 0x9C52A, size: 0x8, addend: 0x0, symName: '__ZN4core3ptr290drop_in_place$LT$rayon_core..job..JobResult$LT$$LP$rayon..iter..collect..consumer..CollectResult$LT$alloc..vec..Vec$LT$typg_core..search..TypgFontFaceMatch$GT$$GT$$C$rayon..iter..collect..consumer..CollectResult$LT$alloc..vec..Vec$LT$typg_core..search..TypgFontFaceMatch$GT$$GT$$RP$$GT$$GT$17h7118b974e037f5e2E', symObjAddr: 0x37A4, symBinAddr: 0x30F68, symSize: 0x64 }
  - { offset: 0x9C559, size: 0x8, addend: 0x0, symName: '__ZN4core3ptr292drop_in_place$LT$alloc..vec..Vec$LT$font_types..tag..Tag$GT$..extend_trusted$LT$core..iter..adapters..map..Map$LT$core..slice..iter..Iter$LT$read_fonts..tables..layout..ScriptRecord$GT$$C$typg_core..search..collect_scripts..$u7b$$u7b$closure$u7d$$u7d$$GT$$GT$..$u7b$$u7b$closure$u7d$$u7d$$GT$17h2a2b091f3bb111c5E', symObjAddr: 0x3808, symBinAddr: 0x30FCC, symSize: 0x24 }
  - { offset: 0x9C588, size: 0x8, addend: 0x0, symName: '__ZN4core3ptr292drop_in_place$LT$alloc..vec..Vec$LT$font_types..tag..Tag$GT$..extend_trusted$LT$core..iter..adapters..map..Map$LT$core..slice..iter..Iter$LT$read_fonts..tables..layout..ScriptRecord$GT$$C$typg_core..search..collect_scripts..$u7b$$u7b$closure$u7d$$u7d$$GT$$GT$..$u7b$$u7b$closure$u7d$$u7d$$GT$17h3be80847236030a1E', symObjAddr: 0x382C, symBinAddr: 0x30FF0, symSize: 0x24 }
  - { offset: 0x9C5B7, size: 0x8, addend: 0x0, symName: '__ZN4core3ptr294drop_in_place$LT$alloc..vec..Vec$LT$font_types..tag..Tag$GT$..extend_trusted$LT$core..iter..adapters..map..Map$LT$core..slice..iter..Iter$LT$read_fonts..tables..fvar..VariationAxisRecord$GT$$C$typg_core..search..collect_axes..$u7b$$u7b$closure$u7d$$u7d$$GT$$GT$..$u7b$$u7b$closure$u7d$$u7d$$GT$17h71be27238a87101cE', symObjAddr: 0x3850, symBinAddr: 0x31014, symSize: 0x24 }
  - { offset: 0x9C5E6, size: 0x8, addend: 0x0, symName: '__ZN4core3ptr294drop_in_place$LT$alloc..vec..Vec$LT$font_types..tag..Tag$GT$..extend_trusted$LT$core..iter..adapters..map..Map$LT$core..slice..iter..Iter$LT$read_fonts..tables..layout..FeatureRecord$GT$$C$typg_core..search..collect_features..$u7b$$u7b$closure$u7d$$u7d$$GT$$GT$..$u7b$$u7b$closure$u7d$$u7d$$GT$17h2cf8221f0767612fE', symObjAddr: 0x3874, symBinAddr: 0x31038, symSize: 0x24 }
  - { offset: 0x9C615, size: 0x8, addend: 0x0, symName: '__ZN4core3ptr294drop_in_place$LT$alloc..vec..Vec$LT$font_types..tag..Tag$GT$..extend_trusted$LT$core..iter..adapters..map..Map$LT$core..slice..iter..Iter$LT$read_fonts..tables..layout..FeatureRecord$GT$$C$typg_core..search..collect_features..$u7b$$u7b$closure$u7d$$u7d$$GT$$GT$..$u7b$$u7b$closure$u7d$$u7d$$GT$17hb2810e8590fa02c3E', symObjAddr: 0x3898, symBinAddr: 0x3105C, symSize: 0x24 }
  - { offset: 0x9C644, size: 0x8, addend: 0x0, symName: '__ZN4core3ptr298drop_in_place$LT$$LP$alloc..collections..linked_list..LinkedList$LT$alloc..vec..Vec$LT$alloc..vec..Vec$LT$typg_core..search..TypgFontFaceMatch$GT$$GT$$GT$$C$alloc..collections..linked_list..LinkedList$LT$alloc..vec..Vec$LT$alloc..vec..Vec$LT$typg_core..search..TypgFontFaceMatch$GT$$GT$$GT$$RP$$GT$17h25ed2f43b0828141E', symObjAddr: 0x38BC, symBinAddr: 0x31080, symSize: 0x60 }
  - { offset: 0x9C673, size: 0x8, addend: 0x0, symName: '__ZN4core3ptr316drop_in_place$LT$core..cell..UnsafeCell$LT$rayon_core..job..JobResult$LT$$LP$alloc..collections..linked_list..LinkedList$LT$alloc..vec..Vec$LT$typg_core..search..TypgFontFaceMatch$GT$$GT$$C$alloc..collections..linked_list..LinkedList$LT$alloc..vec..Vec$LT$typg_core..search..TypgFontFaceMatch$GT$$GT$$RP$$GT$$GT$$GT$17h33d7a51c01720f60E', symObjAddr: 0x391C, symBinAddr: 0x310E0, symSize: 0x24 }
  - { offset: 0x9C6A2, size: 0x8, addend: 0x0, symName: '__ZN4core3ptr320drop_in_place$LT$core..cell..UnsafeCell$LT$rayon_core..job..JobResult$LT$$LP$rayon..iter..collect..consumer..CollectResult$LT$alloc..vec..Vec$LT$typg_core..search..TypgFontFaceMatch$GT$$GT$$C$rayon..iter..collect..consumer..CollectResult$LT$alloc..vec..Vec$LT$typg_core..search..TypgFontFaceMatch$GT$$GT$$RP$$GT$$GT$$GT$17h3b76ab3e5569e13fE', symObjAddr: 0x3940, symBinAddr: 0x31104, symSize: 0x24 }
  - { offset: 0x9C6D1, size: 0x8, addend: 0x0, symName: '__ZN4core3ptr332drop_in_place$LT$rayon_core..job..JobResult$LT$$LP$alloc..collections..linked_list..LinkedList$LT$alloc..vec..Vec$LT$alloc..vec..Vec$LT$typg_core..search..TypgFontFaceMatch$GT$$GT$$GT$$C$alloc..collections..linked_list..LinkedList$LT$alloc..vec..Vec$LT$alloc..vec..Vec$LT$typg_core..search..TypgFontFaceMatch$GT$$GT$$GT$$RP$$GT$$GT$17hcd0b21828e7dd425E', symObjAddr: 0x3964, symBinAddr: 0x31128, symSize: 0x64 }
  - { offset: 0x9C700, size: 0x8, addend: 0x0, symName: '__ZN4core3ptr338drop_in_place$LT$alloc..vec..Vec$LT$std..path..PathBuf$GT$..extend_trusted$LT$core..iter..adapters..map..Map$LT$core..iter..adapters..cloned..Cloned$LT$core..slice..iter..Iter$LT$std..path..PathBuf$GT$$GT$$C$$LT$std..path..PathBuf$u20$as$u20$core..convert..Into$LT$std..path..PathBuf$GT$$GT$..into$GT$$GT$..$u7b$$u7b$closure$u7d$$u7d$$GT$17hf7082ee037fedfccE', symObjAddr: 0x39C8, symBinAddr: 0x3118C, symSize: 0x24 }
  - { offset: 0x9C72F, size: 0x8, addend: 0x0, symName: '__ZN4core3ptr342drop_in_place$LT$rayon..iter..flatten..FlattenFolder$LT$rayon..iter..filter..FilterConsumer$LT$rayon..iter..extend..ListVecConsumer$C$typg_core..search..search..$u7b$$u7b$closure$u7d$$u7d$..$u7b$$u7b$closure$u7d$$u7d$$GT$$C$alloc..collections..linked_list..LinkedList$LT$alloc..vec..Vec$LT$typg_core..search..TypgFontFaceMatch$GT$$GT$$GT$$GT$17h59c9bdb924209d5aE', symObjAddr: 0x39EC, symBinAddr: 0x311B0, symSize: 0x24 }
  - { offset: 0x9C75E, size: 0x8, addend: 0x0, symName: '__ZN4core3ptr343drop_in_place$LT$core..result..Result$LT$std..sync..poison..mutex..MutexGuard$LT$alloc..vec..Vec$LT$alloc..boxed..Box$LT$regex_automata..meta..regex..Cache$GT$$GT$$GT$$C$std..sync..poison..TryLockError$LT$std..sync..poison..mutex..MutexGuard$LT$alloc..vec..Vec$LT$alloc..boxed..Box$LT$regex_automata..meta..regex..Cache$GT$$GT$$GT$$GT$$GT$$GT$17h83c34188755791c9E', symObjAddr: 0x3A10, symBinAddr: 0x311D4, symSize: 0x50 }
  - { offset: 0x9C78D, size: 0x8, addend: 0x0, symName: '__ZN4core3ptr34drop_in_place$LT$anyhow..Error$GT$17h06c8bcf98cd3aeaeE', symObjAddr: 0x3A60, symBinAddr: 0x31224, symSize: 0x24 }
  - { offset: 0x9C7BC, size: 0x8, addend: 0x0, symName: '__ZN4core3ptr350drop_in_place$LT$rayon..iter..plumbing..bridge_producer_consumer..helper$LT$rayon..vec..DrainProducer$LT$typg_core..search..TypgFontFaceMatch$GT$$C$rayon..iter..filter..FilterConsumer$LT$rayon..iter..extend..ListVecConsumer$C$typg_core..search..search..$u7b$$u7b$closure$u7d$$u7d$..$u7b$$u7b$closure$u7d$$u7d$$GT$$GT$..$u7b$$u7b$closure$u7d$$u7d$$GT$17h8f0a85420f224687E', symObjAddr: 0x3A84, symBinAddr: 0x31248, symSize: 0x24 }
  - { offset: 0x9C7EB, size: 0x8, addend: 0x0, symName: '__ZN4core3ptr350drop_in_place$LT$rayon..iter..plumbing..bridge_producer_consumer..helper$LT$rayon..vec..DrainProducer$LT$typg_core..search..TypgFontFaceMatch$GT$$C$rayon..iter..filter..FilterConsumer$LT$rayon..iter..extend..ListVecConsumer$C$typg_core..search..search..$u7b$$u7b$closure$u7d$$u7d$..$u7b$$u7b$closure$u7d$$u7d$$GT$$GT$..$u7b$$u7b$closure$u7d$$u7d$$GT$17hd67723ccba72d228E', symObjAddr: 0x3AA8, symBinAddr: 0x3126C, symSize: 0x24 }
  - { offset: 0x9C81A, size: 0x8, addend: 0x0, symName: '__ZN4core3ptr362drop_in_place$LT$core..cell..UnsafeCell$LT$rayon_core..job..JobResult$LT$$LP$alloc..collections..linked_list..LinkedList$LT$alloc..vec..Vec$LT$alloc..vec..Vec$LT$typg_core..search..TypgFontFaceMatch$GT$$GT$$GT$$C$alloc..collections..linked_list..LinkedList$LT$alloc..vec..Vec$LT$alloc..vec..Vec$LT$typg_core..search..TypgFontFaceMatch$GT$$GT$$GT$$RP$$GT$$GT$$GT$17h9c1af6803ff20b15E', symObjAddr: 0x3ACC, symBinAddr: 0x31290, symSize: 0x24 }
  - { offset: 0x9C849, size: 0x8, addend: 0x0, symName: '__ZN4core3ptr366drop_in_place$LT$regex_automata..util..pool..PoolGuard$LT$regex_automata..meta..regex..Cache$C$alloc..boxed..Box$LT$dyn$u20$core..ops..function..Fn$LT$$LP$$RP$$GT$$u2b$Output$u20$$u3d$$u20$regex_automata..meta..regex..Cache$u2b$core..panic..unwind_safe..UnwindSafe$u2b$core..marker..Sync$u2b$core..panic..unwind_safe..RefUnwindSafe$u2b$core..marker..Send$GT$$GT$$GT$17hb53906fa4c45cb25E', symObjAddr: 0x3AF0, symBinAddr: 0x312B4, symSize: 0x24 }
  - { offset: 0x9C878, size: 0x8, addend: 0x0, symName: '__ZN4core3ptr373drop_in_place$LT$regex_automata..util..pool..inner..PoolGuard$LT$regex_automata..meta..regex..Cache$C$alloc..boxed..Box$LT$dyn$u20$core..ops..function..Fn$LT$$LP$$RP$$GT$$u2b$Output$u20$$u3d$$u20$regex_automata..meta..regex..Cache$u2b$core..panic..unwind_safe..UnwindSafe$u2b$core..marker..Sync$u2b$core..panic..unwind_safe..RefUnwindSafe$u2b$core..marker..Send$GT$$GT$$GT$17h59ecf189123bae38E', symObjAddr: 0x3B14, symBinAddr: 0x312D8, symSize: 0x5C }
  - { offset: 0x9C8A7, size: 0x8, addend: 0x0, symName: '__ZN4core3ptr376drop_in_place$LT$rayon..iter..flatten..FlattenFolder$LT$rayon..iter..filter..FilterConsumer$LT$rayon..iter..collect..consumer..CollectConsumer$LT$typg_core..search..TypgFontFaceMatch$GT$$C$typg_core..search..search..$u7b$$u7b$closure$u7d$$u7d$..$u7b$$u7b$closure$u7d$$u7d$$GT$$C$rayon..iter..collect..consumer..CollectResult$LT$typg_core..search..TypgFontFaceMatch$GT$$GT$$GT$17hd9db6038c5128e13E', symObjAddr: 0x3B70, symBinAddr: 0x31334, symSize: 0x24 }
  - { offset: 0x9C8D6, size: 0x8, addend: 0x0, symName: '__ZN4core3ptr378drop_in_place$LT$rayon..iter..collect..special_extend$LT$rayon..iter..filter..Filter$LT$rayon..iter..flatten..Flatten$LT$rayon..vec..IntoIter$LT$alloc..vec..Vec$LT$typg_core..search..TypgFontFaceMatch$GT$$GT$$GT$$C$typg_core..search..search..$u7b$$u7b$closure$u7d$$u7d$..$u7b$$u7b$closure$u7d$$u7d$$GT$$C$typg_core..search..TypgFontFaceMatch$GT$..$u7b$$u7b$closure$u7d$$u7d$$GT$17hf127cac6ae6c075dE', symObjAddr: 0x3B94, symBinAddr: 0x31358, symSize: 0x24 }
  - { offset: 0x9C905, size: 0x8, addend: 0x0, symName: '__ZN4core3ptr388drop_in_place$LT$core..iter..traits..iterator..Iterator..for_each..call$LT$font_types..tag..Tag$C$alloc..vec..Vec$LT$font_types..tag..Tag$GT$..extend_trusted$LT$core..iter..adapters..map..Map$LT$core..slice..iter..Iter$LT$read_fonts..TableRecord$GT$$C$typg_core..search..collect_tables..$u7b$$u7b$closure$u7d$$u7d$$GT$$GT$..$u7b$$u7b$closure$u7d$$u7d$$GT$..$u7b$$u7b$closure$u7d$$u7d$$GT$17hd9613db60a1c838bE', symObjAddr: 0x3BB8, symBinAddr: 0x3137C, symSize: 0x24 }
  - { offset: 0x9C934, size: 0x8, addend: 0x0, symName: '__ZN4core3ptr38drop_in_place$LT$walkdir..IntoIter$GT$17ha245e7655a8c3871E', symObjAddr: 0x3BDC, symBinAddr: 0x313A0, symSize: 0xF4 }
  - { offset: 0x9C963, size: 0x8, addend: 0x0, symName: '__ZN4core3ptr405drop_in_place$LT$rayon..iter..plumbing..bridge_producer_consumer..helper$LT$rayon..vec..DrainProducer$LT$typg_core..search..TypgFontFaceMatch$GT$$C$rayon..iter..filter..FilterConsumer$LT$rayon..iter..collect..consumer..CollectConsumer$LT$typg_core..search..TypgFontFaceMatch$GT$$C$typg_core..search..search..$u7b$$u7b$closure$u7d$$u7d$..$u7b$$u7b$closure$u7d$$u7d$$GT$$GT$..$u7b$$u7b$closure$u7d$$u7d$$GT$17h970c3ed31ffff64eE', symObjAddr: 0x3CD0, symBinAddr: 0x31494, symSize: 0x24 }
  - { offset: 0x9C992, size: 0x8, addend: 0x0, symName: '__ZN4core3ptr405drop_in_place$LT$rayon..iter..plumbing..bridge_producer_consumer..helper$LT$rayon..vec..DrainProducer$LT$typg_core..search..TypgFontFaceMatch$GT$$C$rayon..iter..filter..FilterConsumer$LT$rayon..iter..collect..consumer..CollectConsumer$LT$typg_core..search..TypgFontFaceMatch$GT$$C$typg_core..search..search..$u7b$$u7b$closure$u7d$$u7d$..$u7b$$u7b$closure$u7d$$u7d$$GT$$GT$..$u7b$$u7b$closure$u7d$$u7d$$GT$17hb6c109f11cd3e8dcE', symObjAddr: 0x3CF4, symBinAddr: 0x314B8, symSize: 0x24 }
  - { offset: 0x9C9C1, size: 0x8, addend: 0x0, symName: '__ZN4core3ptr406drop_in_place$LT$core..iter..traits..iterator..Iterator..for_each..call$LT$font_types..tag..Tag$C$alloc..vec..Vec$LT$font_types..tag..Tag$GT$..extend_trusted$LT$core..iter..adapters..map..Map$LT$core..slice..iter..Iter$LT$read_fonts..tables..layout..ScriptRecord$GT$$C$typg_core..search..collect_scripts..$u7b$$u7b$closure$u7d$$u7d$$GT$$GT$..$u7b$$u7b$closure$u7d$$u7d$$GT$..$u7b$$u7b$closure$u7d$$u7d$$GT$17h90cfddf866b0e003E', symObjAddr: 0x3D18, symBinAddr: 0x314DC, symSize: 0x24 }
  - { offset: 0x9C9F0, size: 0x8, addend: 0x0, symName: '__ZN4core3ptr406drop_in_place$LT$core..iter..traits..iterator..Iterator..for_each..call$LT$font_types..tag..Tag$C$alloc..vec..Vec$LT$font_types..tag..Tag$GT$..extend_trusted$LT$core..iter..adapters..map..Map$LT$core..slice..iter..Iter$LT$read_fonts..tables..layout..ScriptRecord$GT$$C$typg_core..search..collect_scripts..$u7b$$u7b$closure$u7d$$u7d$$GT$$GT$..$u7b$$u7b$closure$u7d$$u7d$$GT$..$u7b$$u7b$closure$u7d$$u7d$$GT$17hacc7a2f54a1089caE', symObjAddr: 0x3D3C, symBinAddr: 0x31500, symSize: 0x24 }
  - { offset: 0x9CA1F, size: 0x8, addend: 0x0, symName: '__ZN4core3ptr408drop_in_place$LT$core..iter..traits..iterator..Iterator..for_each..call$LT$font_types..tag..Tag$C$alloc..vec..Vec$LT$font_types..tag..Tag$GT$..extend_trusted$LT$core..iter..adapters..map..Map$LT$core..slice..iter..Iter$LT$read_fonts..tables..fvar..VariationAxisRecord$GT$$C$typg_core..search..collect_axes..$u7b$$u7b$closure$u7d$$u7d$$GT$$GT$..$u7b$$u7b$closure$u7d$$u7d$$GT$..$u7b$$u7b$closure$u7d$$u7d$$GT$17h1ca7be4eed97e675E', symObjAddr: 0x3D60, symBinAddr: 0x31524, symSize: 0x24 }
  - { offset: 0x9CA4E, size: 0x8, addend: 0x0, symName: '__ZN4core3ptr408drop_in_place$LT$core..iter..traits..iterator..Iterator..for_each..call$LT$font_types..tag..Tag$C$alloc..vec..Vec$LT$font_types..tag..Tag$GT$..extend_trusted$LT$core..iter..adapters..map..Map$LT$core..slice..iter..Iter$LT$read_fonts..tables..layout..FeatureRecord$GT$$C$typg_core..search..collect_features..$u7b$$u7b$closure$u7d$$u7d$$GT$$GT$..$u7b$$u7b$closure$u7d$$u7d$$GT$..$u7b$$u7b$closure$u7d$$u7d$$GT$17h160e288f5f5bca5cE', symObjAddr: 0x3D84, symBinAddr: 0x31548, symSize: 0x24 }
  - { offset: 0x9CA7D, size: 0x8, addend: 0x0, symName: '__ZN4core3ptr408drop_in_place$LT$core..iter..traits..iterator..Iterator..for_each..call$LT$font_types..tag..Tag$C$alloc..vec..Vec$LT$font_types..tag..Tag$GT$..extend_trusted$LT$core..iter..adapters..map..Map$LT$core..slice..iter..Iter$LT$read_fonts..tables..layout..FeatureRecord$GT$$C$typg_core..search..collect_features..$u7b$$u7b$closure$u7d$$u7d$$GT$$GT$..$u7b$$u7b$closure$u7d$$u7d$$GT$..$u7b$$u7b$closure$u7d$$u7d$$GT$17h50a84e159e694ea7E', symObjAddr: 0x3DA8, symBinAddr: 0x3156C, symSize: 0x24 }
  - { offset: 0x9CAAC, size: 0x8, addend: 0x0, symName: '__ZN4core3ptr418drop_in_place$LT$rayon..iter..plumbing..bridge_producer_consumer..helper$LT$rayon..vec..DrainProducer$LT$alloc..vec..Vec$LT$typg_core..search..TypgFontFaceMatch$GT$$GT$$C$rayon..iter..flatten..FlattenConsumer$LT$rayon..iter..filter..FilterConsumer$LT$rayon..iter..extend..ListVecConsumer$C$typg_core..search..search..$u7b$$u7b$closure$u7d$$u7d$..$u7b$$u7b$closure$u7d$$u7d$$GT$$GT$$GT$..$u7b$$u7b$closure$u7d$$u7d$$GT$17h20d0a1e1af0cc958E', symObjAddr: 0x3DCC, symBinAddr: 0x31590, symSize: 0x24 }
  - { offset: 0x9CADB, size: 0x8, addend: 0x0, symName: '__ZN4core3ptr418drop_in_place$LT$rayon..iter..plumbing..bridge_producer_consumer..helper$LT$rayon..vec..DrainProducer$LT$alloc..vec..Vec$LT$typg_core..search..TypgFontFaceMatch$GT$$GT$$C$rayon..iter..flatten..FlattenConsumer$LT$rayon..iter..filter..FilterConsumer$LT$rayon..iter..extend..ListVecConsumer$C$typg_core..search..search..$u7b$$u7b$closure$u7d$$u7d$..$u7b$$u7b$closure$u7d$$u7d$$GT$$GT$$GT$..$u7b$$u7b$closure$u7d$$u7d$$GT$17h4be4ca24c7cea927E', symObjAddr: 0x3DF0, symBinAddr: 0x315B4, symSize: 0x24 }
  - { offset: 0x9CB0A, size: 0x8, addend: 0x0, symName: '__ZN4core3ptr44drop_in_place$LT$typg_core..query..Query$GT$17hbac6b95dc3f3e829E', symObjAddr: 0x3E14, symBinAddr: 0x315D8, symSize: 0x180 }
  - { offset: 0x9CB39, size: 0x8, addend: 0x0, symName: '__ZN4core3ptr450drop_in_place$LT$core..iter..traits..iterator..Iterator..for_each..call$LT$std..path..PathBuf$C$alloc..vec..Vec$LT$std..path..PathBuf$GT$..extend_trusted$LT$core..iter..adapters..map..Map$LT$core..iter..adapters..cloned..Cloned$LT$core..slice..iter..Iter$LT$std..path..PathBuf$GT$$GT$$C$$LT$std..path..PathBuf$u20$as$u20$core..convert..Into$LT$std..path..PathBuf$GT$$GT$..into$GT$$GT$..$u7b$$u7b$closure$u7d$$u7d$$GT$..$u7b$$u7b$closure$u7d$$u7d$$GT$17hd2f83db3e448f047E', symObjAddr: 0x3F94, symBinAddr: 0x31758, symSize: 0x24 }
  - { offset: 0x9CB68, size: 0x8, addend: 0x0, symName: '__ZN4core3ptr473drop_in_place$LT$rayon..iter..plumbing..bridge_producer_consumer..helper$LT$rayon..vec..DrainProducer$LT$alloc..vec..Vec$LT$typg_core..search..TypgFontFaceMatch$GT$$GT$$C$rayon..iter..flatten..FlattenConsumer$LT$rayon..iter..filter..FilterConsumer$LT$rayon..iter..collect..consumer..CollectConsumer$LT$typg_core..search..TypgFontFaceMatch$GT$$C$typg_core..search..search..$u7b$$u7b$closure$u7d$$u7d$..$u7b$$u7b$closure$u7d$$u7d$$GT$$GT$$GT$..$u7b$$u7b$closure$u7d$$u7d$$GT$17h226858976e4ceac8E', symObjAddr: 0x3FB8, symBinAddr: 0x3177C, symSize: 0x24 }
  - { offset: 0x9CB97, size: 0x8, addend: 0x0, symName: '__ZN4core3ptr473drop_in_place$LT$rayon..iter..plumbing..bridge_producer_consumer..helper$LT$rayon..vec..DrainProducer$LT$alloc..vec..Vec$LT$typg_core..search..TypgFontFaceMatch$GT$$GT$$C$rayon..iter..flatten..FlattenConsumer$LT$rayon..iter..filter..FilterConsumer$LT$rayon..iter..collect..consumer..CollectConsumer$LT$typg_core..search..TypgFontFaceMatch$GT$$C$typg_core..search..search..$u7b$$u7b$closure$u7d$$u7d$..$u7b$$u7b$closure$u7d$$u7d$$GT$$GT$$GT$..$u7b$$u7b$closure$u7d$$u7d$$GT$17h4139a8533a693599E', symObjAddr: 0x3FDC, symBinAddr: 0x317A0, symSize: 0x24 }
  - { offset: 0x9CBC6, size: 0x8, addend: 0x0, symName: '__ZN4core3ptr48drop_in_place$LT$regex..regex..string..Regex$GT$17h3852975d9d9869ffE', symObjAddr: 0x4000, symBinAddr: 0x317C4, symSize: 0x60 }
  - { offset: 0x9CBF5, size: 0x8, addend: 0x0, symName: '__ZN4core3ptr491drop_in_place$LT$rayon..iter..map..MapFolder$LT$rayon..iter..while_some..WhileSomeFolder$LT$rayon..iter..extend..ListVecFolder$LT$alloc..vec..Vec$LT$typg_core..search..TypgFontFaceMatch$GT$$GT$$GT$$C$rayon..result..$LT$impl$u20$rayon..iter..FromParallelIterator$LT$core..result..Result$LT$T$C$E$GT$$GT$$u20$for$u20$core..result..Result$LT$C$C$E$GT$$GT$..from_par_iter..ok$LT$alloc..vec..Vec$LT$typg_core..search..TypgFontFaceMatch$GT$$C$anyhow..Error$GT$..$u7b$$u7b$closure$u7d$$u7d$$GT$$GT$17h63fba3551e95f700E', symObjAddr: 0x4060, symBinAddr: 0x31824, symSize: 0x24 }
  - { offset: 0x9CC24, size: 0x8, addend: 0x0, symName: '__ZN4core3ptr49drop_in_place$LT$$u5b$std..path..PathBuf$u5d$$GT$17h5aff4046f1840cc0E', symObjAddr: 0x4084, symBinAddr: 0x31848, symSize: 0xC4 }
  - { offset: 0x9CC53, size: 0x8, addend: 0x0, symName: '__ZN4core3ptr502drop_in_place$LT$rayon..iter..map..MapFolder$LT$rayon..iter..while_some..WhileSomeFolder$LT$rayon..iter..collect..consumer..CollectResult$LT$alloc..vec..Vec$LT$typg_core..search..TypgFontFaceMatch$GT$$GT$$GT$$C$rayon..result..$LT$impl$u20$rayon..iter..FromParallelIterator$LT$core..result..Result$LT$T$C$E$GT$$GT$$u20$for$u20$core..result..Result$LT$C$C$E$GT$$GT$..from_par_iter..ok$LT$alloc..vec..Vec$LT$typg_core..search..TypgFontFaceMatch$GT$$C$anyhow..Error$GT$..$u7b$$u7b$closure$u7d$$u7d$$GT$$GT$17h498bc35d72232907E', symObjAddr: 0x4148, symBinAddr: 0x3190C, symSize: 0x24 }
  - { offset: 0x9CC82, size: 0x8, addend: 0x0, symName: '__ZN4core3ptr51drop_in_place$LT$alloc..vec..Vec$LT$$RF$str$GT$$GT$17h1ed1059bbc974be1E', symObjAddr: 0x416C, symBinAddr: 0x31930, symSize: 0x5C }
  - { offset: 0x9CCB1, size: 0x8, addend: 0x0, symName: '__ZN4core3ptr538drop_in_place$LT$rayon_core..join..join_context..call_b$LT$alloc..collections..linked_list..LinkedList$LT$alloc..vec..Vec$LT$typg_core..search..TypgFontFaceMatch$GT$$GT$$C$rayon..iter..plumbing..bridge_producer_consumer..helper$LT$rayon..vec..DrainProducer$LT$typg_core..search..TypgFontFaceMatch$GT$$C$rayon..iter..filter..FilterConsumer$LT$rayon..iter..extend..ListVecConsumer$C$typg_core..search..search..$u7b$$u7b$closure$u7d$$u7d$..$u7b$$u7b$closure$u7d$$u7d$$GT$$GT$..$u7b$$u7b$closure$u7d$$u7d$$GT$..$u7b$$u7b$closure$u7d$$u7d$$GT$17ha4668e9daf1288f1E', symObjAddr: 0x41C8, symBinAddr: 0x3198C, symSize: 0x24 }
  - { offset: 0x9CCE0, size: 0x8, addend: 0x0, symName: '__ZN4core3ptr54drop_in_place$LT$$u5b$walkdir..dent..DirEntry$u5d$$GT$17hf8676d24f6d41f56E', symObjAddr: 0x41EC, symBinAddr: 0x319B0, symSize: 0xC4 }
  - { offset: 0x9CD0F, size: 0x8, addend: 0x0, symName: '__ZN4core3ptr54drop_in_place$LT$typg_core..search..TypgFontSource$GT$17h312993c326517890E', symObjAddr: 0x42B0, symBinAddr: 0x31A74, symSize: 0x24 }
  - { offset: 0x9CD3E, size: 0x8, addend: 0x0, symName: '__ZN4core3ptr55drop_in_place$LT$regex_automata..meta..regex..Regex$GT$17h09508e450a01dca7E', symObjAddr: 0x42D4, symBinAddr: 0x31A98, symSize: 0x60 }
  - { offset: 0x9CD6D, size: 0x8, addend: 0x0, symName: '__ZN4core3ptr566drop_in_place$LT$core..option..Option$LT$rayon_core..join..join_context..call_b$LT$alloc..collections..linked_list..LinkedList$LT$alloc..vec..Vec$LT$typg_core..search..TypgFontFaceMatch$GT$$GT$$C$rayon..iter..plumbing..bridge_producer_consumer..helper$LT$rayon..vec..DrainProducer$LT$typg_core..search..TypgFontFaceMatch$GT$$C$rayon..iter..filter..FilterConsumer$LT$rayon..iter..extend..ListVecConsumer$C$typg_core..search..search..$u7b$$u7b$closure$u7d$$u7d$..$u7b$$u7b$closure$u7d$$u7d$$GT$$GT$..$u7b$$u7b$closure$u7d$$u7d$$GT$..$u7b$$u7b$closure$u7d$$u7d$$GT$$GT$17hf69caee522da00b0E', symObjAddr: 0x4334, symBinAddr: 0x31AF8, symSize: 0x44 }
  - { offset: 0x9CD9C, size: 0x8, addend: 0x0, symName: '__ZN4core3ptr56drop_in_place$LT$rayon_core..thread_pool..ThreadPool$GT$17h6ef8d20187a8f0dcE', symObjAddr: 0x4378, symBinAddr: 0x31B3C, symSize: 0x5C }
  - { offset: 0x9CDCB, size: 0x8, addend: 0x0, symName: '__ZN4core3ptr56drop_in_place$LT$typg_core..discovery..PathDiscovery$GT$17h2b0eec134f30bdccE', symObjAddr: 0x43D4, symBinAddr: 0x31B98, symSize: 0x24 }
  - { offset: 0x9CDFA, size: 0x8, addend: 0x0, symName: '__ZN4core3ptr56drop_in_place$LT$typg_core..search..TypgFontFaceMeta$GT$17h66e4d8ea058d6b40E', symObjAddr: 0x43F8, symBinAddr: 0x31BBC, symSize: 0x180 }
  - { offset: 0x9CE29, size: 0x8, addend: 0x0, symName: '__ZN4core3ptr572drop_in_place$LT$rayon_core..join..join_context..call_b$LT$rayon..iter..collect..consumer..CollectResult$LT$typg_core..search..TypgFontFaceMatch$GT$$C$rayon..iter..plumbing..bridge_producer_consumer..helper$LT$rayon..vec..DrainProducer$LT$typg_core..search..TypgFontFaceMatch$GT$$C$rayon..iter..filter..FilterConsumer$LT$rayon..iter..collect..consumer..CollectConsumer$LT$typg_core..search..TypgFontFaceMatch$GT$$C$typg_core..search..search..$u7b$$u7b$closure$u7d$$u7d$..$u7b$$u7b$closure$u7d$$u7d$$GT$$GT$..$u7b$$u7b$closure$u7d$$u7d$$GT$..$u7b$$u7b$closure$u7d$$u7d$$GT$17h3a3fb34be6a48606E', symObjAddr: 0x4578, symBinAddr: 0x31D3C, symSize: 0x24 }
  - { offset: 0x9CE58, size: 0x8, addend: 0x0, symName: '__ZN4core3ptr57drop_in_place$LT$typg_core..search..TypgFontFaceMatch$GT$17h67c20f770a845525E', symObjAddr: 0x459C, symBinAddr: 0x31D60, symSize: 0x60 }
  - { offset: 0x9CE87, size: 0x8, addend: 0x0, symName: '__ZN4core3ptr589drop_in_place$LT$core..iter..adapters..map..map_fold$LT$$RF$read_fonts..TableRecord$C$font_types..tag..Tag$C$$LP$$RP$$C$typg_core..search..collect_tables..$u7b$$u7b$closure$u7d$$u7d$$C$core..iter..traits..iterator..Iterator..for_each..call$LT$font_types..tag..Tag$C$alloc..vec..Vec$LT$font_types..tag..Tag$GT$..extend_trusted$LT$core..iter..adapters..map..Map$LT$core..slice..iter..Iter$LT$read_fonts..TableRecord$GT$$C$typg_core..search..collect_tables..$u7b$$u7b$closure$u7d$$u7d$$GT$$GT$..$u7b$$u7b$closure$u7d$$u7d$$GT$..$u7b$$u7b$closure$u7d$$u7d$$GT$..$u7b$$u7b$closure$u7d$$u7d$$GT$17hb5c4a04beb74eb85E', symObjAddr: 0x45FC, symBinAddr: 0x31DC0, symSize: 0x24 }
  - { offset: 0x9CEB6, size: 0x8, addend: 0x0, symName: '__ZN4core3ptr58drop_in_place$LT$$u5b$regex..regex..string..Regex$u5d$$GT$17hed41fc6a3bbb5aafE', symObjAddr: 0x4620, symBinAddr: 0x31DE4, symSize: 0xB4 }
  - { offset: 0x9CEE5, size: 0x8, addend: 0x0, symName: '__ZN4core3ptr58drop_in_place$LT$alloc..raw_vec..RawVec$LT$$RF$str$GT$$GT$17h621d6de03a84139fE', symObjAddr: 0x46D4, symBinAddr: 0x31E98, symSize: 0x24 }
  - { offset: 0x9CF14, size: 0x8, addend: 0x0, symName: '__ZN4core3ptr596drop_in_place$LT$core..cell..UnsafeCell$LT$core..option..Option$LT$rayon_core..join..join_context..call_b$LT$alloc..collections..linked_list..LinkedList$LT$alloc..vec..Vec$LT$typg_core..search..TypgFontFaceMatch$GT$$GT$$C$rayon..iter..plumbing..bridge_producer_consumer..helper$LT$rayon..vec..DrainProducer$LT$typg_core..search..TypgFontFaceMatch$GT$$C$rayon..iter..filter..FilterConsumer$LT$rayon..iter..extend..ListVecConsumer$C$typg_core..search..search..$u7b$$u7b$closure$u7d$$u7d$..$u7b$$u7b$closure$u7d$$u7d$$GT$$GT$..$u7b$$u7b$closure$u7d$$u7d$$GT$..$u7b$$u7b$closure$u7d$$u7d$$GT$$GT$$GT$17h1c2cdc527cf5bea1E', symObjAddr: 0x46F8, symBinAddr: 0x31EBC, symSize: 0x24 }
  - { offset: 0x9CF43, size: 0x8, addend: 0x0, symName: '__ZN4core3ptr600drop_in_place$LT$core..option..Option$LT$rayon_core..join..join_context..call_b$LT$rayon..iter..collect..consumer..CollectResult$LT$typg_core..search..TypgFontFaceMatch$GT$$C$rayon..iter..plumbing..bridge_producer_consumer..helper$LT$rayon..vec..DrainProducer$LT$typg_core..search..TypgFontFaceMatch$GT$$C$rayon..iter..filter..FilterConsumer$LT$rayon..iter..collect..consumer..CollectConsumer$LT$typg_core..search..TypgFontFaceMatch$GT$$C$typg_core..search..search..$u7b$$u7b$closure$u7d$$u7d$..$u7b$$u7b$closure$u7d$$u7d$$GT$$GT$..$u7b$$u7b$closure$u7d$$u7d$$GT$..$u7b$$u7b$closure$u7d$$u7d$$GT$$GT$17h31280eafee821496E', symObjAddr: 0x471C, symBinAddr: 0x31EE0, symSize: 0x44 }
  - { offset: 0x9CF72, size: 0x8, addend: 0x0, symName: '__ZN4core3ptr606drop_in_place$LT$rayon_core..join..join_context..call_b$LT$alloc..collections..linked_list..LinkedList$LT$alloc..vec..Vec$LT$typg_core..search..TypgFontFaceMatch$GT$$GT$$C$rayon..iter..plumbing..bridge_producer_consumer..helper$LT$rayon..vec..DrainProducer$LT$alloc..vec..Vec$LT$typg_core..search..TypgFontFaceMatch$GT$$GT$$C$rayon..iter..flatten..FlattenConsumer$LT$rayon..iter..filter..FilterConsumer$LT$rayon..iter..extend..ListVecConsumer$C$typg_core..search..search..$u7b$$u7b$closure$u7d$$u7d$..$u7b$$u7b$closure$u7d$$u7d$$GT$$GT$$GT$..$u7b$$u7b$closure$u7d$$u7d$$GT$..$u7b$$u7b$closure$u7d$$u7d$$GT$17had78b02c65dca979E', symObjAddr: 0x4760, symBinAddr: 0x31F24, symSize: 0x24 }
  - { offset: 0x9CFA1, size: 0x8, addend: 0x0, symName: '__ZN4core3ptr60drop_in_place$LT$typg_core..discovery..TypgFontSourceRef$GT$17h4acf5e25b1cbf9a2E', symObjAddr: 0x4784, symBinAddr: 0x31F48, symSize: 0x24 }
  - { offset: 0x9CFD0, size: 0x8, addend: 0x0, symName: '__ZN4core3ptr612drop_in_place$LT$rayon..iter..map..MapFolder$LT$rayon..iter..map..MapFolder$LT$rayon..iter..while_some..WhileSomeFolder$LT$rayon..iter..extend..ListVecFolder$LT$alloc..vec..Vec$LT$typg_core..search..TypgFontFaceMatch$GT$$GT$$GT$$C$rayon..result..$LT$impl$u20$rayon..iter..FromParallelIterator$LT$core..result..Result$LT$T$C$E$GT$$GT$$u20$for$u20$core..result..Result$LT$C$C$E$GT$$GT$..from_par_iter..ok$LT$alloc..vec..Vec$LT$typg_core..search..TypgFontFaceMatch$GT$$C$anyhow..Error$GT$..$u7b$$u7b$closure$u7d$$u7d$$GT$$C$typg_core..search..search..$u7b$$u7b$closure$u7d$$u7d$..$u7b$$u7b$closure$u7d$$u7d$$GT$$GT$17hd8e4a2b9ebafe489E', symObjAddr: 0x47A8, symBinAddr: 0x31F6C, symSize: 0x24 }
  - { offset: 0x9CFFF, size: 0x8, addend: 0x0, symName: '__ZN4core3ptr622drop_in_place$LT$rayon_core..job..StackJob$LT$rayon_core..latch..SpinLatch$C$rayon_core..registry..Registry..in_worker_cross$LT$rayon_core..thread_pool..ThreadPool..install$LT$typg_core..search..search..$u7b$$u7b$closure$u7d$$u7d$$C$core..result..Result$LT$alloc..vec..Vec$LT$typg_core..search..TypgFontFaceMatch$GT$$C$anyhow..Error$GT$$GT$..$u7b$$u7b$closure$u7d$$u7d$$C$core..result..Result$LT$alloc..vec..Vec$LT$typg_core..search..TypgFontFaceMatch$GT$$C$anyhow..Error$GT$$GT$..$u7b$$u7b$closure$u7d$$u7d$$C$core..result..Result$LT$alloc..vec..Vec$LT$typg_core..search..TypgFontFaceMatch$GT$$C$anyhow..Error$GT$$GT$$GT$17h15fd0daddcdbffbbE', symObjAddr: 0x47CC, symBinAddr: 0x31F90, symSize: 0x24 }
  - { offset: 0x9D02E, size: 0x8, addend: 0x0, symName: '__ZN4core3ptr623drop_in_place$LT$rayon..iter..map..MapFolder$LT$rayon..iter..map..MapFolder$LT$rayon..iter..while_some..WhileSomeFolder$LT$rayon..iter..collect..consumer..CollectResult$LT$alloc..vec..Vec$LT$typg_core..search..TypgFontFaceMatch$GT$$GT$$GT$$C$rayon..result..$LT$impl$u20$rayon..iter..FromParallelIterator$LT$core..result..Result$LT$T$C$E$GT$$GT$$u20$for$u20$core..result..Result$LT$C$C$E$GT$$GT$..from_par_iter..ok$LT$alloc..vec..Vec$LT$typg_core..search..TypgFontFaceMatch$GT$$C$anyhow..Error$GT$..$u7b$$u7b$closure$u7d$$u7d$$GT$$C$typg_core..search..search..$u7b$$u7b$closure$u7d$$u7d$..$u7b$$u7b$closure$u7d$$u7d$$GT$$GT$17h09be28c6a5333de2E', symObjAddr: 0x47F0, symBinAddr: 0x31FB4, symSize: 0x24 }
  - { offset: 0x9D05D, size: 0x8, addend: 0x0, symName: '__ZN4core3ptr625drop_in_place$LT$core..iter..adapters..map..map_fold$LT$$RF$read_fonts..tables..layout..ScriptRecord$C$font_types..tag..Tag$C$$LP$$RP$$C$typg_core..search..collect_scripts..$u7b$$u7b$closure$u7d$$u7d$$C$core..iter..traits..iterator..Iterator..for_each..call$LT$font_types..tag..Tag$C$alloc..vec..Vec$LT$font_types..tag..Tag$GT$..extend_trusted$LT$core..iter..adapters..map..Map$LT$core..slice..iter..Iter$LT$read_fonts..tables..layout..ScriptRecord$GT$$C$typg_core..search..collect_scripts..$u7b$$u7b$closure$u7d$$u7d$$GT$$GT$..$u7b$$u7b$closure$u7d$$u7d$$GT$..$u7b$$u7b$closure$u7d$$u7d$$GT$..$u7b$$u7b$closure$u7d$$u7d$$GT$17h3b7551b2051bb3d0E', symObjAddr: 0x4814, symBinAddr: 0x31FD8, symSize: 0x24 }
  - { offset: 0x9D08C, size: 0x8, addend: 0x0, symName: '__ZN4core3ptr625drop_in_place$LT$core..iter..adapters..map..map_fold$LT$$RF$read_fonts..tables..layout..ScriptRecord$C$font_types..tag..Tag$C$$LP$$RP$$C$typg_core..search..collect_scripts..$u7b$$u7b$closure$u7d$$u7d$$C$core..iter..traits..iterator..Iterator..for_each..call$LT$font_types..tag..Tag$C$alloc..vec..Vec$LT$font_types..tag..Tag$GT$..extend_trusted$LT$core..iter..adapters..map..Map$LT$core..slice..iter..Iter$LT$read_fonts..tables..layout..ScriptRecord$GT$$C$typg_core..search..collect_scripts..$u7b$$u7b$closure$u7d$$u7d$$GT$$GT$..$u7b$$u7b$closure$u7d$$u7d$$GT$..$u7b$$u7b$closure$u7d$$u7d$$GT$..$u7b$$u7b$closure$u7d$$u7d$$GT$17hfd4c373ee59ead67E', symObjAddr: 0x4838, symBinAddr: 0x31FFC, symSize: 0x24 }
  - { offset: 0x9D0BB, size: 0x8, addend: 0x0, symName: '__ZN4core3ptr629drop_in_place$LT$core..iter..adapters..map..map_fold$LT$$RF$read_fonts..tables..fvar..VariationAxisRecord$C$font_types..tag..Tag$C$$LP$$RP$$C$typg_core..search..collect_axes..$u7b$$u7b$closure$u7d$$u7d$$C$core..iter..traits..iterator..Iterator..for_each..call$LT$font_types..tag..Tag$C$alloc..vec..Vec$LT$font_types..tag..Tag$GT$..extend_trusted$LT$core..iter..adapters..map..Map$LT$core..slice..iter..Iter$LT$read_fonts..tables..fvar..VariationAxisRecord$GT$$C$typg_core..search..collect_axes..$u7b$$u7b$closure$u7d$$u7d$$GT$$GT$..$u7b$$u7b$closure$u7d$$u7d$$GT$..$u7b$$u7b$closure$u7d$$u7d$$GT$..$u7b$$u7b$closure$u7d$$u7d$$GT$17he316bb01b2c13978E', symObjAddr: 0x485C, symBinAddr: 0x32020, symSize: 0x24 }
  - { offset: 0x9D0EA, size: 0x8, addend: 0x0, symName: '__ZN4core3ptr629drop_in_place$LT$core..iter..adapters..map..map_fold$LT$$RF$read_fonts..tables..layout..FeatureRecord$C$font_types..tag..Tag$C$$LP$$RP$$C$typg_core..search..collect_features..$u7b$$u7b$closure$u7d$$u7d$$C$core..iter..traits..iterator..Iterator..for_each..call$LT$font_types..tag..Tag$C$alloc..vec..Vec$LT$font_types..tag..Tag$GT$..extend_trusted$LT$core..iter..adapters..map..Map$LT$core..slice..iter..Iter$LT$read_fonts..tables..layout..FeatureRecord$GT$$C$typg_core..search..collect_features..$u7b$$u7b$closure$u7d$$u7d$$GT$$GT$..$u7b$$u7b$closure$u7d$$u7d$$GT$..$u7b$$u7b$closure$u7d$$u7d$$GT$..$u7b$$u7b$closure$u7d$$u7d$$GT$17h4332c3d07b882962E', symObjAddr: 0x4880, symBinAddr: 0x32044, symSize: 0x24 }
  - { offset: 0x9D119, size: 0x8, addend: 0x0, symName: '__ZN4core3ptr629drop_in_place$LT$core..iter..adapters..map..map_fold$LT$$RF$read_fonts..tables..layout..FeatureRecord$C$font_types..tag..Tag$C$$LP$$RP$$C$typg_core..search..collect_features..$u7b$$u7b$closure$u7d$$u7d$$C$core..iter..traits..iterator..Iterator..for_each..call$LT$font_types..tag..Tag$C$alloc..vec..Vec$LT$font_types..tag..Tag$GT$..extend_trusted$LT$core..iter..adapters..map..Map$LT$core..slice..iter..Iter$LT$read_fonts..tables..layout..FeatureRecord$GT$$C$typg_core..search..collect_features..$u7b$$u7b$closure$u7d$$u7d$$GT$$GT$..$u7b$$u7b$closure$u7d$$u7d$$GT$..$u7b$$u7b$closure$u7d$$u7d$$GT$..$u7b$$u7b$closure$u7d$$u7d$$GT$17hbe63aa610adda9b4E', symObjAddr: 0x48A4, symBinAddr: 0x32068, symSize: 0x24 }
  - { offset: 0x9D148, size: 0x8, addend: 0x0, symName: '__ZN4core3ptr62drop_in_place$LT$alloc..vec..Vec$LT$std..path..PathBuf$GT$$GT$17h5ffeac539f8a7a94E', symObjAddr: 0x48C8, symBinAddr: 0x3208C, symSize: 0x5C }
  - { offset: 0x9D177, size: 0x8, addend: 0x0, symName: '__ZN4core3ptr62drop_in_place$LT$core..option..Option$LT$anyhow..Error$GT$$GT$17h1dc873b2e252cf9cE', symObjAddr: 0x4924, symBinAddr: 0x320E8, symSize: 0x44 }
  - { offset: 0x9D1A6, size: 0x8, addend: 0x0, symName: '__ZN4core3ptr630drop_in_place$LT$core..cell..UnsafeCell$LT$core..option..Option$LT$rayon_core..join..join_context..call_b$LT$rayon..iter..collect..consumer..CollectResult$LT$typg_core..search..TypgFontFaceMatch$GT$$C$rayon..iter..plumbing..bridge_producer_consumer..helper$LT$rayon..vec..DrainProducer$LT$typg_core..search..TypgFontFaceMatch$GT$$C$rayon..iter..filter..FilterConsumer$LT$rayon..iter..collect..consumer..CollectConsumer$LT$typg_core..search..TypgFontFaceMatch$GT$$C$typg_core..search..search..$u7b$$u7b$closure$u7d$$u7d$..$u7b$$u7b$closure$u7d$$u7d$$GT$$GT$..$u7b$$u7b$closure$u7d$$u7d$$GT$..$u7b$$u7b$closure$u7d$$u7d$$GT$$GT$$GT$17h554e1a78a87a17c7E', symObjAddr: 0x4968, symBinAddr: 0x3212C, symSize: 0x24 }
  - { offset: 0x9D1D5, size: 0x8, addend: 0x0, symName: '__ZN4core3ptr634drop_in_place$LT$core..option..Option$LT$rayon_core..join..join_context..call_b$LT$alloc..collections..linked_list..LinkedList$LT$alloc..vec..Vec$LT$typg_core..search..TypgFontFaceMatch$GT$$GT$$C$rayon..iter..plumbing..bridge_producer_consumer..helper$LT$rayon..vec..DrainProducer$LT$alloc..vec..Vec$LT$typg_core..search..TypgFontFaceMatch$GT$$GT$$C$rayon..iter..flatten..FlattenConsumer$LT$rayon..iter..filter..FilterConsumer$LT$rayon..iter..extend..ListVecConsumer$C$typg_core..search..search..$u7b$$u7b$closure$u7d$$u7d$..$u7b$$u7b$closure$u7d$$u7d$$GT$$GT$$GT$..$u7b$$u7b$closure$u7d$$u7d$$GT$..$u7b$$u7b$closure$u7d$$u7d$$GT$$GT$17hd4c1d6b80c8de3aaE', symObjAddr: 0x498C, symBinAddr: 0x32150, symSize: 0x44 }
  - { offset: 0x9D204, size: 0x8, addend: 0x0, symName: '__ZN4core3ptr640drop_in_place$LT$rayon_core..join..join_context..call_b$LT$rayon..iter..collect..consumer..CollectResult$LT$typg_core..search..TypgFontFaceMatch$GT$$C$rayon..iter..plumbing..bridge_producer_consumer..helper$LT$rayon..vec..DrainProducer$LT$alloc..vec..Vec$LT$typg_core..search..TypgFontFaceMatch$GT$$GT$$C$rayon..iter..flatten..FlattenConsumer$LT$rayon..iter..filter..FilterConsumer$LT$rayon..iter..collect..consumer..CollectConsumer$LT$typg_core..search..TypgFontFaceMatch$GT$$C$typg_core..search..search..$u7b$$u7b$closure$u7d$$u7d$..$u7b$$u7b$closure$u7d$$u7d$$GT$$GT$$GT$..$u7b$$u7b$closure$u7d$$u7d$$GT$..$u7b$$u7b$closure$u7d$$u7d$$GT$17h8c85b3ab647f3766E', symObjAddr: 0x49D0, symBinAddr: 0x32194, symSize: 0x24 }
  - { offset: 0x9D233, size: 0x8, addend: 0x0, symName: '__ZN4core3ptr64drop_in_place$LT$alloc..vec..Vec$LT$font_types..tag..Tag$GT$$GT$17h21c9a08373de1f83E', symObjAddr: 0x49F4, symBinAddr: 0x321B8, symSize: 0x5C }
  - { offset: 0x9D262, size: 0x8, addend: 0x0, symName: '__ZN4core3ptr664drop_in_place$LT$core..cell..UnsafeCell$LT$core..option..Option$LT$rayon_core..join..join_context..call_b$LT$alloc..collections..linked_list..LinkedList$LT$alloc..vec..Vec$LT$typg_core..search..TypgFontFaceMatch$GT$$GT$$C$rayon..iter..plumbing..bridge_producer_consumer..helper$LT$rayon..vec..DrainProducer$LT$alloc..vec..Vec$LT$typg_core..search..TypgFontFaceMatch$GT$$GT$$C$rayon..iter..flatten..FlattenConsumer$LT$rayon..iter..filter..FilterConsumer$LT$rayon..iter..extend..ListVecConsumer$C$typg_core..search..search..$u7b$$u7b$closure$u7d$$u7d$..$u7b$$u7b$closure$u7d$$u7d$$GT$$GT$$GT$..$u7b$$u7b$closure$u7d$$u7d$$GT$..$u7b$$u7b$closure$u7d$$u7d$$GT$$GT$$GT$17hd5489265f4ed3463E', symObjAddr: 0x4A50, symBinAddr: 0x32214, symSize: 0x24 }
  - { offset: 0x9D291, size: 0x8, addend: 0x0, symName: '__ZN4core3ptr667drop_in_place$LT$core..iter..adapters..map..map_fold$LT$std..path..PathBuf$C$std..path..PathBuf$C$$LP$$RP$$C$$LT$std..path..PathBuf$u20$as$u20$core..convert..Into$LT$std..path..PathBuf$GT$$GT$..into$C$core..iter..traits..iterator..Iterator..for_each..call$LT$std..path..PathBuf$C$alloc..vec..Vec$LT$std..path..PathBuf$GT$..extend_trusted$LT$core..iter..adapters..map..Map$LT$core..iter..adapters..cloned..Cloned$LT$core..slice..iter..Iter$LT$std..path..PathBuf$GT$$GT$$C$$LT$std..path..PathBuf$u20$as$u20$core..convert..Into$LT$std..path..PathBuf$GT$$GT$..into$GT$$GT$..$u7b$$u7b$closure$u7d$$u7d$$GT$..$u7b$$u7b$closure$u7d$$u7d$$GT$..$u7b$$u7b$closure$u7d$$u7d$$GT$17hf4a659323095818fE', symObjAddr: 0x4A74, symBinAddr: 0x32238, symSize: 0x24 }
  - { offset: 0x9D2C0, size: 0x8, addend: 0x0, symName: '__ZN4core3ptr668drop_in_place$LT$core..option..Option$LT$rayon_core..join..join_context..call_b$LT$rayon..iter..collect..consumer..CollectResult$LT$typg_core..search..TypgFontFaceMatch$GT$$C$rayon..iter..plumbing..bridge_producer_consumer..helper$LT$rayon..vec..DrainProducer$LT$alloc..vec..Vec$LT$typg_core..search..TypgFontFaceMatch$GT$$GT$$C$rayon..iter..flatten..FlattenConsumer$LT$rayon..iter..filter..FilterConsumer$LT$rayon..iter..collect..consumer..CollectConsumer$LT$typg_core..search..TypgFontFaceMatch$GT$$C$typg_core..search..search..$u7b$$u7b$closure$u7d$$u7d$..$u7b$$u7b$closure$u7d$$u7d$$GT$$GT$$GT$..$u7b$$u7b$closure$u7d$$u7d$$GT$..$u7b$$u7b$closure$u7d$$u7d$$GT$$GT$17h2ecb85c61e0c8b1eE', symObjAddr: 0x4A98, symBinAddr: 0x3225C, symSize: 0x44 }
  - { offset: 0x9D2EF, size: 0x8, addend: 0x0, symName: '__ZN4core3ptr67drop_in_place$LT$$u5b$typg_core..search..TypgFontFaceMatch$u5d$$GT$17h81e323a865525966E', symObjAddr: 0x4ADC, symBinAddr: 0x322A0, symSize: 0xC4 }
  - { offset: 0x9D31E, size: 0x8, addend: 0x0, symName: '__ZN4core3ptr67drop_in_place$LT$alloc..vec..Vec$LT$walkdir..dent..DirEntry$GT$$GT$17h10aa5bbb98bc15b2E', symObjAddr: 0x4BA0, symBinAddr: 0x32364, symSize: 0x5C }
  - { offset: 0x9D34D, size: 0x8, addend: 0x0, symName: '__ZN4core3ptr685drop_in_place$LT$rayon_core..job..StackJob$LT$rayon_core..latch..LatchRef$LT$rayon_core..latch..LockLatch$GT$$C$rayon_core..registry..Registry..in_worker_cold$LT$rayon_core..thread_pool..ThreadPool..install$LT$typg_core..search..search..$u7b$$u7b$closure$u7d$$u7d$$C$core..result..Result$LT$alloc..vec..Vec$LT$typg_core..search..TypgFontFaceMatch$GT$$C$anyhow..Error$GT$$GT$..$u7b$$u7b$closure$u7d$$u7d$$C$core..result..Result$LT$alloc..vec..Vec$LT$typg_core..search..TypgFontFaceMatch$GT$$C$anyhow..Error$GT$$GT$..$u7b$$u7b$closure$u7d$$u7d$..$u7b$$u7b$closure$u7d$$u7d$$C$core..result..Result$LT$alloc..vec..Vec$LT$typg_core..search..TypgFontFaceMatch$GT$$C$anyhow..Error$GT$$GT$$GT$17h75daabddc53e9236E', symObjAddr: 0x4BFC, symBinAddr: 0x323C0, symSize: 0x24 }
  - { offset: 0x9D37C, size: 0x8, addend: 0x0, symName: '__ZN4core3ptr698drop_in_place$LT$core..cell..UnsafeCell$LT$core..option..Option$LT$rayon_core..join..join_context..call_b$LT$rayon..iter..collect..consumer..CollectResult$LT$typg_core..search..TypgFontFaceMatch$GT$$C$rayon..iter..plumbing..bridge_producer_consumer..helper$LT$rayon..vec..DrainProducer$LT$alloc..vec..Vec$LT$typg_core..search..TypgFontFaceMatch$GT$$GT$$C$rayon..iter..flatten..FlattenConsumer$LT$rayon..iter..filter..FilterConsumer$LT$rayon..iter..collect..consumer..CollectConsumer$LT$typg_core..search..TypgFontFaceMatch$GT$$C$typg_core..search..search..$u7b$$u7b$closure$u7d$$u7d$..$u7b$$u7b$closure$u7d$$u7d$$GT$$GT$$GT$..$u7b$$u7b$closure$u7d$$u7d$$GT$..$u7b$$u7b$closure$u7d$$u7d$$GT$$GT$$GT$17h37cb94bb8ce9b86cE', symObjAddr: 0x4C20, symBinAddr: 0x323E4, symSize: 0x24 }
  - { offset: 0x9D3AB, size: 0x8, addend: 0x0, symName: '__ZN4core3ptr69drop_in_place$LT$alloc..raw_vec..RawVec$LT$std..path..PathBuf$GT$$GT$17h0f4866207143bd1cE', symObjAddr: 0x4C44, symBinAddr: 0x32408, symSize: 0x24 }
  - { offset: 0x9D3DA, size: 0x8, addend: 0x0, symName: '__ZN4core3ptr69drop_in_place$LT$std..collections..hash..set..HashSet$LT$char$GT$$GT$17h652d8b3ab865d3c2E', symObjAddr: 0x4C68, symBinAddr: 0x3242C, symSize: 0x24 }
  - { offset: 0x9D409, size: 0x8, addend: 0x0, symName: '__ZN4core3ptr70drop_in_place$LT$$u5b$typg_core..discovery..TypgFontSourceRef$u5d$$GT$17h9ad34248b15fd72cE', symObjAddr: 0x4C8C, symBinAddr: 0x32450, symSize: 0xC4 }
  - { offset: 0x9D438, size: 0x8, addend: 0x0, symName: '__ZN4core3ptr70drop_in_place$LT$core..array..iter..IntoIter$LT$char$C$2_usize$GT$$GT$17h8c5a65dccb08ff78E', symObjAddr: 0x4D50, symBinAddr: 0x32514, symSize: 0x24 }
  - { offset: 0x9D467, size: 0x8, addend: 0x0, symName: '__ZN4core3ptr715drop_in_place$LT$rayon_core..job..StackJob$LT$rayon_core..latch..SpinLatch$C$rayon_core..join..join_context..call_b$LT$alloc..collections..linked_list..LinkedList$LT$alloc..vec..Vec$LT$typg_core..search..TypgFontFaceMatch$GT$$GT$$C$rayon..iter..plumbing..bridge_producer_consumer..helper$LT$rayon..vec..DrainProducer$LT$typg_core..search..TypgFontFaceMatch$GT$$C$rayon..iter..filter..FilterConsumer$LT$rayon..iter..extend..ListVecConsumer$C$typg_core..search..search..$u7b$$u7b$closure$u7d$$u7d$..$u7b$$u7b$closure$u7d$$u7d$$GT$$GT$..$u7b$$u7b$closure$u7d$$u7d$$GT$..$u7b$$u7b$closure$u7d$$u7d$$C$alloc..collections..linked_list..LinkedList$LT$alloc..vec..Vec$LT$typg_core..search..TypgFontFaceMatch$GT$$GT$$GT$$GT$17hdc3e2423f6d637e9E', symObjAddr: 0x4D74, symBinAddr: 0x32538, symSize: 0x5C }
  - { offset: 0x9D496, size: 0x8, addend: 0x0, symName: '__ZN4core3ptr71drop_in_place$LT$alloc..raw_vec..RawVec$LT$font_types..tag..Tag$GT$$GT$17h89b1109d53671c7cE', symObjAddr: 0x4DD0, symBinAddr: 0x32594, symSize: 0x24 }
  - { offset: 0x9D4C5, size: 0x8, addend: 0x0, symName: '__ZN4core3ptr71drop_in_place$LT$alloc..vec..Vec$LT$regex..regex..string..Regex$GT$$GT$17h08e47284ecb7c2faE', symObjAddr: 0x4DF4, symBinAddr: 0x325B8, symSize: 0x5C }
  - { offset: 0x9D4F4, size: 0x8, addend: 0x0, symName: '__ZN4core3ptr728drop_in_place$LT$rayon_core..job..StackJob$LT$rayon_core..latch..SpinLatch$C$rayon_core..join..join_context..call_b$LT$rayon..iter..collect..consumer..CollectResult$LT$typg_core..search..TypgFontFaceMatch$GT$$C$rayon..iter..plumbing..bridge_producer_consumer..helper$LT$rayon..vec..DrainProducer$LT$typg_core..search..TypgFontFaceMatch$GT$$C$rayon..iter..filter..FilterConsumer$LT$rayon..iter..collect..consumer..CollectConsumer$LT$typg_core..search..TypgFontFaceMatch$GT$$C$typg_core..search..search..$u7b$$u7b$closure$u7d$$u7d$..$u7b$$u7b$closure$u7d$$u7d$$GT$$GT$..$u7b$$u7b$closure$u7d$$u7d$$GT$..$u7b$$u7b$closure$u7d$$u7d$$C$rayon..iter..collect..consumer..CollectResult$LT$typg_core..search..TypgFontFaceMatch$GT$$GT$$GT$17ha5b753c4cebd92f3E', symObjAddr: 0x4E50, symBinAddr: 0x32614, symSize: 0x60 }
  - { offset: 0x9D523, size: 0x8, addend: 0x0, symName: '__ZN4core3ptr73drop_in_place$LT$hashbrown..raw..RawTable$LT$$LP$$RF$str$C$u8$RP$$GT$$GT$17ha24ef336361cfb5aE', symObjAddr: 0x4EB0, symBinAddr: 0x32674, symSize: 0x24 }
  - { offset: 0x9D552, size: 0x8, addend: 0x0, symName: '__ZN4core3ptr74drop_in_place$LT$alloc..raw_vec..RawVec$LT$walkdir..dent..DirEntry$GT$$GT$17h15146c743d76c17bE', symObjAddr: 0x4ED4, symBinAddr: 0x32698, symSize: 0x24 }
  - { offset: 0x9D581, size: 0x8, addend: 0x0, symName: '__ZN4core3ptr74drop_in_place$LT$anyhow..error..ErrorImpl$LT$walkdir..error..Error$GT$$GT$17ha4c2b1fe1737058cE', symObjAddr: 0x4EF8, symBinAddr: 0x326BC, symSize: 0x64 }
  - { offset: 0x9D5B0, size: 0x8, addend: 0x0, symName: '__ZN4core3ptr76drop_in_place$LT$hashbrown..raw..RawTable$LT$$LP$char$C$$LP$$RP$$RP$$GT$$GT$17hc8f82bbde354bc15E', symObjAddr: 0x4F5C, symBinAddr: 0x32720, symSize: 0x24 }
  - { offset: 0x9D5DF, size: 0x8, addend: 0x0, symName: '__ZN4core3ptr77drop_in_place$LT$std..collections..hash..map..HashMap$LT$$RF$str$C$u8$GT$$GT$17hccd234982f8f71cbE', symObjAddr: 0x4F80, symBinAddr: 0x32744, symSize: 0x24 }
  - { offset: 0x9D60E, size: 0x8, addend: 0x0, symName: '__ZN4core3ptr783drop_in_place$LT$rayon_core..job..StackJob$LT$rayon_core..latch..SpinLatch$C$rayon_core..join..join_context..call_b$LT$alloc..collections..linked_list..LinkedList$LT$alloc..vec..Vec$LT$typg_core..search..TypgFontFaceMatch$GT$$GT$$C$rayon..iter..plumbing..bridge_producer_consumer..helper$LT$rayon..vec..DrainProducer$LT$alloc..vec..Vec$LT$typg_core..search..TypgFontFaceMatch$GT$$GT$$C$rayon..iter..flatten..FlattenConsumer$LT$rayon..iter..filter..FilterConsumer$LT$rayon..iter..extend..ListVecConsumer$C$typg_core..search..search..$u7b$$u7b$closure$u7d$$u7d$..$u7b$$u7b$closure$u7d$$u7d$$GT$$GT$$GT$..$u7b$$u7b$closure$u7d$$u7d$$GT$..$u7b$$u7b$closure$u7d$$u7d$$C$alloc..collections..linked_list..LinkedList$LT$alloc..vec..Vec$LT$typg_core..search..TypgFontFaceMatch$GT$$GT$$GT$$GT$17h0f6e9b8c423e824cE', symObjAddr: 0x4FA4, symBinAddr: 0x32768, symSize: 0x5C }
  - { offset: 0x9D63D, size: 0x8, addend: 0x0, symName: '__ZN4core3ptr78drop_in_place$LT$alloc..raw_vec..RawVec$LT$regex..regex..string..Regex$GT$$GT$17hf7e0bd09a08bdf6fE', symObjAddr: 0x5000, symBinAddr: 0x327C4, symSize: 0x24 }
  - { offset: 0x9D66C, size: 0x8, addend: 0x0, symName: '__ZN4core3ptr796drop_in_place$LT$rayon_core..job..StackJob$LT$rayon_core..latch..SpinLatch$C$rayon_core..join..join_context..call_b$LT$rayon..iter..collect..consumer..CollectResult$LT$typg_core..search..TypgFontFaceMatch$GT$$C$rayon..iter..plumbing..bridge_producer_consumer..helper$LT$rayon..vec..DrainProducer$LT$alloc..vec..Vec$LT$typg_core..search..TypgFontFaceMatch$GT$$GT$$C$rayon..iter..flatten..FlattenConsumer$LT$rayon..iter..filter..FilterConsumer$LT$rayon..iter..collect..consumer..CollectConsumer$LT$typg_core..search..TypgFontFaceMatch$GT$$C$typg_core..search..search..$u7b$$u7b$closure$u7d$$u7d$..$u7b$$u7b$closure$u7d$$u7d$$GT$$GT$$GT$..$u7b$$u7b$closure$u7d$$u7d$$GT$..$u7b$$u7b$closure$u7d$$u7d$$C$rayon..iter..collect..consumer..CollectResult$LT$typg_core..search..TypgFontFaceMatch$GT$$GT$$GT$17h626505846e16980aE', symObjAddr: 0x5024, symBinAddr: 0x327E8, symSize: 0x60 }
  - { offset: 0x9D69B, size: 0x8, addend: 0x0, symName: '__ZN4core3ptr80drop_in_place$LT$alloc..vec..Vec$LT$typg_core..search..TypgFontFaceMatch$GT$$GT$17h976cb3989b4f0f7bE', symObjAddr: 0x5084, symBinAddr: 0x32848, symSize: 0x5C }
  - { offset: 0x9D6CA, size: 0x8, addend: 0x0, symName: '__ZN4core3ptr80drop_in_place$LT$anyhow..error..ErrorImpl$LT$read_fonts..read..ReadError$GT$$GT$17h0ca5af0bd8ec8af9E', symObjAddr: 0x50E0, symBinAddr: 0x328A4, symSize: 0x24 }
  - { offset: 0x9D6F9, size: 0x8, addend: 0x0, symName: '__ZN4core3ptr81drop_in_place$LT$core..slice..sort..shared..smallsort..CopyOnDrop$LT$char$GT$$GT$17h1996da5ff9de702eE', symObjAddr: 0x5104, symBinAddr: 0x328C8, symSize: 0x24 }
  - { offset: 0x9D728, size: 0x8, addend: 0x0, symName: '__ZN4core3ptr82drop_in_place$LT$rayon..vec..Drain$LT$typg_core..search..TypgFontFaceMatch$GT$$GT$17hec4bc25fd4542be8E', symObjAddr: 0x5128, symBinAddr: 0x328EC, symSize: 0x24 }
  - { offset: 0x9D757, size: 0x8, addend: 0x0, symName: '__ZN4core3ptr83drop_in_place$LT$alloc..vec..Vec$LT$typg_core..discovery..TypgFontSourceRef$GT$$GT$17h8ad8d963eb238172E', symObjAddr: 0x514C, symBinAddr: 0x32910, symSize: 0x5C }
  - { offset: 0x9D786, size: 0x8, addend: 0x0, symName: '__ZN4core3ptr84drop_in_place$LT$anyhow..error..ErrorImpl$LT$core..num..error..ParseIntError$GT$$GT$17h4b0a7fcde513ca82E', symObjAddr: 0x51A8, symBinAddr: 0x3296C, symSize: 0x24 }
  - { offset: 0x9D7B5, size: 0x8, addend: 0x0, symName: '__ZN4core3ptr84drop_in_place$LT$core..slice..sort..unstable..quicksort..GapGuardRaw$LT$char$GT$$GT$17h56ec9c4aa2cd8cacE', symObjAddr: 0x51CC, symBinAddr: 0x32990, symSize: 0x24 }
  - { offset: 0x9D7E4, size: 0x8, addend: 0x0, symName: '__ZN4core3ptr85drop_in_place$LT$anyhow..error..ErrorImpl$LT$rayon_core..ThreadPoolBuildError$GT$$GT$17h9ed2d08e20798669E', symObjAddr: 0x51F0, symBinAddr: 0x329B4, symSize: 0x64 }
  - { offset: 0x9D813, size: 0x8, addend: 0x0, symName: '__ZN4core3ptr85drop_in_place$LT$rayon..vec..IntoIter$LT$typg_core..search..TypgFontFaceMatch$GT$$GT$17hf81a0a03491b8ee6E', symObjAddr: 0x5254, symBinAddr: 0x32A18, symSize: 0x24 }
  - { offset: 0x9D842, size: 0x8, addend: 0x0, symName: '__ZN4core3ptr85drop_in_place$LT$std..collections..hash..set..HashSet$LT$font_types..tag..Tag$GT$$GT$17hbd862185ec696a9aE', symObjAddr: 0x5278, symBinAddr: 0x32A3C, symSize: 0x24 }
  - { offset: 0x9D871, size: 0x8, addend: 0x0, symName: '__ZN4core3ptr862drop_in_place$LT$core..iter..adapters..map..map_fold$LT$$RF$std..path..PathBuf$C$std..path..PathBuf$C$$LP$$RP$$C$$LT$std..path..PathBuf$u20$as$u20$core..clone..Clone$GT$..clone$C$core..iter..adapters..map..map_fold$LT$std..path..PathBuf$C$std..path..PathBuf$C$$LP$$RP$$C$$LT$std..path..PathBuf$u20$as$u20$core..convert..Into$LT$std..path..PathBuf$GT$$GT$..into$C$core..iter..traits..iterator..Iterator..for_each..call$LT$std..path..PathBuf$C$alloc..vec..Vec$LT$std..path..PathBuf$GT$..extend_trusted$LT$core..iter..adapters..map..Map$LT$core..iter..adapters..cloned..Cloned$LT$core..slice..iter..Iter$LT$std..path..PathBuf$GT$$GT$$C$$LT$std..path..PathBuf$u20$as$u20$core..convert..Into$LT$std..path..PathBuf$GT$$GT$..into$GT$$GT$..$u7b$$u7b$closure$u7d$$u7d$$GT$..$u7b$$u7b$closure$u7d$$u7d$$GT$..$u7b$$u7b$closure$u7d$$u7d$$GT$..$u7b$$u7b$closure$u7d$$u7d$$GT$17hb96af1ed5935a2e7E', symObjAddr: 0x529C, symBinAddr: 0x32A60, symSize: 0x24 }
  - { offset: 0x9D8A0, size: 0x8, addend: 0x0, symName: '__ZN4core3ptr87drop_in_place$LT$alloc..raw_vec..RawVec$LT$typg_core..search..TypgFontFaceMatch$GT$$GT$17h5007afd9dc2a67ccE', symObjAddr: 0x52C0, symBinAddr: 0x32A84, symSize: 0x24 }
  - { offset: 0x9D8CF, size: 0x8, addend: 0x0, symName: '__ZN4core3ptr87drop_in_place$LT$rayon..vec..SliceDrain$LT$typg_core..search..TypgFontFaceMatch$GT$$GT$17hb9261af9ec5e557cE', symObjAddr: 0x52E4, symBinAddr: 0x32AA8, symSize: 0x24 }
  - { offset: 0x9D8FE, size: 0x8, addend: 0x0, symName: '__ZN4core3ptr89drop_in_place$LT$alloc..vec..drain..Drain$LT$typg_core..search..TypgFontFaceMatch$GT$$GT$17ha3022a4f09db1781E', symObjAddr: 0x5308, symBinAddr: 0x32ACC, symSize: 0x24 }
  - { offset: 0x9D92D, size: 0x8, addend: 0x0, symName: '__ZN4core3ptr89drop_in_place$LT$hashbrown..set..HashSet$LT$char$C$std..hash..random..RandomState$GT$$GT$17hce20d9c30ec2ee47E', symObjAddr: 0x532C, symBinAddr: 0x32AF0, symSize: 0x24 }
  - { offset: 0x9D95C, size: 0x8, addend: 0x0, symName: '__ZN4core3ptr90drop_in_place$LT$$u5b$alloc..vec..Vec$LT$typg_core..search..TypgFontFaceMatch$GT$$u5d$$GT$17h5211970c32f508bcE', symObjAddr: 0x5350, symBinAddr: 0x32B14, symSize: 0xC4 }
  - { offset: 0x9D98B, size: 0x8, addend: 0x0, symName: '__ZN4core3ptr90drop_in_place$LT$alloc..raw_vec..RawVec$LT$typg_core..discovery..TypgFontSourceRef$GT$$GT$17h42b6a68e51858ebaE', symObjAddr: 0x5414, symBinAddr: 0x32BD8, symSize: 0x24 }
  - { offset: 0x9D9BA, size: 0x8, addend: 0x0, symName: '__ZN4core3ptr90drop_in_place$LT$core..result..Result$LT$core..convert..Infallible$C$anyhow..Error$GT$$GT$17hed839cedf4b428baE', symObjAddr: 0x545C, symBinAddr: 0x32BFC, symSize: 0x30 }
  - { offset: 0x9D9E9, size: 0x8, addend: 0x0, symName: '__ZN4core3ptr90drop_in_place$LT$core..result..Result$LT$std..fs..Metadata$C$std..io..error..Error$GT$$GT$17hfbe02f69401ff437E', symObjAddr: 0x548C, symBinAddr: 0x32C2C, symSize: 0x40 }
  - { offset: 0x9DA18, size: 0x8, addend: 0x0, symName: '__ZN4core3ptr90drop_in_place$LT$rayon..vec..DrainProducer$LT$typg_core..search..TypgFontFaceMatch$GT$$GT$17h50a46afbf197216dE', symObjAddr: 0x54CC, symBinAddr: 0x32C6C, symSize: 0x24 }
  - { offset: 0x9DA47, size: 0x8, addend: 0x0, symName: '__ZN4core3ptr92drop_in_place$LT$core..cell..UnsafeCell$LT$core..option..Option$LT$anyhow..Error$GT$$GT$$GT$17hc330fa2373498d5fE', symObjAddr: 0x54F0, symBinAddr: 0x32C90, symSize: 0x24 }
  - { offset: 0x9DA76, size: 0x8, addend: 0x0, symName: '__ZN4core3ptr92drop_in_place$LT$hashbrown..raw..RawTable$LT$$LP$font_types..tag..Tag$C$$LP$$RP$$RP$$GT$$GT$17hc0e914325c99d6f7E', symObjAddr: 0x5538, symBinAddr: 0x32CB4, symSize: 0x24 }
  - { offset: 0x9DAA5, size: 0x8, addend: 0x0, symName: '__ZN4core3ptr975drop_in_place$LT$rayon_core..join..join_context$LT$rayon..iter..plumbing..bridge_producer_consumer..helper$LT$rayon..vec..DrainProducer$LT$typg_core..search..TypgFontFaceMatch$GT$$C$rayon..iter..filter..FilterConsumer$LT$rayon..iter..extend..ListVecConsumer$C$typg_core..search..search..$u7b$$u7b$closure$u7d$$u7d$..$u7b$$u7b$closure$u7d$$u7d$$GT$$GT$..$u7b$$u7b$closure$u7d$$u7d$$C$rayon..iter..plumbing..bridge_producer_consumer..helper$LT$rayon..vec..DrainProducer$LT$typg_core..search..TypgFontFaceMatch$GT$$C$rayon..iter..filter..FilterConsumer$LT$rayon..iter..extend..ListVecConsumer$C$typg_core..search..search..$u7b$$u7b$closure$u7d$$u7d$..$u7b$$u7b$closure$u7d$$u7d$$GT$$GT$..$u7b$$u7b$closure$u7d$$u7d$$C$alloc..collections..linked_list..LinkedList$LT$alloc..vec..Vec$LT$typg_core..search..TypgFontFaceMatch$GT$$GT$$C$alloc..collections..linked_list..LinkedList$LT$alloc..vec..Vec$LT$typg_core..search..TypgFontFaceMatch$GT$$GT$$GT$..$u7b$$u7b$closure$u7d$$u7d$$GT$17h518efb7de72431d8E', symObjAddr: 0x555C, symBinAddr: 0x32CD8, symSize: 0x60 }
  - { offset: 0x9DAD4, size: 0x8, addend: 0x0, symName: '__ZN4core3ptr97drop_in_place$LT$core..slice..sort..shared..smallsort..CopyOnDrop$LT$font_types..tag..Tag$GT$$GT$17h2279024ac1d8c5a6E', symObjAddr: 0x55BC, symBinAddr: 0x32D38, symSize: 0x24 }
  - { offset: 0x9DB03, size: 0x8, addend: 0x0, symName: '__ZN4core3ptr97drop_in_place$LT$hashbrown..map..HashMap$LT$$RF$str$C$u8$C$std..hash..random..RandomState$GT$$GT$17h95047471ff707a76E', symObjAddr: 0x55E0, symBinAddr: 0x32D5C, symSize: 0x24 }
  - { offset: 0x9DB32, size: 0x8, addend: 0x0, symName: '__ZN4core3ptr98drop_in_place$LT$core..slice..sort..shared..smallsort..CopyOnDrop$LT$alloc..string..String$GT$$GT$17ha9c35b98480836f9E', symObjAddr: 0x5604, symBinAddr: 0x32D80, symSize: 0x24 }
  - { offset: 0x9DB61, size: 0x8, addend: 0x0, symName: '__ZN4core3ptr99drop_in_place$LT$alloc..boxed..Box$LT$anyhow..error..ErrorImpl$LT$walkdir..error..Error$GT$$GT$$GT$17h78f40a1a01f06529E', symObjAddr: 0x5628, symBinAddr: 0x32DA4, symSize: 0x60 }
  - { offset: 0x9DB90, size: 0x8, addend: 0x0, symName: '__ZN4core3ptr99drop_in_place$LT$rayon..iter..extend..ListVecFolder$LT$typg_core..search..TypgFontFaceMatch$GT$$GT$17h8f9c4ef89a3db934E', symObjAddr: 0x5688, symBinAddr: 0x32E04, symSize: 0x24 }
  - { offset: 0x9E102, size: 0x8, addend: 0x0, symName: __ZN4core6marker5FnPtr4addr17h0a47d470b9188c20E, symObjAddr: 0x56D8, symBinAddr: 0x32E54, symSize: 0x14 }
  - { offset: 0x9E606, size: 0x8, addend: 0x0, symName: '__ZN102_$LT$core..slice..sort..unstable..quicksort..GapGuardRaw$LT$T$GT$$u20$as$u20$core..ops..drop..Drop$GT$4drop17h2b090cfa0bba7f2bE', symObjAddr: 0x0, symBinAddr: 0x2D9DC, symSize: 0x8C }
  - { offset: 0x9E65F, size: 0x8, addend: 0x0, symName: '__ZN102_$LT$core..slice..sort..unstable..quicksort..GapGuardRaw$LT$T$GT$$u20$as$u20$core..ops..drop..Drop$GT$4drop17h48f14cdda6036a72E', symObjAddr: 0x8C, symBinAddr: 0x2DA68, symSize: 0x80 }
  - { offset: 0x9E6B8, size: 0x8, addend: 0x0, symName: '__ZN102_$LT$core..slice..sort..unstable..quicksort..GapGuardRaw$LT$T$GT$$u20$as$u20$core..ops..drop..Drop$GT$4drop17h93e5f4ee72a38836E', symObjAddr: 0x10C, symBinAddr: 0x2DAE8, symSize: 0x80 }
  - { offset: 0x9E7A1, size: 0x8, addend: 0x0, symName: '__ZN95_$LT$core..slice..sort..stable..merge..MergeState$LT$T$GT$$u20$as$u20$core..ops..drop..Drop$GT$4drop17h7168dfd6a09ce79aE', symObjAddr: 0x6EB4, symBinAddr: 0x34630, symSize: 0xF4 }
  - { offset: 0x9E8DF, size: 0x8, addend: 0x0, symName: '__ZN99_$LT$core..slice..sort..shared..smallsort..CopyOnDrop$LT$T$GT$$u20$as$u20$core..ops..drop..Drop$GT$4drop17h1f4a2455f3abbd93E', symObjAddr: 0x7458, symBinAddr: 0x34B2C, symSize: 0x84 }
  - { offset: 0x9E940, size: 0x8, addend: 0x0, symName: '__ZN99_$LT$core..slice..sort..shared..smallsort..CopyOnDrop$LT$T$GT$$u20$as$u20$core..ops..drop..Drop$GT$4drop17h5114809f8721dcecE', symObjAddr: 0x74DC, symBinAddr: 0x34BB0, symSize: 0x8C }
  - { offset: 0x9E9A1, size: 0x8, addend: 0x0, symName: '__ZN99_$LT$core..slice..sort..shared..smallsort..CopyOnDrop$LT$T$GT$$u20$as$u20$core..ops..drop..Drop$GT$4drop17ha9809c08e2abd4d9E', symObjAddr: 0x7568, symBinAddr: 0x34C3C, symSize: 0x88 }
  - { offset: 0x9EA02, size: 0x8, addend: 0x0, symName: '__ZN99_$LT$core..slice..sort..shared..smallsort..CopyOnDrop$LT$T$GT$$u20$as$u20$core..ops..drop..Drop$GT$4drop17he1871b68519d1ee3E', symObjAddr: 0x75F0, symBinAddr: 0x34CC4, symSize: 0x8C }
  - { offset: 0xA0A93, size: 0x8, addend: 0x0, symName: __ZN4core3ops8function5FnMut8call_mut17h03f140bfb319af83E, symObjAddr: 0xE98, symBinAddr: 0x2E6EC, symSize: 0x68 }
  - { offset: 0xA0AF4, size: 0x8, addend: 0x0, symName: __ZN4core3ops8function5FnMut8call_mut17h2a411f7aa8b5e53bE, symObjAddr: 0xF00, symBinAddr: 0x2E754, symSize: 0x30 }
  - { offset: 0xA0B38, size: 0x8, addend: 0x0, symName: __ZN4core3ops8function5FnMut8call_mut17h41ea1dd3bb60d99bE, symObjAddr: 0xF30, symBinAddr: 0x2E784, symSize: 0x40 }
  - { offset: 0xA0B7C, size: 0x8, addend: 0x0, symName: __ZN4core3ops8function5FnMut8call_mut17h8bf7039685952044E, symObjAddr: 0xF70, symBinAddr: 0x2E7C4, symSize: 0x28 }
  - { offset: 0xA0BC0, size: 0x8, addend: 0x0, symName: __ZN4core3ops8function5FnMut8call_mut17h9c9d6490a82c8d8dE, symObjAddr: 0xF98, symBinAddr: 0x2E7EC, symSize: 0x68 }
  - { offset: 0xA0C04, size: 0x8, addend: 0x0, symName: __ZN4core3ops8function5FnMut8call_mut17hbfe9f80eb078e74aE, symObjAddr: 0x1000, symBinAddr: 0x2E854, symSize: 0x30 }
  - { offset: 0xA0C48, size: 0x8, addend: 0x0, symName: __ZN4core3ops8function5FnMut8call_mut17hc62585943d2461faE, symObjAddr: 0x1030, symBinAddr: 0x2E884, symSize: 0x28 }
  - { offset: 0xA0C8C, size: 0x8, addend: 0x0, symName: __ZN4core3ops8function5FnMut8call_mut17hda51a33b69b6b703E, symObjAddr: 0x1058, symBinAddr: 0x2E8AC, symSize: 0x40 }
  - { offset: 0xA0CF5, size: 0x8, addend: 0x0, symName: __ZN4core3ops8function5FnMut8call_mut17hf18941d00d0ad54eE, symObjAddr: 0x1098, symBinAddr: 0x2E8EC, symSize: 0x28 }
  - { offset: 0xA0D3F, size: 0x8, addend: 0x0, symName: '__ZN4core3ops8function6FnOnce40call_once$u7b$$u7b$vtable.shim$u7d$$u7d$17h25621461536f7609E', symObjAddr: 0x10C0, symBinAddr: 0x2E914, symSize: 0x38 }
  - { offset: 0xA0D83, size: 0x8, addend: 0x0, symName: '__ZN4core3ops8function6FnOnce40call_once$u7b$$u7b$vtable.shim$u7d$$u7d$17h9f3894d82bfea1dfE', symObjAddr: 0x10F8, symBinAddr: 0x2E94C, symSize: 0x38 }
  - { offset: 0xA0DC7, size: 0x8, addend: 0x0, symName: '__ZN4core3ops8function6FnOnce40call_once$u7b$$u7b$vtable.shim$u7d$$u7d$17ha543fa68a96a2dd2E', symObjAddr: 0x1130, symBinAddr: 0x2E984, symSize: 0x38 }
  - { offset: 0xA0E0B, size: 0x8, addend: 0x0, symName: '__ZN4core3ops8function6FnOnce40call_once$u7b$$u7b$vtable.shim$u7d$$u7d$17ha970f8ab81e37c2eE', symObjAddr: 0x1168, symBinAddr: 0x2E9BC, symSize: 0x38 }
  - { offset: 0xA0E4F, size: 0x8, addend: 0x0, symName: '__ZN4core3ops8function6FnOnce40call_once$u7b$$u7b$vtable.shim$u7d$$u7d$17habfd2fd825d86f26E', symObjAddr: 0x11A0, symBinAddr: 0x2E9F4, symSize: 0x38 }
  - { offset: 0xA0E93, size: 0x8, addend: 0x0, symName: '__ZN4core3ops8function6FnOnce40call_once$u7b$$u7b$vtable.shim$u7d$$u7d$17he5871e1484b511eaE', symObjAddr: 0x11D8, symBinAddr: 0x2EA2C, symSize: 0x38 }
  - { offset: 0xA0ED7, size: 0x8, addend: 0x0, symName: '__ZN4core3ops8function6FnOnce40call_once$u7b$$u7b$vtable.shim$u7d$$u7d$17hebaf8bd29813c7b0E', symObjAddr: 0x1210, symBinAddr: 0x2EA64, symSize: 0x38 }
  - { offset: 0xA0F1B, size: 0x8, addend: 0x0, symName: '__ZN4core3ops8function6FnOnce40call_once$u7b$$u7b$vtable.shim$u7d$$u7d$17hf16b0f9e34bc355dE', symObjAddr: 0x1248, symBinAddr: 0x2EA9C, symSize: 0x38 }
  - { offset: 0xA0F5F, size: 0x8, addend: 0x0, symName: '__ZN4core3ops8function6FnOnce40call_once$u7b$$u7b$vtable.shim$u7d$$u7d$17hfd86e14f6d40e00cE', symObjAddr: 0x1280, symBinAddr: 0x2EAD4, symSize: 0x38 }
  - { offset: 0xA0FA3, size: 0x8, addend: 0x0, symName: __ZN4core3ops8function6FnOnce9call_once17h0637c39a8d042fc9E, symObjAddr: 0x12B8, symBinAddr: 0x2EB0C, symSize: 0x4C }
  - { offset: 0xA0FE7, size: 0x8, addend: 0x0, symName: __ZN4core3ops8function6FnOnce9call_once17h0801b83717705aefE, symObjAddr: 0x1304, symBinAddr: 0x2EB58, symSize: 0x4C }
  - { offset: 0xA102B, size: 0x8, addend: 0x0, symName: __ZN4core3ops8function6FnOnce9call_once17h0d46b9acbdde08c9E, symObjAddr: 0x1350, symBinAddr: 0x2EBA4, symSize: 0x5C }
  - { offset: 0xA106F, size: 0x8, addend: 0x0, symName: __ZN4core3ops8function6FnOnce9call_once17h1bb9e5d8fdc97c55E, symObjAddr: 0x13AC, symBinAddr: 0x2EC00, symSize: 0x5C }
  - { offset: 0xA10B3, size: 0x8, addend: 0x0, symName: __ZN4core3ops8function6FnOnce9call_once17h3886ebd44da27478E, symObjAddr: 0x1408, symBinAddr: 0x2EC5C, symSize: 0x58 }
  - { offset: 0xA10F7, size: 0x8, addend: 0x0, symName: __ZN4core3ops8function6FnOnce9call_once17h526f16653e03ea82E, symObjAddr: 0x1460, symBinAddr: 0x2ECB4, symSize: 0x58 }
  - { offset: 0xA113B, size: 0x8, addend: 0x0, symName: __ZN4core3ops8function6FnOnce9call_once17h5d1741c8e0c2137dE, symObjAddr: 0x14B8, symBinAddr: 0x2ED0C, symSize: 0x58 }
  - { offset: 0xA117F, size: 0x8, addend: 0x0, symName: __ZN4core3ops8function6FnOnce9call_once17h7b9800310d12db15E, symObjAddr: 0x1510, symBinAddr: 0x2ED64, symSize: 0x58 }
  - { offset: 0xA11C3, size: 0x8, addend: 0x0, symName: __ZN4core3ops8function6FnOnce9call_once17h7f75884389c0e10bE, symObjAddr: 0x1568, symBinAddr: 0x2EDBC, symSize: 0x5C }
  - { offset: 0xA1207, size: 0x8, addend: 0x0, symName: __ZN4core3ops8function6FnOnce9call_once17h820e1d71557141adE, symObjAddr: 0x15C4, symBinAddr: 0x2EE18, symSize: 0x2C }
  - { offset: 0xA124B, size: 0x8, addend: 0x0, symName: __ZN4core3ops8function6FnOnce9call_once17h996aa45a4876d7a7E, symObjAddr: 0x15F0, symBinAddr: 0x2EE44, symSize: 0x4C }
  - { offset: 0xA128F, size: 0x8, addend: 0x0, symName: __ZN4core3ops8function6FnOnce9call_once17hbee3bc8567dc1cd6E, symObjAddr: 0x163C, symBinAddr: 0x2EE90, symSize: 0x58 }
  - { offset: 0xA12D3, size: 0x8, addend: 0x0, symName: __ZN4core3ops8function6FnOnce9call_once17hc346acee1960598bE, symObjAddr: 0x1694, symBinAddr: 0x2EEE8, symSize: 0x58 }
  - { offset: 0xA1317, size: 0x8, addend: 0x0, symName: __ZN4core3ops8function6FnOnce9call_once17hcd09871cd25cd4aaE, symObjAddr: 0x16EC, symBinAddr: 0x2EF40, symSize: 0x4C }
  - { offset: 0xA135B, size: 0x8, addend: 0x0, symName: __ZN4core3ops8function6FnOnce9call_once17hf0f793d08c1dd92fE, symObjAddr: 0x1738, symBinAddr: 0x2EF8C, symSize: 0x1C }
  - { offset: 0xA139F, size: 0x8, addend: 0x0, symName: __ZN4core3ops8function6FnOnce9call_once17hfcc6d95e59710c79E, symObjAddr: 0x1754, symBinAddr: 0x2EFA8, symSize: 0x48 }
  - { offset: 0xA153F, size: 0x8, addend: 0x0, symName: __ZN4core5clone5Clone5clone17h5439c3d7e341d3b2E, symObjAddr: 0x56AC, symBinAddr: 0x32E28, symSize: 0x2C }
  - { offset: 0xA269E, size: 0x8, addend: 0x0, symName: '__ZN82_$LT$core..array..iter..IntoIter$LT$T$C$_$GT$$u20$as$u20$core..ops..drop..Drop$GT$4drop17h8251f69cdb582c58E', symObjAddr: 0x6DF0, symBinAddr: 0x3456C, symSize: 0x14 }
  - { offset: 0xA309E, size: 0x8, addend: 0x0, symName: '__ZN99_$LT$regex_automata..util..pool..inner..PoolGuard$LT$T$C$F$GT$$u20$as$u20$core..ops..drop..Drop$GT$4drop17hce0c87476cc10153E', symObjAddr: 0x767C, symBinAddr: 0x34D50, symSize: 0x10C }
  - { offset: 0xA3EE1, size: 0x8, addend: 0x0, symName: '__ZN87_$LT$std..sync..poison..mutex..MutexGuard$LT$T$GT$$u20$as$u20$core..ops..drop..Drop$GT$4drop17h3744be620b79c514E', symObjAddr: 0x6E04, symBinAddr: 0x34580, symSize: 0x58 }
  - { offset: 0xA3F5F, size: 0x8, addend: 0x0, symName: '__ZN87_$LT$std..sync..poison..mutex..MutexGuard$LT$T$GT$$u20$as$u20$core..ops..drop..Drop$GT$4drop17haa663e5e6fa07527E', symObjAddr: 0x6E5C, symBinAddr: 0x345D8, symSize: 0x58 }
  - { offset: 0xA46BA, size: 0x8, addend: 0x0, symName: '__ZN107_$LT$alloc..vec..Vec$LT$T$C$A$GT$..retain_mut..PanicGuard$LT$T$C$A$GT$$u20$as$u20$core..ops..drop..Drop$GT$4drop17he5d88427f1f03e02E', symObjAddr: 0x18C, symBinAddr: 0x2D4A0C, symSize: 0x188 }
  - { offset: 0xA4918, size: 0x8, addend: 0x0, symName: '__ZN108_$LT$alloc..vec..Vec$LT$T$C$A$GT$..dedup_by..FillGapOnDrop$LT$T$C$A$GT$$u20$as$u20$core..ops..drop..Drop$GT$4drop17h23ad29169c475179E', symObjAddr: 0x314, symBinAddr: 0x2DB68, symSize: 0x1AC }
  - { offset: 0xA4BA0, size: 0x8, addend: 0x0, symName: '__ZN108_$LT$alloc..vec..Vec$LT$T$C$A$GT$..dedup_by..FillGapOnDrop$LT$T$C$A$GT$$u20$as$u20$core..ops..drop..Drop$GT$4drop17h7ae5da727920f1b1E', symObjAddr: 0x4C0, symBinAddr: 0x2DD14, symSize: 0x1A8 }
  - { offset: 0xA4E28, size: 0x8, addend: 0x0, symName: '__ZN108_$LT$alloc..vec..Vec$LT$T$C$A$GT$..dedup_by..FillGapOnDrop$LT$T$C$A$GT$$u20$as$u20$core..ops..drop..Drop$GT$4drop17he8b5481fec8b787dE', symObjAddr: 0x668, symBinAddr: 0x2DEBC, symSize: 0x1A8 }
  - { offset: 0xA5428, size: 0x8, addend: 0x0, symName: '__ZN150_$LT$$LT$alloc..vec..drain..Drain$LT$T$C$A$GT$$u20$as$u20$core..ops..drop..Drop$GT$..drop..DropGuard$LT$T$C$A$GT$$u20$as$u20$core..ops..drop..Drop$GT$4drop17h10b36c3bfcd48b3bE', symObjAddr: 0x810, symBinAddr: 0x2E064, symSize: 0x198 }
  - { offset: 0xA56F5, size: 0x8, addend: 0x0, symName: '__ZN150_$LT$$LT$alloc..vec..drain..Drain$LT$T$C$A$GT$$u20$as$u20$core..ops..drop..Drop$GT$..drop..DropGuard$LT$T$C$A$GT$$u20$as$u20$core..ops..drop..Drop$GT$4drop17h5cc749b8882c5cbeE', symObjAddr: 0x9A8, symBinAddr: 0x2E1FC, symSize: 0x198 }
  - { offset: 0xA5A12, size: 0x8, addend: 0x0, symName: '__ZN79_$LT$alloc..vec..drain..Drain$LT$T$C$A$GT$$u20$as$u20$core..ops..drop..Drop$GT$4drop17h26f95b3f26b24b5cE', symObjAddr: 0x680C, symBinAddr: 0x33F88, symSize: 0x298 }
  - { offset: 0xA60EC, size: 0x8, addend: 0x0, symName: '__ZN79_$LT$alloc..vec..drain..Drain$LT$T$C$A$GT$$u20$as$u20$core..ops..drop..Drop$GT$4drop17h79be881fb9989fa1E', symObjAddr: 0x6AA4, symBinAddr: 0x34220, symSize: 0x298 }
  - { offset: 0xA695F, size: 0x8, addend: 0x0, symName: '__ZN70_$LT$alloc..vec..Vec$LT$T$C$A$GT$$u20$as$u20$core..ops..drop..Drop$GT$4drop17h07a870640856226dE', symObjAddr: 0x5AC4, symBinAddr: 0x33240, symSize: 0x38 }
  - { offset: 0xA6A0F, size: 0x8, addend: 0x0, symName: '__ZN70_$LT$alloc..vec..Vec$LT$T$C$A$GT$$u20$as$u20$core..ops..drop..Drop$GT$4drop17h2ea80cfd4744993fE', symObjAddr: 0x5AFC, symBinAddr: 0x33278, symSize: 0x38 }
  - { offset: 0xA6ABF, size: 0x8, addend: 0x0, symName: '__ZN70_$LT$alloc..vec..Vec$LT$T$C$A$GT$$u20$as$u20$core..ops..drop..Drop$GT$4drop17h622e0e9b7f64afe8E', symObjAddr: 0x5B34, symBinAddr: 0x332B0, symSize: 0x24 }
  - { offset: 0xA6B6F, size: 0x8, addend: 0x0, symName: '__ZN70_$LT$alloc..vec..Vec$LT$T$C$A$GT$$u20$as$u20$core..ops..drop..Drop$GT$4drop17h69dc6588418461dfE', symObjAddr: 0x5B58, symBinAddr: 0x332D4, symSize: 0x38 }
  - { offset: 0xA6C1F, size: 0x8, addend: 0x0, symName: '__ZN70_$LT$alloc..vec..Vec$LT$T$C$A$GT$$u20$as$u20$core..ops..drop..Drop$GT$4drop17h869b755ea9d55dd4E', symObjAddr: 0x5B90, symBinAddr: 0x3330C, symSize: 0x38 }
  - { offset: 0xA6CCF, size: 0x8, addend: 0x0, symName: '__ZN70_$LT$alloc..vec..Vec$LT$T$C$A$GT$$u20$as$u20$core..ops..drop..Drop$GT$4drop17h9530a7bfd576aaa3E', symObjAddr: 0x5BC8, symBinAddr: 0x33344, symSize: 0x38 }
  - { offset: 0xA6D7F, size: 0x8, addend: 0x0, symName: '__ZN70_$LT$alloc..vec..Vec$LT$T$C$A$GT$$u20$as$u20$core..ops..drop..Drop$GT$4drop17hae2bfef4c32f1430E', symObjAddr: 0x5C00, symBinAddr: 0x3337C, symSize: 0x38 }
  - { offset: 0xA6E2F, size: 0x8, addend: 0x0, symName: '__ZN70_$LT$alloc..vec..Vec$LT$T$C$A$GT$$u20$as$u20$core..ops..drop..Drop$GT$4drop17hc88815116311386bE', symObjAddr: 0x5C38, symBinAddr: 0x333B4, symSize: 0x24 }
  - { offset: 0xA81F6, size: 0x8, addend: 0x0, symName: '__ZN77_$LT$alloc..raw_vec..RawVec$LT$T$C$A$GT$$u20$as$u20$core..ops..drop..Drop$GT$4drop17h18da3586a0945eb8E', symObjAddr: 0x666C, symBinAddr: 0x33DE8, symSize: 0x34 }
  - { offset: 0xA8232, size: 0x8, addend: 0x0, symName: '__ZN77_$LT$alloc..raw_vec..RawVec$LT$T$C$A$GT$$u20$as$u20$core..ops..drop..Drop$GT$4drop17h2faa6f076edb9287E', symObjAddr: 0x66A0, symBinAddr: 0x33E1C, symSize: 0x34 }
  - { offset: 0xA826E, size: 0x8, addend: 0x0, symName: '__ZN77_$LT$alloc..raw_vec..RawVec$LT$T$C$A$GT$$u20$as$u20$core..ops..drop..Drop$GT$4drop17h50e5c49c27e80f5dE', symObjAddr: 0x66D4, symBinAddr: 0x33E50, symSize: 0x34 }
  - { offset: 0xA82AA, size: 0x8, addend: 0x0, symName: '__ZN77_$LT$alloc..raw_vec..RawVec$LT$T$C$A$GT$$u20$as$u20$core..ops..drop..Drop$GT$4drop17h7072072ad8db5e17E', symObjAddr: 0x6708, symBinAddr: 0x33E84, symSize: 0x34 }
  - { offset: 0xA82E6, size: 0x8, addend: 0x0, symName: '__ZN77_$LT$alloc..raw_vec..RawVec$LT$T$C$A$GT$$u20$as$u20$core..ops..drop..Drop$GT$4drop17hb044ba15d85dc15aE', symObjAddr: 0x673C, symBinAddr: 0x33EB8, symSize: 0x34 }
  - { offset: 0xA8322, size: 0x8, addend: 0x0, symName: '__ZN77_$LT$alloc..raw_vec..RawVec$LT$T$C$A$GT$$u20$as$u20$core..ops..drop..Drop$GT$4drop17hb7f9b9f730bf91c3E', symObjAddr: 0x6770, symBinAddr: 0x33EEC, symSize: 0x34 }
  - { offset: 0xA835E, size: 0x8, addend: 0x0, symName: '__ZN77_$LT$alloc..raw_vec..RawVec$LT$T$C$A$GT$$u20$as$u20$core..ops..drop..Drop$GT$4drop17hc5a892e486bbd749E', symObjAddr: 0x67A4, symBinAddr: 0x33F20, symSize: 0x34 }
  - { offset: 0xA839A, size: 0x8, addend: 0x0, symName: '__ZN77_$LT$alloc..raw_vec..RawVec$LT$T$C$A$GT$$u20$as$u20$core..ops..drop..Drop$GT$4drop17hc88836b695f91492E', symObjAddr: 0x67D8, symBinAddr: 0x33F54, symSize: 0x34 }
  - { offset: 0xA84F5, size: 0x8, addend: 0x0, symName: '__ZN160_$LT$$LT$T$u20$as$u20$alloc..slice..$LT$impl$u20$$u5b$T$u5d$$GT$..to_vec_in..ConvertVec$GT$..to_vec..DropGuard$LT$T$C$A$GT$$u20$as$u20$core..ops..drop..Drop$GT$4drop17hd9f968c32013f1b9E', symObjAddr: 0xB40, symBinAddr: 0x2E394, symSize: 0x80 }
  - { offset: 0xA8909, size: 0x8, addend: 0x0, symName: '__ZN169_$LT$$LT$alloc..collections..linked_list..LinkedList$LT$T$C$A$GT$$u20$as$u20$core..ops..drop..Drop$GT$..drop..DropGuard$LT$T$C$A$GT$$u20$as$u20$core..ops..drop..Drop$GT$4drop17h0ea2a109568ef5c2E', symObjAddr: 0xBC0, symBinAddr: 0x2E414, symSize: 0x16C }
  - { offset: 0xA8A83, size: 0x8, addend: 0x0, symName: '__ZN169_$LT$$LT$alloc..collections..linked_list..LinkedList$LT$T$C$A$GT$$u20$as$u20$core..ops..drop..Drop$GT$..drop..DropGuard$LT$T$C$A$GT$$u20$as$u20$core..ops..drop..Drop$GT$4drop17h68db900a4c6afa96E', symObjAddr: 0xD2C, symBinAddr: 0x2E580, symSize: 0x16C }
  - { offset: 0xA8C4D, size: 0x8, addend: 0x0, symName: '__ZN98_$LT$alloc..collections..linked_list..LinkedList$LT$T$C$A$GT$$u20$as$u20$core..ops..drop..Drop$GT$4drop17h703855c11cf06a33E', symObjAddr: 0x70C8, symBinAddr: 0x3479C, symSize: 0x1C8 }
  - { offset: 0xA8DE6, size: 0x8, addend: 0x0, symName: '__ZN98_$LT$alloc..collections..linked_list..LinkedList$LT$T$C$A$GT$$u20$as$u20$core..ops..drop..Drop$GT$4drop17hff14f32991355d3dE', symObjAddr: 0x7290, symBinAddr: 0x34964, symSize: 0x1C8 }
  - { offset: 0xA91EA, size: 0x8, addend: 0x0, symName: '__ZN72_$LT$alloc..boxed..Box$LT$T$C$A$GT$$u20$as$u20$core..ops..drop..Drop$GT$4drop17h13279e7c0d231112E', symObjAddr: 0x5C5C, symBinAddr: 0x333D8, symSize: 0xB0 }
  - { offset: 0xA9323, size: 0x8, addend: 0x0, symName: '__ZN72_$LT$alloc..boxed..Box$LT$T$C$A$GT$$u20$as$u20$core..ops..drop..Drop$GT$4drop17h1a5b15a5f8dca376E', symObjAddr: 0x5D0C, symBinAddr: 0x33488, symSize: 0xB0 }
  - { offset: 0xA945C, size: 0x8, addend: 0x0, symName: '__ZN72_$LT$alloc..boxed..Box$LT$T$C$A$GT$$u20$as$u20$core..ops..drop..Drop$GT$4drop17h2c18b894d3978da8E', symObjAddr: 0x5DBC, symBinAddr: 0x33538, symSize: 0xB0 }
  - { offset: 0xA9595, size: 0x8, addend: 0x0, symName: '__ZN72_$LT$alloc..boxed..Box$LT$T$C$A$GT$$u20$as$u20$core..ops..drop..Drop$GT$4drop17h3174e22e7b2c1c3fE', symObjAddr: 0x5E6C, symBinAddr: 0x335E8, symSize: 0xB0 }
  - { offset: 0xA96CE, size: 0x8, addend: 0x0, symName: '__ZN72_$LT$alloc..boxed..Box$LT$T$C$A$GT$$u20$as$u20$core..ops..drop..Drop$GT$4drop17h3f3bd5071e4764c4E', symObjAddr: 0x5F1C, symBinAddr: 0x33698, symSize: 0xB0 }
  - { offset: 0xA9807, size: 0x8, addend: 0x0, symName: '__ZN72_$LT$alloc..boxed..Box$LT$T$C$A$GT$$u20$as$u20$core..ops..drop..Drop$GT$4drop17h4145aa0a06dfa16bE', symObjAddr: 0x5FCC, symBinAddr: 0x33748, symSize: 0xB0 }
  - { offset: 0xA9940, size: 0x8, addend: 0x0, symName: '__ZN72_$LT$alloc..boxed..Box$LT$T$C$A$GT$$u20$as$u20$core..ops..drop..Drop$GT$4drop17h4ba5dd947ccb2ac2E', symObjAddr: 0x607C, symBinAddr: 0x337F8, symSize: 0xB0 }
  - { offset: 0xA9A79, size: 0x8, addend: 0x0, symName: '__ZN72_$LT$alloc..boxed..Box$LT$T$C$A$GT$$u20$as$u20$core..ops..drop..Drop$GT$4drop17h6022e0e2e509cf16E', symObjAddr: 0x612C, symBinAddr: 0x338A8, symSize: 0xB0 }
  - { offset: 0xA9BB2, size: 0x8, addend: 0x0, symName: '__ZN72_$LT$alloc..boxed..Box$LT$T$C$A$GT$$u20$as$u20$core..ops..drop..Drop$GT$4drop17h98fe5846809139e8E', symObjAddr: 0x61DC, symBinAddr: 0x33958, symSize: 0xB0 }
  - { offset: 0xA9CEB, size: 0x8, addend: 0x0, symName: '__ZN72_$LT$alloc..boxed..Box$LT$T$C$A$GT$$u20$as$u20$core..ops..drop..Drop$GT$4drop17ha70dde8674b7c20aE', symObjAddr: 0x628C, symBinAddr: 0x33A08, symSize: 0xB0 }
  - { offset: 0xA9E24, size: 0x8, addend: 0x0, symName: '__ZN72_$LT$alloc..boxed..Box$LT$T$C$A$GT$$u20$as$u20$core..ops..drop..Drop$GT$4drop17hb529e8a21cd57bfaE', symObjAddr: 0x633C, symBinAddr: 0x33AB8, symSize: 0xB0 }
  - { offset: 0xA9F5D, size: 0x8, addend: 0x0, symName: '__ZN72_$LT$alloc..boxed..Box$LT$T$C$A$GT$$u20$as$u20$core..ops..drop..Drop$GT$4drop17hc027ed1627507a64E', symObjAddr: 0x63EC, symBinAddr: 0x33B68, symSize: 0xB0 }
  - { offset: 0xAA096, size: 0x8, addend: 0x0, symName: '__ZN72_$LT$alloc..boxed..Box$LT$T$C$A$GT$$u20$as$u20$core..ops..drop..Drop$GT$4drop17hd1759e32ef19b76aE', symObjAddr: 0x649C, symBinAddr: 0x33C18, symSize: 0xB0 }
  - { offset: 0xAB763, size: 0x8, addend: 0x0, symName: '__ZN68_$LT$rayon..vec..Drain$LT$T$GT$$u20$as$u20$core..ops..drop..Drop$GT$4drop17heb5094a63405e765E', symObjAddr: 0x56EC, symBinAddr: 0x32E68, symSize: 0x1EC }
  - { offset: 0xAB885, size: 0x8, addend: 0x0, symName: '__ZN68_$LT$rayon..vec..Drain$LT$T$GT$$u20$as$u20$core..ops..drop..Drop$GT$4drop17hf85cffcaf1a8c264E', symObjAddr: 0x58D8, symBinAddr: 0x33054, symSize: 0x1EC }
  - { offset: 0xAB9AD, size: 0x8, addend: 0x0, symName: '__ZN73_$LT$rayon..vec..SliceDrain$LT$T$GT$$u20$as$u20$core..ops..drop..Drop$GT$4drop17hd509107d3f6ec6cdE', symObjAddr: 0x654C, symBinAddr: 0x33CC8, symSize: 0x5C }
  - { offset: 0xAB9FE, size: 0x8, addend: 0x0, symName: '__ZN73_$LT$rayon..vec..SliceDrain$LT$T$GT$$u20$as$u20$core..ops..drop..Drop$GT$4drop17hdc30fc512c3156ddE', symObjAddr: 0x65A8, symBinAddr: 0x33D24, symSize: 0x5C }
  - { offset: 0xABA55, size: 0x8, addend: 0x0, symName: '__ZN76_$LT$rayon..vec..DrainProducer$LT$T$GT$$u20$as$u20$core..ops..drop..Drop$GT$4drop17h4c5b9d65b4111670E', symObjAddr: 0x6604, symBinAddr: 0x33D80, symSize: 0x34 }
  - { offset: 0xABAA3, size: 0x8, addend: 0x0, symName: '__ZN76_$LT$rayon..vec..DrainProducer$LT$T$GT$$u20$as$u20$core..ops..drop..Drop$GT$4drop17hdab2caaac2771e27E', symObjAddr: 0x6638, symBinAddr: 0x33DB4, symSize: 0x34 }
  - { offset: 0xABC27, size: 0x8, addend: 0x0, symName: '__ZN96_$LT$rayon..iter..collect..consumer..CollectResult$LT$T$GT$$u20$as$u20$core..ops..drop..Drop$GT$4drop17h6d53bafe28c524faE', symObjAddr: 0x7050, symBinAddr: 0x34724, symSize: 0x3C }
  - { offset: 0xABC58, size: 0x8, addend: 0x0, symName: '__ZN96_$LT$rayon..iter..collect..consumer..CollectResult$LT$T$GT$$u20$as$u20$core..ops..drop..Drop$GT$4drop17he52219937a527e3cE', symObjAddr: 0x708C, symBinAddr: 0x34760, symSize: 0x3C }
  - { offset: 0xACAB1, size: 0x8, addend: 0x0, symName: '__ZN79_$LT$hashbrown..raw..RawTable$LT$T$C$A$GT$$u20$as$u20$core..ops..drop..Drop$GT$4drop17h01944fa5fc714978E', symObjAddr: 0x6D3C, symBinAddr: 0x344B8, symSize: 0x3C }
  - { offset: 0xACAED, size: 0x8, addend: 0x0, symName: '__ZN79_$LT$hashbrown..raw..RawTable$LT$T$C$A$GT$$u20$as$u20$core..ops..drop..Drop$GT$4drop17h032d305cd414e3cbE', symObjAddr: 0x6D78, symBinAddr: 0x344F4, symSize: 0x3C }
  - { offset: 0xACB29, size: 0x8, addend: 0x0, symName: '__ZN79_$LT$hashbrown..raw..RawTable$LT$T$C$A$GT$$u20$as$u20$core..ops..drop..Drop$GT$4drop17hc9c27d24aea560e7E', symObjAddr: 0x6DB4, symBinAddr: 0x34530, symSize: 0x3C }
  - { offset: 0xB1B0F, size: 0x8, addend: 0x0, symName: '__ZN105_$LT$hashbrown..set..HashSet$LT$T$C$S$C$A$GT$$u20$as$u20$core..iter..traits..collect..Extend$LT$T$GT$$GT$6extend17h042e446e176c1d1eE', symObjAddr: 0x0, symBinAddr: 0x34E5C, symSize: 0x5C }
  - { offset: 0xB1B2B, size: 0x8, addend: 0x0, symName: '__ZN105_$LT$hashbrown..set..HashSet$LT$T$C$S$C$A$GT$$u20$as$u20$core..iter..traits..collect..Extend$LT$T$GT$$GT$6extend17h042e446e176c1d1eE', symObjAddr: 0x0, symBinAddr: 0x34E5C, symSize: 0x5C }
  - { offset: 0xB1B88, size: 0x8, addend: 0x0, symName: '__ZN105_$LT$hashbrown..set..HashSet$LT$T$C$S$C$A$GT$$u20$as$u20$core..iter..traits..collect..Extend$LT$T$GT$$GT$6extend17h09a706e9935f7c13E', symObjAddr: 0x5C, symBinAddr: 0x34EB8, symSize: 0x5C }
  - { offset: 0xB1BEA, size: 0x8, addend: 0x0, symName: '__ZN105_$LT$hashbrown..set..HashSet$LT$T$C$S$C$A$GT$$u20$as$u20$core..iter..traits..collect..Extend$LT$T$GT$$GT$6extend28_$u7b$$u7b$closure$u7d$$u7d$17h9197edb86b31e582E', symObjAddr: 0xB8, symBinAddr: 0x34F14, symSize: 0x28 }
  - { offset: 0xB1C47, size: 0x8, addend: 0x0, symName: '__ZN105_$LT$hashbrown..set..HashSet$LT$T$C$S$C$A$GT$$u20$as$u20$core..iter..traits..collect..Extend$LT$T$GT$$GT$6extend28_$u7b$$u7b$closure$u7d$$u7d$17hafc619c09a590e41E', symObjAddr: 0xE0, symBinAddr: 0x34F3C, symSize: 0x1C }
  - { offset: 0xB2151, size: 0x8, addend: 0x0, symName: '__ZN3std11collections4hash3map20HashMap$LT$K$C$V$GT$3new17h437fee8ce685b96dE', symObjAddr: 0x0, symBinAddr: 0x34F58, symSize: 0x7C }
  - { offset: 0xB2620, size: 0x8, addend: 0x0, symName: '__ZN3std11collections4hash3map20HashMap$LT$K$C$V$GT$3new17h437fee8ce685b96dE', symObjAddr: 0x0, symBinAddr: 0x34F58, symSize: 0x7C }
  - { offset: 0xB26E9, size: 0x8, addend: 0x0, symName: '__ZN3std11collections4hash3map28HashMap$LT$K$C$V$C$S$C$A$GT$3get17hf27debbbe567dd5cE', symObjAddr: 0x7C, symBinAddr: 0x34FD4, symSize: 0x30 }
  - { offset: 0xB2755, size: 0x8, addend: 0x0, symName: '__ZN3std11collections4hash3map28HashMap$LT$K$C$V$C$S$C$A$GT$6insert17h50f6f019eeca0138E', symObjAddr: 0xAC, symBinAddr: 0x35004, symSize: 0x38 }
  - { offset: 0xB27D8, size: 0x8, addend: 0x0, symName: '__ZN4core5array4iter94_$LT$impl$u20$core..iter..traits..collect..IntoIterator$u20$for$u20$$u5b$T$u3b$$u20$N$u5d$$GT$9into_iter17h7929efcb0a2b530dE', symObjAddr: 0x0, symBinAddr: 0x3503C, symSize: 0x68 }
  - { offset: 0xB284C, size: 0x8, addend: 0x0, symName: '__ZN4core5array4iter94_$LT$impl$u20$core..iter..traits..collect..IntoIterator$u20$for$u20$$u5b$T$u3b$$u20$N$u5d$$GT$9into_iter17h7929efcb0a2b530dE', symObjAddr: 0x0, symBinAddr: 0x3503C, symSize: 0x68 }
  - { offset: 0xB28C4, size: 0x8, addend: 0x0, symName: '__ZN99_$LT$core..array..iter..IntoIter$LT$T$C$_$GT$$u20$as$u20$core..iter..traits..iterator..Iterator$GT$4next17h1dbf5e984f8fc6e6E', symObjAddr: 0x68, symBinAddr: 0x350A4, symSize: 0x2C }
  - { offset: 0xB2B3D, size: 0x8, addend: 0x0, symName: __ZN7walkdir7WalkDir3new17h7c43f01e7afb3ffaE, symObjAddr: 0x0, symBinAddr: 0x350D0, symSize: 0xD0 }
  - { offset: 0xB2EA3, size: 0x8, addend: 0x0, symName: __ZN7walkdir7WalkDir3new17h7c43f01e7afb3ffaE, symObjAddr: 0x0, symBinAddr: 0x350D0, symSize: 0xD0 }
  - { offset: 0xB2EED, size: 0x8, addend: 0x0, symName: '__ZN117_$LT$rayon..iter..plumbing..bridge..Callback$LT$C$GT$$u20$as$u20$rayon..iter..plumbing..ProducerCallback$LT$I$GT$$GT$8callback17h95c37c10851c9854E', symObjAddr: 0x0, symBinAddr: 0x351A0, symSize: 0x6C }
  - { offset: 0xB4AD5, size: 0x8, addend: 0x0, symName: '__ZN117_$LT$rayon..iter..plumbing..bridge..Callback$LT$C$GT$$u20$as$u20$rayon..iter..plumbing..ProducerCallback$LT$I$GT$$GT$8callback17h95c37c10851c9854E', symObjAddr: 0x0, symBinAddr: 0x351A0, symSize: 0x6C }
  - { offset: 0xB4B2E, size: 0x8, addend: 0x0, symName: '__ZN117_$LT$rayon..iter..plumbing..bridge..Callback$LT$C$GT$$u20$as$u20$rayon..iter..plumbing..ProducerCallback$LT$I$GT$$GT$8callback17h99c409dd106a3e44E', symObjAddr: 0x6C, symBinAddr: 0x3520C, symSize: 0x44 }
  - { offset: 0xB4B87, size: 0x8, addend: 0x0, symName: '__ZN117_$LT$rayon..iter..plumbing..bridge..Callback$LT$C$GT$$u20$as$u20$rayon..iter..plumbing..ProducerCallback$LT$I$GT$$GT$8callback17h9b52e8d936c0af79E', symObjAddr: 0xB0, symBinAddr: 0x35250, symSize: 0x44 }
  - { offset: 0xB4BE0, size: 0x8, addend: 0x0, symName: '__ZN117_$LT$rayon..iter..plumbing..bridge..Callback$LT$C$GT$$u20$as$u20$rayon..iter..plumbing..ProducerCallback$LT$I$GT$$GT$8callback17hdab52267fa69d664E', symObjAddr: 0xF4, symBinAddr: 0x35294, symSize: 0x48 }
  - { offset: 0xB4C38, size: 0x8, addend: 0x0, symName: '__ZN117_$LT$rayon..iter..plumbing..bridge..Callback$LT$C$GT$$u20$as$u20$rayon..iter..plumbing..ProducerCallback$LT$I$GT$$GT$8callback17hdeaef0b4362611c7E', symObjAddr: 0x13C, symBinAddr: 0x352DC, symSize: 0x44 }
  - { offset: 0xB4C91, size: 0x8, addend: 0x0, symName: '__ZN117_$LT$rayon..iter..plumbing..bridge..Callback$LT$C$GT$$u20$as$u20$rayon..iter..plumbing..ProducerCallback$LT$I$GT$$GT$8callback17hefc6744189ad52d6E', symObjAddr: 0x180, symBinAddr: 0x35320, symSize: 0x48 }
  - { offset: 0xB4DE7, size: 0x8, addend: 0x0, symName: __ZN5rayon4iter8plumbing24bridge_producer_consumer17h18d0fa29a54449ceE, symObjAddr: 0x1C8, symBinAddr: 0x35368, symSize: 0x118 }
  - { offset: 0xB4E65, size: 0x8, addend: 0x0, symName: __ZN5rayon4iter8plumbing24bridge_producer_consumer17h22562b26bc846037E, symObjAddr: 0x2E0, symBinAddr: 0x35480, symSize: 0x128 }
  - { offset: 0xB4EE3, size: 0x8, addend: 0x0, symName: __ZN5rayon4iter8plumbing24bridge_producer_consumer17h57ebcee9ba3f193aE, symObjAddr: 0x408, symBinAddr: 0x355A8, symSize: 0x108 }
  - { offset: 0xB4F5F, size: 0x8, addend: 0x0, symName: __ZN5rayon4iter8plumbing24bridge_producer_consumer17h8c6e8c990a37bf61E, symObjAddr: 0x510, symBinAddr: 0x356B0, symSize: 0x118 }
  - { offset: 0xB4FDD, size: 0x8, addend: 0x0, symName: __ZN5rayon4iter8plumbing24bridge_producer_consumer17ha360da8b7d3d15f1E, symObjAddr: 0x628, symBinAddr: 0x357C8, symSize: 0x10C }
  - { offset: 0xB505B, size: 0x8, addend: 0x0, symName: __ZN5rayon4iter8plumbing24bridge_producer_consumer17he1a4089b8c13723dE, symObjAddr: 0x734, symBinAddr: 0x358D4, symSize: 0x108 }
  - { offset: 0xB50DC, size: 0x8, addend: 0x0, symName: __ZN5rayon4iter8plumbing24bridge_producer_consumer6helper17h368d735870a7a22bE, symObjAddr: 0x83C, symBinAddr: 0x359DC, symSize: 0x4AC }
  - { offset: 0xB5202, size: 0x8, addend: 0x0, symName: __ZN5rayon4iter8plumbing24bridge_producer_consumer6helper17h66c63cca23d17480E, symObjAddr: 0xCE8, symBinAddr: 0x35E88, symSize: 0x430 }
  - { offset: 0xB5325, size: 0x8, addend: 0x0, symName: __ZN5rayon4iter8plumbing24bridge_producer_consumer6helper17h6830ee28571088e0E, symObjAddr: 0x1118, symBinAddr: 0x362B8, symSize: 0x48C }
  - { offset: 0xB544C, size: 0x8, addend: 0x0, symName: __ZN5rayon4iter8plumbing24bridge_producer_consumer6helper17hcb49b6ca8872329bE, symObjAddr: 0x15A4, symBinAddr: 0x36744, symSize: 0x49C }
  - { offset: 0xB5571, size: 0x8, addend: 0x0, symName: __ZN5rayon4iter8plumbing24bridge_producer_consumer6helper17hcc03d47a4c0f7e68E, symObjAddr: 0x1A40, symBinAddr: 0x36BE0, symSize: 0x4B8 }
  - { offset: 0xB5698, size: 0x8, addend: 0x0, symName: __ZN5rayon4iter8plumbing24bridge_producer_consumer6helper17hcfa61e7e1551c29fE, symObjAddr: 0x1EF8, symBinAddr: 0x37098, symSize: 0x43C }
  - { offset: 0xB57C1, size: 0x8, addend: 0x0, symName: '__ZN5rayon4iter8plumbing24bridge_producer_consumer6helper28_$u7b$$u7b$closure$u7d$$u7d$17h16c1f55bcbbf34e0E', symObjAddr: 0x2334, symBinAddr: 0x374D4, symSize: 0x128 }
  - { offset: 0xB5857, size: 0x8, addend: 0x0, symName: '__ZN5rayon4iter8plumbing24bridge_producer_consumer6helper28_$u7b$$u7b$closure$u7d$$u7d$17h16c4b7483c63653aE', symObjAddr: 0x245C, symBinAddr: 0x375FC, symSize: 0xE8 }
  - { offset: 0xB58DB, size: 0x8, addend: 0x0, symName: '__ZN5rayon4iter8plumbing24bridge_producer_consumer6helper28_$u7b$$u7b$closure$u7d$$u7d$17h216946602351d105E', symObjAddr: 0x2544, symBinAddr: 0x376E4, symSize: 0xD8 }
  - { offset: 0xB595F, size: 0x8, addend: 0x0, symName: '__ZN5rayon4iter8plumbing24bridge_producer_consumer6helper28_$u7b$$u7b$closure$u7d$$u7d$17h48f107fd13b8ad34E', symObjAddr: 0x261C, symBinAddr: 0x377BC, symSize: 0xD8 }
  - { offset: 0xB59E3, size: 0x8, addend: 0x0, symName: '__ZN5rayon4iter8plumbing24bridge_producer_consumer6helper28_$u7b$$u7b$closure$u7d$$u7d$17h7adf1a467f7d1736E', symObjAddr: 0x26F4, symBinAddr: 0x37894, symSize: 0x110 }
  - { offset: 0xB5A78, size: 0x8, addend: 0x0, symName: '__ZN5rayon4iter8plumbing24bridge_producer_consumer6helper28_$u7b$$u7b$closure$u7d$$u7d$17ha87cf1558b754b0aE', symObjAddr: 0x2804, symBinAddr: 0x379A4, symSize: 0x100 }
  - { offset: 0xB5B0D, size: 0x8, addend: 0x0, symName: '__ZN5rayon4iter8plumbing24bridge_producer_consumer6helper28_$u7b$$u7b$closure$u7d$$u7d$17hac800d41d6fb7b0cE', symObjAddr: 0x2904, symBinAddr: 0x37AA4, symSize: 0xD8 }
  - { offset: 0xB5B91, size: 0x8, addend: 0x0, symName: '__ZN5rayon4iter8plumbing24bridge_producer_consumer6helper28_$u7b$$u7b$closure$u7d$$u7d$17hbe25f7377eed4b84E', symObjAddr: 0x29DC, symBinAddr: 0x37B7C, symSize: 0x110 }
  - { offset: 0xB5C26, size: 0x8, addend: 0x0, symName: '__ZN5rayon4iter8plumbing24bridge_producer_consumer6helper28_$u7b$$u7b$closure$u7d$$u7d$17hcf8a5c980cf32444E', symObjAddr: 0x2AEC, symBinAddr: 0x37C8C, symSize: 0x100 }
  - { offset: 0xB5CAB, size: 0x8, addend: 0x0, symName: '__ZN5rayon4iter8plumbing24bridge_producer_consumer6helper28_$u7b$$u7b$closure$u7d$$u7d$17hd8915d3d06d399d3E', symObjAddr: 0x2BEC, symBinAddr: 0x37D8C, symSize: 0x100 }
  - { offset: 0xB5D40, size: 0x8, addend: 0x0, symName: '__ZN5rayon4iter8plumbing24bridge_producer_consumer6helper28_$u7b$$u7b$closure$u7d$$u7d$17hdb8b565105ffe00aE', symObjAddr: 0x2CEC, symBinAddr: 0x37E8C, symSize: 0x100 }
  - { offset: 0xB5DD5, size: 0x8, addend: 0x0, symName: '__ZN5rayon4iter8plumbing24bridge_producer_consumer6helper28_$u7b$$u7b$closure$u7d$$u7d$17he4e1e943479c5c4fE', symObjAddr: 0x2DEC, symBinAddr: 0x37F8C, symSize: 0xE8 }
  - { offset: 0xB5E5B, size: 0x8, addend: 0x0, symName: __ZN5rayon4iter8plumbing6bridge17h45eafbc073de2239E, symObjAddr: 0x2ED4, symBinAddr: 0x38074, symSize: 0xE8 }
  - { offset: 0xB5ECA, size: 0x8, addend: 0x0, symName: __ZN5rayon4iter8plumbing6bridge17h529a03f417b943ebE, symObjAddr: 0x2FBC, symBinAddr: 0x3815C, symSize: 0xC4 }
  - { offset: 0xB5F38, size: 0x8, addend: 0x0, symName: __ZN5rayon4iter8plumbing6bridge17h6157ea7402d7d98fE, symObjAddr: 0x3080, symBinAddr: 0x38220, symSize: 0xF8 }
  - { offset: 0xB5FA7, size: 0x8, addend: 0x0, symName: __ZN5rayon4iter8plumbing6bridge17ha68c9a32026ee3e8E, symObjAddr: 0x3178, symBinAddr: 0x38318, symSize: 0xD8 }
  - { offset: 0xB6015, size: 0x8, addend: 0x0, symName: __ZN5rayon4iter8plumbing6bridge17hb77247e520057116E, symObjAddr: 0x3250, symBinAddr: 0x383F0, symSize: 0xE8 }
  - { offset: 0xB6084, size: 0x8, addend: 0x0, symName: __ZN5rayon4iter8plumbing6bridge17hb927084fca922262E, symObjAddr: 0x3338, symBinAddr: 0x384D8, symSize: 0xC4 }
  - { offset: 0xB844B, size: 0x8, addend: 0x0, symName: __ZN4core4hint16assert_unchecked18precondition_check17h62a7b5c6bcd9caf9E, symObjAddr: 0x0, symBinAddr: 0x3859C, symSize: 0x58 }
  - { offset: 0xB8467, size: 0x8, addend: 0x0, symName: __ZN4core4hint16assert_unchecked18precondition_check17h62a7b5c6bcd9caf9E, symObjAddr: 0x0, symBinAddr: 0x3859C, symSize: 0x58 }
  - { offset: 0xB8509, size: 0x8, addend: 0x0, symName: '__ZN5alloc7raw_vec19RawVec$LT$T$C$A$GT$8grow_one17h47d327eaa2887de0E', symObjAddr: 0x0, symBinAddr: 0x385F4, symSize: 0x84 }
  - { offset: 0xBA267, size: 0x8, addend: 0x0, symName: '__ZN5alloc7raw_vec19RawVec$LT$T$C$A$GT$8grow_one17h47d327eaa2887de0E', symObjAddr: 0x0, symBinAddr: 0x385F4, symSize: 0x84 }
  - { offset: 0xBA419, size: 0x8, addend: 0x0, symName: '__ZN5alloc7raw_vec19RawVec$LT$T$C$A$GT$8grow_one17haf0596d99c0c8900E', symObjAddr: 0x84, symBinAddr: 0x38678, symSize: 0x88 }
  - { offset: 0xBA531, size: 0x8, addend: 0x0, symName: '__ZN5alloc7raw_vec19RawVec$LT$T$C$A$GT$8grow_one17hf06431d17e4cb5eeE', symObjAddr: 0x10C, symBinAddr: 0x38700, symSize: 0x88 }
  - { offset: 0xBA5BA, size: 0x8, addend: 0x0, symName: __ZN4core3cmp8Ordering9then_with17h40e4da78b7d914c5E, symObjAddr: 0x0, symBinAddr: 0x38788, symSize: 0x60 }
  - { offset: 0xBAC19, size: 0x8, addend: 0x0, symName: __ZN4core3cmp8Ordering9then_with17h40e4da78b7d914c5E, symObjAddr: 0x0, symBinAddr: 0x38788, symSize: 0x60 }
  - { offset: 0xBAC72, size: 0x8, addend: 0x0, symName: __ZN4core5slice4sort6stable14driftsort_main17h2b0ba85078cf4e41E, symObjAddr: 0x0, symBinAddr: 0x387E8, symSize: 0x1E8 }
  - { offset: 0xBAD6E, size: 0x8, addend: 0x0, symName: __ZN4core5slice4sort6stable14driftsort_main17h2b0ba85078cf4e41E, symObjAddr: 0x0, symBinAddr: 0x387E8, symSize: 0x1E8 }
  - { offset: 0xBB7E6, size: 0x8, addend: 0x0, symName: '__ZN4core5slice4sort6stable27AlignedStorage$LT$T$C$_$GT$19as_uninit_slice_mut17h3f9c81c669a0359eE', symObjAddr: 0x1E8, symBinAddr: 0x389D0, symSize: 0x84 }
  - { offset: 0xBB8EC, size: 0x8, addend: 0x0, symName: '__ZN4core5array4iter10iter_inner78PolymorphicIter$LT$$u5b$core..mem..maybe_uninit..MaybeUninit$LT$T$GT$$u5d$$GT$4next17ha2e80b1e1efffe1cE', symObjAddr: 0x0, symBinAddr: 0x38A54, symSize: 0x174 }
  - { offset: 0xBC001, size: 0x8, addend: 0x0, symName: '__ZN4core5array4iter10iter_inner78PolymorphicIter$LT$$u5b$core..mem..maybe_uninit..MaybeUninit$LT$T$GT$$u5d$$GT$4next17ha2e80b1e1efffe1cE', symObjAddr: 0x0, symBinAddr: 0x38A54, symSize: 0x174 }
  - { offset: 0xBC254, size: 0x8, addend: 0x0, symName: '__ZN5rayon3vec22DrainProducer$LT$T$GT$3new17h2724471c1b2f2de3E', symObjAddr: 0x0, symBinAddr: 0x38BC8, symSize: 0x18 }
  - { offset: 0xBCB45, size: 0x8, addend: 0x0, symName: '__ZN79_$LT$rayon..vec..IntoIter$LT$T$GT$$u20$as$u20$rayon..iter..ParallelIterator$GT$15drive_unindexed17h0e09a44450a5b192E', symObjAddr: 0x55C, symBinAddr: 0x39124, symSize: 0x4C }
  - { offset: 0xBCB93, size: 0x8, addend: 0x0, symName: '__ZN79_$LT$rayon..vec..IntoIter$LT$T$GT$$u20$as$u20$rayon..iter..ParallelIterator$GT$15drive_unindexed17h1b4d971387cc9255E', symObjAddr: 0x5A8, symBinAddr: 0x39170, symSize: 0x3C }
  - { offset: 0xBCBE0, size: 0x8, addend: 0x0, symName: '__ZN79_$LT$rayon..vec..IntoIter$LT$T$GT$$u20$as$u20$rayon..iter..ParallelIterator$GT$15drive_unindexed17h709f9b695fac2164E', symObjAddr: 0x5E4, symBinAddr: 0x391AC, symSize: 0x4C }
  - { offset: 0xBCC2E, size: 0x8, addend: 0x0, symName: '__ZN79_$LT$rayon..vec..IntoIter$LT$T$GT$$u20$as$u20$rayon..iter..ParallelIterator$GT$15drive_unindexed17had247da235a244c2E', symObjAddr: 0x630, symBinAddr: 0x391F8, symSize: 0x3C }
  - { offset: 0xBCC81, size: 0x8, addend: 0x0, symName: '__ZN83_$LT$rayon..vec..Drain$LT$T$GT$$u20$as$u20$rayon..iter..IndexedParallelIterator$GT$13with_producer17h176d6698fa1b80b9E', symObjAddr: 0x66C, symBinAddr: 0x39234, symSize: 0xF0 }
  - { offset: 0xBCCEB, size: 0x8, addend: 0x0, symName: '__ZN83_$LT$rayon..vec..Drain$LT$T$GT$$u20$as$u20$rayon..iter..IndexedParallelIterator$GT$13with_producer17h36d98e99110fdedaE', symObjAddr: 0x75C, symBinAddr: 0x39324, symSize: 0xF4 }
  - { offset: 0xBCD56, size: 0x8, addend: 0x0, symName: '__ZN83_$LT$rayon..vec..Drain$LT$T$GT$$u20$as$u20$rayon..iter..IndexedParallelIterator$GT$13with_producer17h5c875f02a2cc7849E', symObjAddr: 0x850, symBinAddr: 0x39418, symSize: 0xF4 }
  - { offset: 0xBCDC1, size: 0x8, addend: 0x0, symName: '__ZN83_$LT$rayon..vec..Drain$LT$T$GT$$u20$as$u20$rayon..iter..IndexedParallelIterator$GT$13with_producer17h6cadbcbc027ce084E', symObjAddr: 0x944, symBinAddr: 0x3950C, symSize: 0xF0 }
  - { offset: 0xBCE31, size: 0x8, addend: 0x0, symName: '__ZN86_$LT$rayon..vec..DrainProducer$LT$T$GT$$u20$as$u20$rayon..iter..plumbing..Producer$GT$8split_at17h19076f23df2acfbbE', symObjAddr: 0xA34, symBinAddr: 0x395FC, symSize: 0x140 }
  - { offset: 0xBCEBF, size: 0x8, addend: 0x0, symName: '__ZN86_$LT$rayon..vec..DrainProducer$LT$T$GT$$u20$as$u20$rayon..iter..plumbing..Producer$GT$8split_at17h642a90f0d68dea17E', symObjAddr: 0xB74, symBinAddr: 0x3973C, symSize: 0x140 }
  - { offset: 0xBCF4D, size: 0x8, addend: 0x0, symName: '__ZN86_$LT$rayon..vec..DrainProducer$LT$T$GT$$u20$as$u20$rayon..iter..plumbing..Producer$GT$9into_iter17h1a0c9842ec604c99E', symObjAddr: 0xCB4, symBinAddr: 0x3987C, symSize: 0x94 }
  - { offset: 0xBCF9F, size: 0x8, addend: 0x0, symName: '__ZN86_$LT$rayon..vec..DrainProducer$LT$T$GT$$u20$as$u20$rayon..iter..plumbing..Producer$GT$9into_iter17ha867c1cd07b0db07E', symObjAddr: 0xD48, symBinAddr: 0x39910, symSize: 0x94 }
  - { offset: 0xBCFF7, size: 0x8, addend: 0x0, symName: '__ZN86_$LT$rayon..vec..IntoIter$LT$T$GT$$u20$as$u20$rayon..iter..IndexedParallelIterator$GT$13with_producer17h458e63a45b11f129E', symObjAddr: 0xDDC, symBinAddr: 0x399A4, symSize: 0xA8 }
  - { offset: 0xBD045, size: 0x8, addend: 0x0, symName: '__ZN86_$LT$rayon..vec..IntoIter$LT$T$GT$$u20$as$u20$rayon..iter..IndexedParallelIterator$GT$13with_producer17h46efbb5d96de156aE', symObjAddr: 0xE84, symBinAddr: 0x39A4C, symSize: 0xA4 }
  - { offset: 0xBD092, size: 0x8, addend: 0x0, symName: '__ZN86_$LT$rayon..vec..IntoIter$LT$T$GT$$u20$as$u20$rayon..iter..IndexedParallelIterator$GT$13with_producer17h5727a794148c154dE', symObjAddr: 0xF28, symBinAddr: 0x39AF0, symSize: 0xA8 }
  - { offset: 0xBD0E0, size: 0x8, addend: 0x0, symName: '__ZN86_$LT$rayon..vec..IntoIter$LT$T$GT$$u20$as$u20$rayon..iter..IndexedParallelIterator$GT$13with_producer17h9aebbbe4d156edffE', symObjAddr: 0xFD0, symBinAddr: 0x39B98, symSize: 0xA4 }
  - { offset: 0xBD12D, size: 0x8, addend: 0x0, symName: '__ZN86_$LT$rayon..vec..IntoIter$LT$T$GT$$u20$as$u20$rayon..iter..IndexedParallelIterator$GT$3len17hb7266c508283970fE', symObjAddr: 0x1074, symBinAddr: 0x39C3C, symSize: 0x24 }
  - { offset: 0xBD162, size: 0x8, addend: 0x0, symName: '__ZN86_$LT$rayon..vec..IntoIter$LT$T$GT$$u20$as$u20$rayon..iter..IndexedParallelIterator$GT$3len17hc2eef6de58c9be3dE', symObjAddr: 0x1098, symBinAddr: 0x39C60, symSize: 0x24 }
  - { offset: 0xBD19D, size: 0x8, addend: 0x0, symName: '__ZN90_$LT$rayon..vec..SliceDrain$LT$T$GT$$u20$as$u20$core..iter..traits..iterator..Iterator$GT$4next17h156d3a5bb224a40aE', symObjAddr: 0x10BC, symBinAddr: 0x39C84, symSize: 0x88 }
  - { offset: 0xBD22C, size: 0x8, addend: 0x0, symName: '__ZN90_$LT$rayon..vec..SliceDrain$LT$T$GT$$u20$as$u20$core..iter..traits..iterator..Iterator$GT$4next17h9393841251a13762E', symObjAddr: 0x1144, symBinAddr: 0x39D0C, symSize: 0x94 }
  - { offset: 0xBD3AB, size: 0x8, addend: 0x0, symName: __ZN5rayon4iter16ParallelIterator7flatten17hf2d607868baab2dcE, symObjAddr: 0x1D0, symBinAddr: 0x38D98, symSize: 0x34 }
  - { offset: 0xBD3EE, size: 0x8, addend: 0x0, symName: __ZN5rayon4iter8plumbing8Producer7max_len17h0c777b80a12c2f47E, symObjAddr: 0x204, symBinAddr: 0x38DCC, symSize: 0x14 }
  - { offset: 0xBD423, size: 0x8, addend: 0x0, symName: __ZN5rayon4iter8plumbing8Producer7max_len17haf7d8c665f722336E, symObjAddr: 0x218, symBinAddr: 0x38DE0, symSize: 0x14 }
  - { offset: 0xBD458, size: 0x8, addend: 0x0, symName: __ZN5rayon4iter8plumbing8Producer7min_len17h60dd1eaafcd72effE, symObjAddr: 0x22C, symBinAddr: 0x38DF4, symSize: 0x18 }
  - { offset: 0xBD48D, size: 0x8, addend: 0x0, symName: __ZN5rayon4iter8plumbing8Producer7min_len17hca775bfe20d70f98E, symObjAddr: 0x244, symBinAddr: 0x38E0C, symSize: 0x18 }
  - { offset: 0xBD4C2, size: 0x8, addend: 0x0, symName: __ZN5rayon4iter8plumbing8Producer9fold_with17h75a98ba81861a46aE, symObjAddr: 0x25C, symBinAddr: 0x38E24, symSize: 0xA8 }
  - { offset: 0xBD50F, size: 0x8, addend: 0x0, symName: __ZN5rayon4iter8plumbing8Producer9fold_with17h7e0258d3ad1d2d5dE, symObjAddr: 0x304, symBinAddr: 0x38ECC, symSize: 0xBC }
  - { offset: 0xBD55C, size: 0x8, addend: 0x0, symName: __ZN5rayon4iter8plumbing8Producer9fold_with17h9194dd8b698b2127E, symObjAddr: 0x3C0, symBinAddr: 0x38F88, symSize: 0xA8 }
  - { offset: 0xBD5A9, size: 0x8, addend: 0x0, symName: __ZN5rayon4iter8plumbing8Producer9fold_with17hcba4cf34cbac2284E, symObjAddr: 0x468, symBinAddr: 0x39030, symSize: 0xBC }
  - { offset: 0xBF965, size: 0x8, addend: 0x0, symName: '__ZN63_$LT$I$u20$as$u20$core..iter..traits..collect..IntoIterator$GT$9into_iter17h60601704786dbd07E', symObjAddr: 0x524, symBinAddr: 0x390EC, symSize: 0x1C }
  - { offset: 0xBF99C, size: 0x8, addend: 0x0, symName: '__ZN63_$LT$I$u20$as$u20$core..iter..traits..collect..IntoIterator$GT$9into_iter17he6a40012352e17daE', symObjAddr: 0x540, symBinAddr: 0x39108, symSize: 0x1C }
  - { offset: 0xBFC85, size: 0x8, addend: 0x0, symName: '__ZN5rayon3vec22DrainProducer$LT$T$GT$3new17h2724471c1b2f2de3E', symObjAddr: 0x0, symBinAddr: 0x38BC8, symSize: 0x18 }
  - { offset: 0xBFCD7, size: 0x8, addend: 0x0, symName: '__ZN5rayon3vec22DrainProducer$LT$T$GT$3new17hf9781da5845fa8abE', symObjAddr: 0x18, symBinAddr: 0x38BE0, symSize: 0x18 }
  - { offset: 0xBFD1C, size: 0x8, addend: 0x0, symName: '__ZN5rayon3vec22DrainProducer$LT$T$GT$8from_vec17he3bb236a35872554E', symObjAddr: 0x30, symBinAddr: 0x38BF8, symSize: 0xD0 }
  - { offset: 0xBFDCE, size: 0x8, addend: 0x0, symName: '__ZN5rayon3vec22DrainProducer$LT$T$GT$8from_vec17he91edad1bfde7eb2E', symObjAddr: 0x100, symBinAddr: 0x38CC8, symSize: 0xD0 }
  - { offset: 0xC040C, size: 0x8, addend: 0x0, symName: __ZN5rayon4iter7collect14special_extend17h804568d875ccf583E, symObjAddr: 0x0, symBinAddr: 0x39DA0, symSize: 0x44 }
  - { offset: 0xC2026, size: 0x8, addend: 0x0, symName: __ZN5rayon4iter7collect14special_extend17h804568d875ccf583E, symObjAddr: 0x0, symBinAddr: 0x39DA0, symSize: 0x44 }
  - { offset: 0xC207D, size: 0x8, addend: 0x0, symName: __ZN5rayon4iter7collect14special_extend17hf7022b987c93340eE, symObjAddr: 0x44, symBinAddr: 0x39DE4, symSize: 0x44 }
  - { offset: 0xC20D9, size: 0x8, addend: 0x0, symName: '__ZN5rayon4iter7collect14special_extend28_$u7b$$u7b$closure$u7d$$u7d$17h0a4635bfe47908a8E', symObjAddr: 0x88, symBinAddr: 0x39E28, symSize: 0x40 }
  - { offset: 0xC2127, size: 0x8, addend: 0x0, symName: '__ZN5rayon4iter7collect14special_extend28_$u7b$$u7b$closure$u7d$$u7d$17haf6d878769af27b8E', symObjAddr: 0xC8, symBinAddr: 0x39E68, symSize: 0x40 }
  - { offset: 0xC219C, size: 0x8, addend: 0x0, symName: __ZN5rayon4iter7collect21collect_with_consumer17ha1b8d53e6b267220E, symObjAddr: 0x108, symBinAddr: 0x39EA8, symSize: 0x240 }
  - { offset: 0xC2278, size: 0x8, addend: 0x0, symName: __ZN5rayon4iter7collect21collect_with_consumer17hb7d9c1855c1a1105E, symObjAddr: 0x348, symBinAddr: 0x3A0E8, symSize: 0x250 }
  - { offset: 0xC43C9, size: 0x8, addend: 0x0, symName: __ZN12regex_syntax3hir10Properties11maximum_len17h426642d9002424ceE, symObjAddr: 0x0, symBinAddr: 0x3A338, symSize: 0x7C }
  - { offset: 0xC4659, size: 0x8, addend: 0x0, symName: __ZN12regex_syntax3hir10Properties11maximum_len17h426642d9002424ceE, symObjAddr: 0x0, symBinAddr: 0x3A338, symSize: 0x7C }
  - { offset: 0xC467C, size: 0x8, addend: 0x0, symName: __ZN12regex_syntax3hir10Properties11minimum_len17hcaaea2d68870bea5E, symObjAddr: 0x7C, symBinAddr: 0x3A3B4, symSize: 0x7C }
  - { offset: 0xC469F, size: 0x8, addend: 0x0, symName: __ZN12regex_syntax3hir10Properties15look_set_prefix17h3a049155f2c450daE, symObjAddr: 0xF8, symBinAddr: 0x3A430, symSize: 0x78 }
  - { offset: 0xC46C2, size: 0x8, addend: 0x0, symName: __ZN12regex_syntax3hir10Properties15look_set_suffix17h425b1f24ba51983aE, symObjAddr: 0x170, symBinAddr: 0x3A4A8, symSize: 0x78 }
  - { offset: 0xC46E5, size: 0x8, addend: 0x0, symName: __ZN12regex_syntax3hir4Look7as_repr17h7fdc6030a4d077beE, symObjAddr: 0x1E8, symBinAddr: 0x3A520, symSize: 0x10 }
  - { offset: 0xC4708, size: 0x8, addend: 0x0, symName: __ZN12regex_syntax3hir7LookSet8contains17h15776de1573baf3eE, symObjAddr: 0x1F8, symBinAddr: 0x3A530, symSize: 0x40 }
  - { offset: 0xC4758, size: 0x8, addend: 0x0, symName: '__ZN108_$LT$core..iter..adapters..filter..Filter$LT$I$C$P$GT$$u20$as$u20$core..iter..traits..iterator..Iterator$GT$4next17h0805f054c2216135E', symObjAddr: 0x0, symBinAddr: 0x3A570, symSize: 0x2C }
  - { offset: 0xC4F95, size: 0x8, addend: 0x0, symName: '__ZN108_$LT$core..iter..adapters..filter..Filter$LT$I$C$P$GT$$u20$as$u20$core..iter..traits..iterator..Iterator$GT$4next17h0805f054c2216135E', symObjAddr: 0x0, symBinAddr: 0x3A570, symSize: 0x2C }
  - { offset: 0xC4FD3, size: 0x8, addend: 0x0, symName: '__ZN108_$LT$core..iter..adapters..filter..Filter$LT$I$C$P$GT$$u20$as$u20$core..iter..traits..iterator..Iterator$GT$9size_hint17h9866111317bdb43cE', symObjAddr: 0x2C, symBinAddr: 0x3A59C, symSize: 0x4C }
  - { offset: 0xC50B5, size: 0x8, addend: 0x0, symName: __ZN4core4iter6traits8iterator8Iterator6cloned17hca9d48258262dfd5E, symObjAddr: 0x78, symBinAddr: 0x3A5E8, symSize: 0x18 }
  - { offset: 0xC742A, size: 0x8, addend: 0x0, symName: '__ZN3std3sys12thread_local6native5eager16Storage$LT$T$GT$10initialize17h039b9ec4409dd1f4E', symObjAddr: 0x0, symBinAddr: 0x2D4B94, symSize: 0x54 }
  - { offset: 0xC74D4, size: 0x8, addend: 0x0, symName: __ZN3std3sys12thread_local6native5eager7destroy17heb0dabc11484d70cE, symObjAddr: 0xC4, symBinAddr: 0x3A670, symSize: 0x30 }
  - { offset: 0xC750A, size: 0x8, addend: 0x0, symName: '__ZN3std3sys12thread_local6native5eager7destroy28_$u7b$$u7b$closure$u7d$$u7d$17h1d545b69d3b02794E', symObjAddr: 0xF4, symBinAddr: 0x3A6A0, symSize: 0x40 }
  - { offset: 0xC7B3A, size: 0x8, addend: 0x0, symName: '__ZN3std3sys12thread_local6native5eager16Storage$LT$T$GT$10initialize17h039b9ec4409dd1f4E', symObjAddr: 0x0, symBinAddr: 0x2D4B94, symSize: 0x54 }
  - { offset: 0xC7BF7, size: 0x8, addend: 0x0, symName: '__ZN3std3sys12thread_local6native5eager16Storage$LT$T$GT$3get17h8973f374ad5337b1E', symObjAddr: 0x54, symBinAddr: 0x3A600, symSize: 0x70 }
  - { offset: 0xC7CF4, size: 0x8, addend: 0x0, symName: __ZN4core5slice4sort6shared5pivot11median3_rec17h00150625aeea11d8E, symObjAddr: 0x0, symBinAddr: 0x3A6E0, symSize: 0x1B8 }
  - { offset: 0xC80D5, size: 0x8, addend: 0x0, symName: __ZN4core5slice4sort6shared5pivot11median3_rec17h00150625aeea11d8E, symObjAddr: 0x0, symBinAddr: 0x3A6E0, symSize: 0x1B8 }
  - { offset: 0xC8352, size: 0x8, addend: 0x0, symName: __ZN4core5slice4sort6shared5pivot11median3_rec17h17ea704c91b60ac1E, symObjAddr: 0x1B8, symBinAddr: 0x3A898, symSize: 0x1E0 }
  - { offset: 0xC85CF, size: 0x8, addend: 0x0, symName: __ZN4core5slice4sort6shared5pivot11median3_rec17h22dfebbd85151372E, symObjAddr: 0x398, symBinAddr: 0x3AA78, symSize: 0x1E0 }
  - { offset: 0xC884C, size: 0x8, addend: 0x0, symName: __ZN4core5slice4sort6shared5pivot11median3_rec17h2c918909b6f47766E, symObjAddr: 0x578, symBinAddr: 0x3AC58, symSize: 0x1B8 }
  - { offset: 0xC8A50, size: 0x8, addend: 0x0, symName: __ZN4core5slice4sort6shared5pivot12choose_pivot17ha9d5360b21d41bc4E, symObjAddr: 0x730, symBinAddr: 0x3AE10, symSize: 0x244 }
  - { offset: 0xC8CE4, size: 0x8, addend: 0x0, symName: __ZN4core5slice4sort6shared5pivot12choose_pivot17hddcb5712e53b9052E, symObjAddr: 0x974, symBinAddr: 0x3B054, symSize: 0x238 }
  - { offset: 0xC8F78, size: 0x8, addend: 0x0, symName: __ZN4core5slice4sort6shared5pivot12choose_pivot17hde2b36193a8ae6a3E, symObjAddr: 0xBAC, symBinAddr: 0x3B28C, symSize: 0x238 }
  - { offset: 0xC920C, size: 0x8, addend: 0x0, symName: __ZN4core5slice4sort6shared5pivot12choose_pivot17hdeb2951c7dc8a911E, symObjAddr: 0xDE4, symBinAddr: 0x3B4C4, symSize: 0x244 }
  - { offset: 0xC9D89, size: 0x8, addend: 0x0, symName: __ZN10rayon_core9FnContext3new17hda95498eddf80242E, symObjAddr: 0x0, symBinAddr: 0x3B708, symSize: 0x10 }
  - { offset: 0xC9E6D, size: 0x8, addend: 0x0, symName: '__ZN69_$LT$rayon_core..ThreadPoolBuildError$u20$as$u20$core..fmt..Debug$GT$3fmt17h83b1f01ef667dd78E', symObjAddr: 0x2C, symBinAddr: 0x3B734, symSize: 0x64 }
  - { offset: 0xCA311, size: 0x8, addend: 0x0, symName: __ZN10rayon_core9FnContext3new17hda95498eddf80242E, symObjAddr: 0x0, symBinAddr: 0x3B708, symSize: 0x10 }
  - { offset: 0xCA341, size: 0x8, addend: 0x0, symName: __ZN10rayon_core9FnContext8migrated17hbd960f30276e8433E, symObjAddr: 0x10, symBinAddr: 0x3B718, symSize: 0x1C }
  - { offset: 0xCA3F2, size: 0x8, addend: 0x0, symName: '__ZN4core5slice29_$LT$impl$u20$$u5b$T$u5d$$GT$4iter17haa79ab3c59d731f8E', symObjAddr: 0x0, symBinAddr: 0x3B798, symSize: 0x28 }
  - { offset: 0xCAC25, size: 0x8, addend: 0x0, symName: '__ZN4core5slice29_$LT$impl$u20$$u5b$T$u5d$$GT$4iter17haa79ab3c59d731f8E', symObjAddr: 0x0, symBinAddr: 0x3B798, symSize: 0x28 }
  - { offset: 0xCC849, size: 0x8, addend: 0x0, symName: '__ZN104_$LT$core..iter..adapters..cloned..Cloned$LT$I$GT$$u20$as$u20$core..iter..traits..iterator..Iterator$GT$4fold17h09f457fd766f0d92E', symObjAddr: 0x0, symBinAddr: 0x3B7C0, symSize: 0xDC }
  - { offset: 0xCD1EA, size: 0x8, addend: 0x0, symName: '__ZN104_$LT$core..iter..adapters..cloned..Cloned$LT$I$GT$$u20$as$u20$core..iter..traits..iterator..Iterator$GT$4fold17h09f457fd766f0d92E', symObjAddr: 0x0, symBinAddr: 0x3B7C0, symSize: 0xDC }
  - { offset: 0xCD2A5, size: 0x8, addend: 0x0, symName: '__ZN104_$LT$core..iter..adapters..cloned..Cloned$LT$I$GT$$u20$as$u20$core..iter..traits..iterator..Iterator$GT$4next17ha3314c079f560da6E', symObjAddr: 0xDC, symBinAddr: 0x3B89C, symSize: 0x84 }
  - { offset: 0xCD31A, size: 0x8, addend: 0x0, symName: '__ZN104_$LT$core..iter..adapters..cloned..Cloned$LT$I$GT$$u20$as$u20$core..iter..traits..iterator..Iterator$GT$9size_hint17h87584a8f195be6f9E', symObjAddr: 0x160, symBinAddr: 0x3B920, symSize: 0x24 }
  - { offset: 0xCD358, size: 0x8, addend: 0x0, symName: '__ZN104_$LT$core..iter..adapters..cloned..Cloned$LT$I$GT$$u20$as$u20$core..iter..traits..iterator..Iterator$GT$9size_hint17hafb83a47a6aa67b6E', symObjAddr: 0x184, symBinAddr: 0x3B944, symSize: 0x24 }
  - { offset: 0xCD43C, size: 0x8, addend: 0x0, symName: __ZN4core4iter6traits8iterator8Iterator3map17h50b89520bb4436c0E, symObjAddr: 0x1A8, symBinAddr: 0x3B968, symSize: 0x1C }
  - { offset: 0xCD494, size: 0x8, addend: 0x0, symName: __ZN4core4iter6traits8iterator8Iterator7collect17h5f6456c223e5eb2dE, symObjAddr: 0x1C4, symBinAddr: 0x3B984, symSize: 0x14 }
  - { offset: 0xCD4E1, size: 0x8, addend: 0x0, symName: '__ZN63_$LT$I$u20$as$u20$core..iter..traits..collect..IntoIterator$GT$9into_iter17h59e7dbafbe97d434E', symObjAddr: 0x1D8, symBinAddr: 0x3B998, symSize: 0x18 }
  - { offset: 0xCD518, size: 0x8, addend: 0x0, symName: '__ZN63_$LT$I$u20$as$u20$core..iter..traits..collect..IntoIterator$GT$9into_iter17he697ffb9f2fef367E', symObjAddr: 0x1F0, symBinAddr: 0x3B9B0, symSize: 0x1C }
  - { offset: 0xCFAB8, size: 0x8, addend: 0x0, symName: __ZN4core3ptr9alignment9Alignment13new_unchecked18precondition_check17ha69b17270215e27dE, symObjAddr: 0x0, symBinAddr: 0x3B9CC, symSize: 0x70 }
  - { offset: 0xCFB24, size: 0x8, addend: 0x0, symName: __ZN4core3ptr9alignment9Alignment13new_unchecked18precondition_check17ha69b17270215e27dE, symObjAddr: 0x0, symBinAddr: 0x3B9CC, symSize: 0x70 }
  - { offset: 0xCFC0A, size: 0x8, addend: 0x0, symName: __ZN4core5error5Error11description17hcf7ae2c2b945c419E, symObjAddr: 0x0, symBinAddr: 0x3BA3C, symSize: 0x20 }
  - { offset: 0xCFC71, size: 0x8, addend: 0x0, symName: __ZN4core5error5Error11description17hcf7ae2c2b945c419E, symObjAddr: 0x0, symBinAddr: 0x3BA3C, symSize: 0x20 }
  - { offset: 0xCFCA6, size: 0x8, addend: 0x0, symName: __ZN4core5error5Error5cause17he492e6865dd6c424E, symObjAddr: 0x20, symBinAddr: 0x3BA5C, symSize: 0x24 }
  - { offset: 0xCFCDB, size: 0x8, addend: 0x0, symName: __ZN4core5error5Error6source17hf6b1445d0b57f326E, symObjAddr: 0x44, symBinAddr: 0x3BA80, symSize: 0x24 }
  - { offset: 0xCFD10, size: 0x8, addend: 0x0, symName: __ZN4core5error5Error7provide17hd0486914268ea6b3E, symObjAddr: 0x68, symBinAddr: 0x3BAA4, symSize: 0x18 }
  - { offset: 0xCFD52, size: 0x8, addend: 0x0, symName: __ZN4core5error5Error7type_id17hc0b5813c78cb9074E, symObjAddr: 0x80, symBinAddr: 0x3BABC, symSize: 0x20 }
  - { offset: 0xCFFC0, size: 0x8, addend: 0x0, symName: __ZN3std2fs4read17hd1be9f37f5a5d196E, symObjAddr: 0x0, symBinAddr: 0x3BADC, symSize: 0x68 }
  - { offset: 0xD022F, size: 0x8, addend: 0x0, symName: __ZN3std2fs4read17hd1be9f37f5a5d196E, symObjAddr: 0x0, symBinAddr: 0x3BADC, symSize: 0x68 }
  - { offset: 0xD05EE, size: 0x8, addend: 0x0, symName: '__ZN68_$LT$core..num..error..ParseIntError$u20$as$u20$core..fmt..Debug$GT$3fmt17hd40d0067a00f97d6E', symObjAddr: 0x0, symBinAddr: 0x3BB44, symSize: 0x64 }
  - { offset: 0xD0647, size: 0x8, addend: 0x0, symName: '__ZN68_$LT$core..num..error..ParseIntError$u20$as$u20$core..fmt..Debug$GT$3fmt17hd40d0067a00f97d6E', symObjAddr: 0x0, symBinAddr: 0x3BB44, symSize: 0x64 }
  - { offset: 0xD0818, size: 0x8, addend: 0x0, symName: '__ZN53_$LT$T$u20$as$u20$core..slice..cmp..SliceContains$GT$14slice_contains28_$u7b$$u7b$closure$u7d$$u7d$17hba4f5593283dec1aE', symObjAddr: 0x0, symBinAddr: 0x3BBA8, symSize: 0x38 }
  - { offset: 0xD083E, size: 0x8, addend: 0x0, symName: '__ZN53_$LT$T$u20$as$u20$core..slice..cmp..SliceContains$GT$14slice_contains28_$u7b$$u7b$closure$u7d$$u7d$17hba4f5593283dec1aE', symObjAddr: 0x0, symBinAddr: 0x3BBA8, symSize: 0x38 }
  - { offset: 0xD08E6, size: 0x8, addend: 0x0, symName: '__ZN45_$LT$T$u20$as$u20$alloc..string..ToString$GT$9to_string17h36988647ed6a7caeE', symObjAddr: 0x0, symBinAddr: 0x3BBE0, symSize: 0x24 }
  - { offset: 0xD0902, size: 0x8, addend: 0x0, symName: '__ZN45_$LT$T$u20$as$u20$alloc..string..ToString$GT$9to_string17h36988647ed6a7caeE', symObjAddr: 0x0, symBinAddr: 0x3BBE0, symSize: 0x24 }
  - { offset: 0xD0B8E, size: 0x8, addend: 0x0, symName: __ZN4core3any6TypeId2of17h0ba15e18a1ad6bbbE, symObjAddr: 0x0, symBinAddr: 0x3BC04, symSize: 0x14 }
  - { offset: 0xD11C2, size: 0x8, addend: 0x0, symName: __ZN4core3any6TypeId2of17h0ba15e18a1ad6bbbE, symObjAddr: 0x0, symBinAddr: 0x3BC04, symSize: 0x14 }
  - { offset: 0xD11DF, size: 0x8, addend: 0x0, symName: __ZN4core3any6TypeId2of17h7640b3923d22c37fE, symObjAddr: 0x14, symBinAddr: 0x3BC18, symSize: 0x14 }
  - { offset: 0xD13A7, size: 0x8, addend: 0x0, symName: __ZN4core3any6TypeId2of17hb02c5ab56a5a9a2eE, symObjAddr: 0x28, symBinAddr: 0x3BC2C, symSize: 0x14 }
  - { offset: 0xD13C4, size: 0x8, addend: 0x0, symName: __ZN4core3any6TypeId2of17hb6b77c5623ae8650E, symObjAddr: 0x3C, symBinAddr: 0x3BC40, symSize: 0x14 }
  - { offset: 0xD1551, size: 0x8, addend: 0x0, symName: __ZN4core3any6TypeId2of17hcd9c4a7399ae33e6E, symObjAddr: 0x50, symBinAddr: 0x3BC54, symSize: 0x14 }
  - { offset: 0xD158C, size: 0x8, addend: 0x0, symName: __ZN5alloc3fmt6format17ha6a9ad6a64c3bf13E, symObjAddr: 0x0, symBinAddr: 0x3BC68, symSize: 0xD8 }
  - { offset: 0xD1AA4, size: 0x8, addend: 0x0, symName: __ZN5alloc3fmt6format17ha6a9ad6a64c3bf13E, symObjAddr: 0x0, symBinAddr: 0x3BC68, symSize: 0xD8 }
  - { offset: 0xD1C54, size: 0x8, addend: 0x0, symName: '__ZN71_$LT$std..hash..random..DefaultHasher$u20$as$u20$core..hash..Hasher$GT$5write17h73b95a80e993cb81E', symObjAddr: 0x0, symBinAddr: 0x3BD40, symSize: 0x2C }
  - { offset: 0xD1E26, size: 0x8, addend: 0x0, symName: '__ZN71_$LT$std..hash..random..DefaultHasher$u20$as$u20$core..hash..Hasher$GT$5write17h73b95a80e993cb81E', symObjAddr: 0x0, symBinAddr: 0x3BD40, symSize: 0x2C }
  - { offset: 0xD1E80, size: 0x8, addend: 0x0, symName: '__ZN71_$LT$std..hash..random..DefaultHasher$u20$as$u20$core..hash..Hasher$GT$6finish17h52fd23e2599ed6c0E', symObjAddr: 0x2C, symBinAddr: 0x3BD6C, symSize: 0x20 }
  - { offset: 0xD1EFE, size: 0x8, addend: 0x0, symName: '__ZN73_$LT$std..hash..random..RandomState$u20$as$u20$core..default..Default$GT$7default17h8cb10b97db502ab2E', symObjAddr: 0x4C, symBinAddr: 0x3BD8C, symSize: 0x1C }
  - { offset: 0xD1F36, size: 0x8, addend: 0x0, symName: '__ZN74_$LT$std..hash..random..RandomState$u20$as$u20$core..hash..BuildHasher$GT$12build_hasher17h82673cb8aac7cc8aE', symObjAddr: 0x68, symBinAddr: 0x3BDA8, symSize: 0xCC }
  - { offset: 0xD2089, size: 0x8, addend: 0x0, symName: __ZN4core3cmp10PartialOrd2lt17h35f72847934e6e92E, symObjAddr: 0x0, symBinAddr: 0x3BE74, symSize: 0x70 }
  - { offset: 0xD20D9, size: 0x8, addend: 0x0, symName: __ZN4core3cmp10PartialOrd2lt17h35f72847934e6e92E, symObjAddr: 0x0, symBinAddr: 0x3BE74, symSize: 0x70 }
  - { offset: 0xD234E, size: 0x8, addend: 0x0, symName: '__ZN4core4hash5impls52_$LT$impl$u20$core..hash..Hash$u20$for$u20$$RF$T$GT$4hash17ha039d673dce46ae6E', symObjAddr: 0x70, symBinAddr: 0x3BEE4, symSize: 0x30 }
  - { offset: 0xD249B, size: 0x8, addend: 0x0, symName: '__ZN4core5slice29_$LT$impl$u20$$u5b$T$u5d$$GT$12split_at_mut17h5f7752728fa6c7e2E', symObjAddr: 0xA0, symBinAddr: 0x3BF14, symSize: 0xAC }
  - { offset: 0xD24FF, size: 0x8, addend: 0x0, symName: '__ZN4core5slice29_$LT$impl$u20$$u5b$T$u5d$$GT$13sort_unstable17h8e4c30dd724da465E', symObjAddr: 0x14C, symBinAddr: 0x3BFC0, symSize: 0xA8 }
  - { offset: 0xD25D3, size: 0x8, addend: 0x0, symName: '__ZN4core5slice29_$LT$impl$u20$$u5b$T$u5d$$GT$14swap_unchecked17he60714934fad3ee8E', symObjAddr: 0x1F4, symBinAddr: 0x3C068, symSize: 0x74 }
  - { offset: 0xD26D3, size: 0x8, addend: 0x0, symName: '__ZN4core5slice29_$LT$impl$u20$$u5b$T$u5d$$GT$22split_at_mut_unchecked17he1a97eb7493ddec0E', symObjAddr: 0x268, symBinAddr: 0x3C0DC, symSize: 0xF0 }
  - { offset: 0xD2833, size: 0x8, addend: 0x0, symName: '__ZN4core5slice29_$LT$impl$u20$$u5b$T$u5d$$GT$7reverse17h817a8c16921f6261E', symObjAddr: 0x358, symBinAddr: 0x3C1CC, symSize: 0xF8 }
  - { offset: 0xD29BF, size: 0x8, addend: 0x0, symName: '__ZN4core5slice29_$LT$impl$u20$$u5b$T$u5d$$GT$8is_empty17h447e83417ad9fbc2E', symObjAddr: 0x450, symBinAddr: 0x3C2C4, symSize: 0x1C }
  - { offset: 0xD2D35, size: 0x8, addend: 0x0, symName: '__ZN51_$LT$T$u20$as$u20$core..borrow..Borrow$LT$T$GT$$GT$6borrow17h1f4e7c8006f1ba0bE', symObjAddr: 0x46C, symBinAddr: 0x3C2E0, symSize: 0x14 }
  - { offset: 0xD2E97, size: 0x8, addend: 0x0, symName: '__ZN57_$LT$font_types..tag..Tag$u20$as$u20$core..hash..Hash$GT$4hash17h9bb6e7906a0990a9E', symObjAddr: 0x4C0, symBinAddr: 0x3C334, symSize: 0x2C }
  - { offset: 0xD2FB9, size: 0x8, addend: 0x0, symName: '__ZN52_$LT$Q$u20$as$u20$hashbrown..Equivalent$LT$K$GT$$GT$10equivalent17h1a58174bf384ceceE', symObjAddr: 0x480, symBinAddr: 0x3C2F4, symSize: 0x40 }
  - { offset: 0xD3280, size: 0x8, addend: 0x0, symName: '__ZN87_$LT$T$u20$as$u20$alloc..slice..$LT$impl$u20$$u5b$T$u5d$$GT$..to_vec_in..ConvertVec$GT$6to_vec17h0ced17096ce51442E', symObjAddr: 0x4EC, symBinAddr: 0x3C360, symSize: 0xFC }
  - { offset: 0xD36F2, size: 0x8, addend: 0x0, symName: __ZN4core3str7pattern8Searcher11next_reject17hd14ccbbcfd0d34ccE, symObjAddr: 0x0, symBinAddr: 0x3C45C, symSize: 0x90 }
  - { offset: 0xD3713, size: 0x8, addend: 0x0, symName: __ZN4core3str7pattern8Searcher11next_reject17hd14ccbbcfd0d34ccE, symObjAddr: 0x0, symBinAddr: 0x3C45C, symSize: 0x90 }
  - { offset: 0xD377E, size: 0x8, addend: 0x0, symName: '__ZN97_$LT$core..str..pattern..MultiCharEqSearcher$LT$C$GT$$u20$as$u20$core..str..pattern..Searcher$GT$4next17hf67229bd51b4d84dE', symObjAddr: 0x90, symBinAddr: 0x3C4EC, symSize: 0x1B4 }
  - { offset: 0xD3A37, size: 0x8, addend: 0x0, symName: '__ZN99_$LT$core..str..pattern..CharPredicateSearcher$LT$F$GT$$u20$as$u20$core..str..pattern..Searcher$GT$11next_reject17h75d7d556753cafefE', symObjAddr: 0x244, symBinAddr: 0x3C6A0, symSize: 0x24 }
  - { offset: 0xD3EED, size: 0x8, addend: 0x0, symName: __ZN4core5error5Error11description17h2948a2c9a6c5f2c7E, symObjAddr: 0x0, symBinAddr: 0x3C6C4, symSize: 0x20 }
  - { offset: 0xD4976, size: 0x8, addend: 0x0, symName: __ZN4core5error5Error11description17h2948a2c9a6c5f2c7E, symObjAddr: 0x0, symBinAddr: 0x3C6C4, symSize: 0x20 }
  - { offset: 0xD49AB, size: 0x8, addend: 0x0, symName: __ZN4core5error5Error11description17h3da68569caedabaeE, symObjAddr: 0x20, symBinAddr: 0x3C6E4, symSize: 0x20 }
  - { offset: 0xD49E0, size: 0x8, addend: 0x0, symName: __ZN4core5error5Error11description17h416ca5c9e3b08422E, symObjAddr: 0x40, symBinAddr: 0x3C704, symSize: 0x20 }
  - { offset: 0xD4A15, size: 0x8, addend: 0x0, symName: __ZN4core5error5Error11description17h90d440f0bd21965fE, symObjAddr: 0x60, symBinAddr: 0x3C724, symSize: 0x20 }
  - { offset: 0xD4A4A, size: 0x8, addend: 0x0, symName: __ZN4core5error5Error11description17hc8919d5ab7b98ac9E, symObjAddr: 0x80, symBinAddr: 0x3C744, symSize: 0x20 }
  - { offset: 0xD4A7F, size: 0x8, addend: 0x0, symName: __ZN4core5error5Error11description17hea549cfa05c94a27E, symObjAddr: 0xA0, symBinAddr: 0x3C764, symSize: 0x20 }
  - { offset: 0xD4AB4, size: 0x8, addend: 0x0, symName: __ZN4core5error5Error5cause17h1853e2f8326d1b65E, symObjAddr: 0xC0, symBinAddr: 0x3C784, symSize: 0x24 }
  - { offset: 0xD4AE9, size: 0x8, addend: 0x0, symName: __ZN4core5error5Error5cause17h83bb94d925157bd4E, symObjAddr: 0xE4, symBinAddr: 0x3C7A8, symSize: 0x24 }
  - { offset: 0xD4B1E, size: 0x8, addend: 0x0, symName: __ZN4core5error5Error5cause17h9a6ef7eaa6979749E, symObjAddr: 0x108, symBinAddr: 0x3C7CC, symSize: 0x24 }
  - { offset: 0xD4B53, size: 0x8, addend: 0x0, symName: __ZN4core5error5Error5cause17h9cb7692b0385ff4aE, symObjAddr: 0x12C, symBinAddr: 0x3C7F0, symSize: 0x24 }
  - { offset: 0xD4B88, size: 0x8, addend: 0x0, symName: __ZN4core5error5Error5cause17hb766a682cdc66e22E, symObjAddr: 0x150, symBinAddr: 0x3C814, symSize: 0x24 }
  - { offset: 0xD4BBD, size: 0x8, addend: 0x0, symName: __ZN4core5error5Error5cause17he3a4aac4c7ffb4acE, symObjAddr: 0x174, symBinAddr: 0x3C838, symSize: 0x24 }
  - { offset: 0xD4BF2, size: 0x8, addend: 0x0, symName: __ZN4core5error5Error7provide17h15e17806d9bcf80cE, symObjAddr: 0x198, symBinAddr: 0x3C85C, symSize: 0x18 }
  - { offset: 0xD4C34, size: 0x8, addend: 0x0, symName: __ZN4core5error5Error7provide17h24f05e33142ea5ecE, symObjAddr: 0x1B0, symBinAddr: 0x3C874, symSize: 0x18 }
  - { offset: 0xD4C76, size: 0x8, addend: 0x0, symName: __ZN4core5error5Error7provide17h36661731c432618eE, symObjAddr: 0x1C8, symBinAddr: 0x3C88C, symSize: 0x18 }
  - { offset: 0xD4CB8, size: 0x8, addend: 0x0, symName: __ZN4core5error5Error7provide17h435cdc69a29f8b23E, symObjAddr: 0x1E0, symBinAddr: 0x3C8A4, symSize: 0x18 }
  - { offset: 0xD4CFA, size: 0x8, addend: 0x0, symName: __ZN4core5error5Error7provide17h5c6bbc98a74a5a07E, symObjAddr: 0x1F8, symBinAddr: 0x3C8BC, symSize: 0x18 }
  - { offset: 0xD4D3C, size: 0x8, addend: 0x0, symName: __ZN4core5error5Error7provide17hfbb3ba1a99b5fd58E, symObjAddr: 0x210, symBinAddr: 0x3C8D4, symSize: 0x18 }
  - { offset: 0xD4D7E, size: 0x8, addend: 0x0, symName: __ZN4core5error5Error7type_id17h2ce0184a03fa725aE, symObjAddr: 0x228, symBinAddr: 0x3C8EC, symSize: 0x20 }
  - { offset: 0xD4DD1, size: 0x8, addend: 0x0, symName: __ZN4core5error5Error7type_id17h3c8f6655de0f1261E, symObjAddr: 0x248, symBinAddr: 0x3C90C, symSize: 0x20 }
  - { offset: 0xD4E24, size: 0x8, addend: 0x0, symName: __ZN4core5error5Error7type_id17h40d31aa34bcf4a28E, symObjAddr: 0x268, symBinAddr: 0x3C92C, symSize: 0x20 }
  - { offset: 0xD4E77, size: 0x8, addend: 0x0, symName: __ZN4core5error5Error7type_id17h49df100966d46265E, symObjAddr: 0x288, symBinAddr: 0x3C94C, symSize: 0x20 }
  - { offset: 0xD4ECA, size: 0x8, addend: 0x0, symName: __ZN4core5error5Error7type_id17ha5507dbf66e2f7adE, symObjAddr: 0x2A8, symBinAddr: 0x3C96C, symSize: 0x20 }
  - { offset: 0xD4F1D, size: 0x8, addend: 0x0, symName: __ZN4core5error5Error7type_id17hd6d93b823cbcd607E, symObjAddr: 0x2C8, symBinAddr: 0x3C98C, symSize: 0x20 }
  - { offset: 0xD5E89, size: 0x8, addend: 0x0, symName: __ZN6anyhow5error10object_ref17h1571c95ea1c2cddeE, symObjAddr: 0x2E8, symBinAddr: 0x3C9AC, symSize: 0x4C }
  - { offset: 0xD5EDE, size: 0x8, addend: 0x0, symName: __ZN6anyhow5error10object_ref17h49e3c5f9da745bdcE, symObjAddr: 0x334, symBinAddr: 0x3C9F8, symSize: 0x4C }
  - { offset: 0xD5F33, size: 0x8, addend: 0x0, symName: __ZN6anyhow5error10object_ref17h4d3cf93f3ce38159E, symObjAddr: 0x380, symBinAddr: 0x3CA44, symSize: 0x4C }
  - { offset: 0xD5F88, size: 0x8, addend: 0x0, symName: __ZN6anyhow5error10object_ref17h669d801d114242c6E, symObjAddr: 0x3CC, symBinAddr: 0x3CA90, symSize: 0x4C }
  - { offset: 0xD5FDD, size: 0x8, addend: 0x0, symName: __ZN6anyhow5error10object_ref17hb049831e64bf28beE, symObjAddr: 0x418, symBinAddr: 0x3CADC, symSize: 0x4C }
  - { offset: 0xD6032, size: 0x8, addend: 0x0, symName: __ZN6anyhow5error11object_drop17h3c4df72a5ec09f9cE, symObjAddr: 0x464, symBinAddr: 0x3CB28, symSize: 0x34 }
  - { offset: 0xD6083, size: 0x8, addend: 0x0, symName: __ZN6anyhow5error11object_drop17h582f07608467ab9bE, symObjAddr: 0x498, symBinAddr: 0x3CB5C, symSize: 0x34 }
  - { offset: 0xD60D4, size: 0x8, addend: 0x0, symName: __ZN6anyhow5error11object_drop17h847171d927b09082E, symObjAddr: 0x4CC, symBinAddr: 0x3CB90, symSize: 0x34 }
  - { offset: 0xD6125, size: 0x8, addend: 0x0, symName: __ZN6anyhow5error11object_drop17h930ffa7a90d22c6dE, symObjAddr: 0x500, symBinAddr: 0x3CBC4, symSize: 0x34 }
  - { offset: 0xD6176, size: 0x8, addend: 0x0, symName: __ZN6anyhow5error11object_drop17he421eb82055298eaE, symObjAddr: 0x534, symBinAddr: 0x3CBF8, symSize: 0x34 }
  - { offset: 0xD61C7, size: 0x8, addend: 0x0, symName: __ZN6anyhow5error12object_boxed17h191252402b445e40E, symObjAddr: 0x568, symBinAddr: 0x3CC2C, symSize: 0x38 }
  - { offset: 0xD621C, size: 0x8, addend: 0x0, symName: __ZN6anyhow5error12object_boxed17h661092faa47f3e9dE, symObjAddr: 0x5A0, symBinAddr: 0x3CC64, symSize: 0x38 }
  - { offset: 0xD6271, size: 0x8, addend: 0x0, symName: __ZN6anyhow5error12object_boxed17h6fd0886b51587526E, symObjAddr: 0x5D8, symBinAddr: 0x3CC9C, symSize: 0x38 }
  - { offset: 0xD62C6, size: 0x8, addend: 0x0, symName: __ZN6anyhow5error12object_boxed17ha9786ee59d3c2915E, symObjAddr: 0x610, symBinAddr: 0x3CCD4, symSize: 0x38 }
  - { offset: 0xD631B, size: 0x8, addend: 0x0, symName: __ZN6anyhow5error12object_boxed17hb6207680e03e9cd3E, symObjAddr: 0x648, symBinAddr: 0x3CD0C, symSize: 0x38 }
  - { offset: 0xD6370, size: 0x8, addend: 0x0, symName: __ZN6anyhow5error15object_downcast17h1a9982545e6a4ab7E, symObjAddr: 0x680, symBinAddr: 0x3CD44, symSize: 0x84 }
  - { offset: 0xD63D5, size: 0x8, addend: 0x0, symName: __ZN6anyhow5error15object_downcast17h1bb2d27702bc9794E, symObjAddr: 0x704, symBinAddr: 0x3CDC8, symSize: 0x84 }
  - { offset: 0xD643A, size: 0x8, addend: 0x0, symName: __ZN6anyhow5error15object_downcast17h22a02376ecb70a28E, symObjAddr: 0x788, symBinAddr: 0x3CE4C, symSize: 0x84 }
  - { offset: 0xD649F, size: 0x8, addend: 0x0, symName: __ZN6anyhow5error15object_downcast17h6442a7737f2e5839E, symObjAddr: 0x80C, symBinAddr: 0x3CED0, symSize: 0x84 }
  - { offset: 0xD6504, size: 0x8, addend: 0x0, symName: __ZN6anyhow5error16context_downcast17h7ec5648ad07d6fd1E, symObjAddr: 0x890, symBinAddr: 0x3CF54, symSize: 0xC8 }
  - { offset: 0xD65CC, size: 0x8, addend: 0x0, symName: __ZN6anyhow5error17context_drop_rest17hcde3bcb419400030E, symObjAddr: 0x958, symBinAddr: 0x3D01C, symSize: 0x7C }
  - { offset: 0xD6654, size: 0x8, addend: 0x0, symName: __ZN6anyhow5error17object_drop_front17h30d00fbe84202586E, symObjAddr: 0x9D4, symBinAddr: 0x3D098, symSize: 0x34 }
  - { offset: 0xD66B1, size: 0x8, addend: 0x0, symName: __ZN6anyhow5error17object_drop_front17h97ee48db9dbc5550E, symObjAddr: 0xA08, symBinAddr: 0x3D0CC, symSize: 0x34 }
  - { offset: 0xD670E, size: 0x8, addend: 0x0, symName: __ZN6anyhow5error17object_drop_front17hd10775711370c2bbE, symObjAddr: 0xA3C, symBinAddr: 0x3D100, symSize: 0x34 }
  - { offset: 0xD676B, size: 0x8, addend: 0x0, symName: __ZN6anyhow5error17object_drop_front17hef6dfe36e7891e43E, symObjAddr: 0xA70, symBinAddr: 0x3D134, symSize: 0x34 }
  - { offset: 0xD67C8, size: 0x8, addend: 0x0, symName: __ZN6anyhow5error23object_reallocate_boxed17h464bc6673cb12735E, symObjAddr: 0xB6C, symBinAddr: 0x3D230, symSize: 0x180 }
  - { offset: 0xD683B, size: 0x8, addend: 0x0, symName: __ZN6anyhow5error23object_reallocate_boxed17h666cf2b66aeb88d7E, symObjAddr: 0xCEC, symBinAddr: 0x3D3B0, symSize: 0x160 }
  - { offset: 0xD68AE, size: 0x8, addend: 0x0, symName: __ZN6anyhow5error23object_reallocate_boxed17h6bbfd0fdb2748732E, symObjAddr: 0xE4C, symBinAddr: 0x3D510, symSize: 0x170 }
  - { offset: 0xD6921, size: 0x8, addend: 0x0, symName: __ZN6anyhow5error23object_reallocate_boxed17hd7732454eae1306cE, symObjAddr: 0xFBC, symBinAddr: 0x3D680, symSize: 0x180 }
  - { offset: 0xD6994, size: 0x8, addend: 0x0, symName: __ZN6anyhow5error23object_reallocate_boxed17hfd32039cdac575bdE, symObjAddr: 0x113C, symBinAddr: 0x3D800, symSize: 0x180 }
  - { offset: 0xD6A0C, size: 0x8, addend: 0x0, symName: '__ZN70_$LT$anyhow..error..ErrorImpl$LT$E$GT$$u20$as$u20$core..fmt..Debug$GT$3fmt17h2fe77ee66757dd2eE', symObjAddr: 0x13A4, symBinAddr: 0x3DA68, symSize: 0x34 }
  - { offset: 0xD6A52, size: 0x8, addend: 0x0, symName: '__ZN70_$LT$anyhow..error..ErrorImpl$LT$E$GT$$u20$as$u20$core..fmt..Debug$GT$3fmt17h75c3950fe41d2e38E', symObjAddr: 0x13D8, symBinAddr: 0x3DA9C, symSize: 0x34 }
  - { offset: 0xD6A98, size: 0x8, addend: 0x0, symName: '__ZN70_$LT$anyhow..error..ErrorImpl$LT$E$GT$$u20$as$u20$core..fmt..Debug$GT$3fmt17ha07f5d4e9b51421fE', symObjAddr: 0x140C, symBinAddr: 0x3DAD0, symSize: 0x34 }
  - { offset: 0xD6ADE, size: 0x8, addend: 0x0, symName: '__ZN70_$LT$anyhow..error..ErrorImpl$LT$E$GT$$u20$as$u20$core..fmt..Debug$GT$3fmt17hb791e6480e23dce2E', symObjAddr: 0x1440, symBinAddr: 0x3DB04, symSize: 0x34 }
  - { offset: 0xD6B24, size: 0x8, addend: 0x0, symName: '__ZN70_$LT$anyhow..error..ErrorImpl$LT$E$GT$$u20$as$u20$core..fmt..Debug$GT$3fmt17hdbecc236b3331517E', symObjAddr: 0x1474, symBinAddr: 0x3DB38, symSize: 0x34 }
  - { offset: 0xD6B70, size: 0x8, addend: 0x0, symName: '__ZN72_$LT$anyhow..error..ErrorImpl$LT$E$GT$$u20$as$u20$core..error..Error$GT$6source17h86c10c7c33b2a40cE', symObjAddr: 0x14A8, symBinAddr: 0x3DB6C, symSize: 0x30 }
  - { offset: 0xD6BA7, size: 0x8, addend: 0x0, symName: '__ZN72_$LT$anyhow..error..ErrorImpl$LT$E$GT$$u20$as$u20$core..error..Error$GT$6source17hca946336b2757255E', symObjAddr: 0x14D8, symBinAddr: 0x3DB9C, symSize: 0x30 }
  - { offset: 0xD6BDE, size: 0x8, addend: 0x0, symName: '__ZN72_$LT$anyhow..error..ErrorImpl$LT$E$GT$$u20$as$u20$core..error..Error$GT$6source17hceedfa920d5e96daE', symObjAddr: 0x1508, symBinAddr: 0x3DBCC, symSize: 0x30 }
  - { offset: 0xD6C15, size: 0x8, addend: 0x0, symName: '__ZN72_$LT$anyhow..error..ErrorImpl$LT$E$GT$$u20$as$u20$core..error..Error$GT$6source17hdaa9221253ff5fd4E', symObjAddr: 0x1538, symBinAddr: 0x3DBFC, symSize: 0x30 }
  - { offset: 0xD6C4C, size: 0x8, addend: 0x0, symName: '__ZN72_$LT$anyhow..error..ErrorImpl$LT$E$GT$$u20$as$u20$core..error..Error$GT$6source17he8277e96a3a03cb8E', symObjAddr: 0x1568, symBinAddr: 0x3DC2C, symSize: 0x30 }
  - { offset: 0xD6C89, size: 0x8, addend: 0x0, symName: '__ZN72_$LT$anyhow..error..ErrorImpl$LT$E$GT$$u20$as$u20$core..fmt..Display$GT$3fmt17h0f91b0e505cca85fE', symObjAddr: 0x1598, symBinAddr: 0x3DC5C, symSize: 0x40 }
  - { offset: 0xD6CCF, size: 0x8, addend: 0x0, symName: '__ZN72_$LT$anyhow..error..ErrorImpl$LT$E$GT$$u20$as$u20$core..fmt..Display$GT$3fmt17h478bf278130b1356E', symObjAddr: 0x15D8, symBinAddr: 0x3DC9C, symSize: 0x40 }
  - { offset: 0xD6D15, size: 0x8, addend: 0x0, symName: '__ZN72_$LT$anyhow..error..ErrorImpl$LT$E$GT$$u20$as$u20$core..fmt..Display$GT$3fmt17h7a14e6569613683fE', symObjAddr: 0x1618, symBinAddr: 0x3DCDC, symSize: 0x40 }
  - { offset: 0xD6D5B, size: 0x8, addend: 0x0, symName: '__ZN72_$LT$anyhow..error..ErrorImpl$LT$E$GT$$u20$as$u20$core..fmt..Display$GT$3fmt17haef816941a730775E', symObjAddr: 0x1658, symBinAddr: 0x3DD1C, symSize: 0x40 }
  - { offset: 0xD6DA1, size: 0x8, addend: 0x0, symName: '__ZN72_$LT$anyhow..error..ErrorImpl$LT$E$GT$$u20$as$u20$core..fmt..Display$GT$3fmt17hbaf8912ed42188b3E', symObjAddr: 0x1698, symBinAddr: 0x3DD5C, symSize: 0x40 }
  - { offset: 0xD725B, size: 0x8, addend: 0x0, symName: '__ZN6anyhow7context87_$LT$impl$u20$core..fmt..Debug$u20$for$u20$anyhow..error..ContextError$LT$C$C$E$GT$$GT$3fmt17h246f0b3f02d0df1cE', symObjAddr: 0x12BC, symBinAddr: 0x3D980, symSize: 0xA0 }
  - { offset: 0xD72AD, size: 0x8, addend: 0x0, symName: '__ZN6anyhow7context89_$LT$impl$u20$core..error..Error$u20$for$u20$anyhow..error..ContextError$LT$C$C$E$GT$$GT$6source17h1b184f5803feb348E', symObjAddr: 0x135C, symBinAddr: 0x3DA20, symSize: 0x1C }
  - { offset: 0xD72F1, size: 0x8, addend: 0x0, symName: '__ZN6anyhow7context89_$LT$impl$u20$core..fmt..Display$u20$for$u20$anyhow..error..ContextError$LT$C$C$E$GT$$GT$3fmt17h790039d5c7325e22E', symObjAddr: 0x1378, symBinAddr: 0x3DA3C, symSize: 0x2C }
  - { offset: 0xD74F7, size: 0x8, addend: 0x0, symName: '__ZN6anyhow5error18ErrorImpl$LT$E$GT$5erase17h0220d222fcce6d05E', symObjAddr: 0xAA4, symBinAddr: 0x3D168, symSize: 0x28 }
  - { offset: 0xD7530, size: 0x8, addend: 0x0, symName: '__ZN6anyhow5error18ErrorImpl$LT$E$GT$5erase17h433f6ca4bfbff3e0E', symObjAddr: 0xACC, symBinAddr: 0x3D190, symSize: 0x28 }
  - { offset: 0xD7569, size: 0x8, addend: 0x0, symName: '__ZN6anyhow5error18ErrorImpl$LT$E$GT$5erase17h43af062dae67b992E', symObjAddr: 0xAF4, symBinAddr: 0x3D1B8, symSize: 0x28 }
  - { offset: 0xD75A2, size: 0x8, addend: 0x0, symName: '__ZN6anyhow5error18ErrorImpl$LT$E$GT$5erase17h9ec5682d40a194a3E', symObjAddr: 0xB1C, symBinAddr: 0x3D1E0, symSize: 0x28 }
  - { offset: 0xD75DB, size: 0x8, addend: 0x0, symName: '__ZN6anyhow5error18ErrorImpl$LT$E$GT$5erase17ha86ffc8a9317ee63E', symObjAddr: 0xB44, symBinAddr: 0x3D208, symSize: 0x28 }
  - { offset: 0xD77CD, size: 0x8, addend: 0x0, symName: '__ZN4core3num20_$LT$impl$u20$u8$GT$16from_ascii_radix17h2a079f4d847fced4E', symObjAddr: 0x0, symBinAddr: 0x3DD9C, symSize: 0x448 }
  - { offset: 0xD792A, size: 0x8, addend: 0x0, symName: '__ZN4core3num20_$LT$impl$u20$u8$GT$16from_ascii_radix17h2a079f4d847fced4E', symObjAddr: 0x0, symBinAddr: 0x3DD9C, symSize: 0x448 }
  - { offset: 0xD7BAC, size: 0x8, addend: 0x0, symName: '__ZN4core3num21_$LT$impl$u20$u16$GT$14from_str_radix17hc7e31422a6135035E', symObjAddr: 0x448, symBinAddr: 0x3E1E4, symSize: 0x3C }
  - { offset: 0xD7BE9, size: 0x8, addend: 0x0, symName: '__ZN4core3num21_$LT$impl$u20$u16$GT$16from_ascii_radix17h567cc0c7acdc569dE', symObjAddr: 0x484, symBinAddr: 0x3E220, symSize: 0x438 }
  - { offset: 0xD7F67, size: 0x8, addend: 0x0, symName: '__ZN4core3num21_$LT$impl$u20$u32$GT$14from_str_radix17h8e22aae34372fd11E', symObjAddr: 0x8BC, symBinAddr: 0x3E658, symSize: 0x3C }
  - { offset: 0xD7FA4, size: 0x8, addend: 0x0, symName: '__ZN4core3num21_$LT$impl$u20$u32$GT$16from_ascii_radix17h40ce15fd3b86540bE', symObjAddr: 0x8F8, symBinAddr: 0x3E694, symSize: 0x434 }
  - { offset: 0xD833F, size: 0x8, addend: 0x0, symName: '__ZN4core3num23_$LT$impl$u20$usize$GT$13unchecked_add18precondition_check17h04e9397c0c39b223E', symObjAddr: 0xD2C, symBinAddr: 0x3EAC8, symSize: 0x64 }
  - { offset: 0xD83BE, size: 0x8, addend: 0x0, symName: '__ZN4core3num23_$LT$impl$u20$usize$GT$13unchecked_sub18precondition_check17hac7217bef64511f1E', symObjAddr: 0xD90, symBinAddr: 0x3EB2C, symSize: 0x60 }
  - { offset: 0xD8418, size: 0x8, addend: 0x0, symName: '__ZN4core3num59_$LT$impl$u20$core..str..traits..FromStr$u20$for$u20$u8$GT$8from_str17h90bcd28da04332adE', symObjAddr: 0xDF0, symBinAddr: 0x3EB8C, symSize: 0x34 }
  - { offset: 0xD8472, size: 0x8, addend: 0x0, symName: '__ZN4core3num60_$LT$impl$u20$core..str..traits..FromStr$u20$for$u20$u16$GT$8from_str17hd725821eaeafe0e5E', symObjAddr: 0xE24, symBinAddr: 0x3EBC0, symSize: 0x40 }
  - { offset: 0xD8961, size: 0x8, addend: 0x0, symName: __ZN4core5slice4sort8unstable9quicksort34partition_lomuto_branchless_cyclic17h357c66d3c4432e9eE, symObjAddr: 0x0, symBinAddr: 0x3EC00, symSize: 0x220 }
  - { offset: 0xD9197, size: 0x8, addend: 0x0, symName: __ZN4core5slice4sort8unstable9quicksort34partition_lomuto_branchless_cyclic17h357c66d3c4432e9eE, symObjAddr: 0x0, symBinAddr: 0x3EC00, symSize: 0x220 }
  - { offset: 0xD93A2, size: 0x8, addend: 0x0, symName: __ZN4core5slice4sort8unstable9quicksort34partition_lomuto_branchless_cyclic17h526626833488051aE, symObjAddr: 0x220, symBinAddr: 0x3EE20, symSize: 0x244 }
  - { offset: 0xD95AD, size: 0x8, addend: 0x0, symName: __ZN4core5slice4sort8unstable9quicksort34partition_lomuto_branchless_cyclic17h6708e0aac949a1a6E, symObjAddr: 0x464, symBinAddr: 0x3F064, symSize: 0x244 }
  - { offset: 0xD97B8, size: 0x8, addend: 0x0, symName: __ZN4core5slice4sort8unstable9quicksort34partition_lomuto_branchless_cyclic17ha425aff611b21552E, symObjAddr: 0x6A8, symBinAddr: 0x3F2A8, symSize: 0x214 }
  - { offset: 0xD99AF, size: 0x8, addend: 0x0, symName: __ZN4core5slice4sort8unstable9quicksort34partition_lomuto_branchless_cyclic17he1a740177eb1f821E, symObjAddr: 0x8BC, symBinAddr: 0x3F4BC, symSize: 0x214 }
  - { offset: 0xD9BA6, size: 0x8, addend: 0x0, symName: __ZN4core5slice4sort8unstable9quicksort34partition_lomuto_branchless_cyclic17hffd742e36286e4b8E, symObjAddr: 0xAD0, symBinAddr: 0x3F6D0, symSize: 0x220 }
  - { offset: 0xD9DB6, size: 0x8, addend: 0x0, symName: '__ZN4core5slice4sort8unstable9quicksort34partition_lomuto_branchless_cyclic28_$u7b$$u7b$closure$u7d$$u7d$17h30233a1620d94d05E', symObjAddr: 0xCF0, symBinAddr: 0x3F8F0, symSize: 0x1A8 }
  - { offset: 0xD9EE5, size: 0x8, addend: 0x0, symName: '__ZN4core5slice4sort8unstable9quicksort34partition_lomuto_branchless_cyclic28_$u7b$$u7b$closure$u7d$$u7d$17h4c80811bc0b81324E', symObjAddr: 0xE98, symBinAddr: 0x3FA98, symSize: 0x18C }
  - { offset: 0xDA014, size: 0x8, addend: 0x0, symName: '__ZN4core5slice4sort8unstable9quicksort34partition_lomuto_branchless_cyclic28_$u7b$$u7b$closure$u7d$$u7d$17h4fef90a1d095d2f7E', symObjAddr: 0x1024, symBinAddr: 0x3FC24, symSize: 0x18C }
  - { offset: 0xDA143, size: 0x8, addend: 0x0, symName: '__ZN4core5slice4sort8unstable9quicksort34partition_lomuto_branchless_cyclic28_$u7b$$u7b$closure$u7d$$u7d$17h88c421e58969e58bE', symObjAddr: 0x11B0, symBinAddr: 0x3FDB0, symSize: 0x18C }
  - { offset: 0xDA272, size: 0x8, addend: 0x0, symName: '__ZN4core5slice4sort8unstable9quicksort34partition_lomuto_branchless_cyclic28_$u7b$$u7b$closure$u7d$$u7d$17h9ceccaed91243f8aE', symObjAddr: 0x133C, symBinAddr: 0x3FF3C, symSize: 0x18C }
  - { offset: 0xDA3A1, size: 0x8, addend: 0x0, symName: '__ZN4core5slice4sort8unstable9quicksort34partition_lomuto_branchless_cyclic28_$u7b$$u7b$closure$u7d$$u7d$17hb4e81da777eafa67E', symObjAddr: 0x14C8, symBinAddr: 0x400C8, symSize: 0x1A8 }
  - { offset: 0xDA5C7, size: 0x8, addend: 0x0, symName: __ZN4core5slice4sort8unstable9quicksort9partition17h334e339ddcf8fd60E, symObjAddr: 0x1670, symBinAddr: 0x40270, symSize: 0x150 }
  - { offset: 0xDA686, size: 0x8, addend: 0x0, symName: __ZN4core5slice4sort8unstable9quicksort9partition17h34afd1a4323282f8E, symObjAddr: 0x17C0, symBinAddr: 0x403C0, symSize: 0x150 }
  - { offset: 0xDA745, size: 0x8, addend: 0x0, symName: __ZN4core5slice4sort8unstable9quicksort9partition17h9251607f41a913bbE, symObjAddr: 0x1910, symBinAddr: 0x40510, symSize: 0x150 }
  - { offset: 0xDA804, size: 0x8, addend: 0x0, symName: __ZN4core5slice4sort8unstable9quicksort9partition17hb71c2967273c14bdE, symObjAddr: 0x1A60, symBinAddr: 0x40660, symSize: 0x150 }
  - { offset: 0xDA8C3, size: 0x8, addend: 0x0, symName: __ZN4core5slice4sort8unstable9quicksort9partition17hcb0b29d7464224ddE, symObjAddr: 0x1BB0, symBinAddr: 0x407B0, symSize: 0x150 }
  - { offset: 0xDA982, size: 0x8, addend: 0x0, symName: __ZN4core5slice4sort8unstable9quicksort9partition17he0b4c0638062d105E, symObjAddr: 0x1D00, symBinAddr: 0x40900, symSize: 0x150 }
  - { offset: 0xDAA41, size: 0x8, addend: 0x0, symName: __ZN4core5slice4sort8unstable9quicksort9quicksort17h1d99ef62d4656ab9E, symObjAddr: 0x1E50, symBinAddr: 0x40A50, symSize: 0x2C8 }
  - { offset: 0xDAC69, size: 0x8, addend: 0x0, symName: __ZN4core5slice4sort8unstable9quicksort9quicksort17hbc1d46781941e050E, symObjAddr: 0x2118, symBinAddr: 0x40D18, symSize: 0x2D8 }
  - { offset: 0xDAE91, size: 0x8, addend: 0x0, symName: __ZN4core5slice4sort8unstable9quicksort9quicksort17hc99b940d995c9394E, symObjAddr: 0x23F0, symBinAddr: 0x40FF0, symSize: 0x2C8 }
  - { offset: 0xDB0BE, size: 0x8, addend: 0x0, symName: '__ZN4core5slice4sort8unstable9quicksort9quicksort28_$u7b$$u7b$closure$u7d$$u7d$17h439fb6bf03c22cb4E', symObjAddr: 0x26B8, symBinAddr: 0x412B8, symSize: 0x48 }
  - { offset: 0xDB11B, size: 0x8, addend: 0x0, symName: '__ZN4core5slice4sort8unstable9quicksort9quicksort28_$u7b$$u7b$closure$u7d$$u7d$17h578fd7fa9c68220dE', symObjAddr: 0x2700, symBinAddr: 0x41300, symSize: 0x48 }
  - { offset: 0xDB178, size: 0x8, addend: 0x0, symName: '__ZN4core5slice4sort8unstable9quicksort9quicksort28_$u7b$$u7b$closure$u7d$$u7d$17h9babe0756c15ac10E', symObjAddr: 0x2748, symBinAddr: 0x41348, symSize: 0x48 }
  - { offset: 0xDBEEF, size: 0x8, addend: 0x0, symName: __ZN14regex_automata4util6search5Input3new17hcea5a16aa5cd084cE, symObjAddr: 0x0, symBinAddr: 0x41390, symSize: 0x5C }
  - { offset: 0xDC07C, size: 0x8, addend: 0x0, symName: __ZN14regex_automata4util6search5Input3new17hcea5a16aa5cd084cE, symObjAddr: 0x0, symBinAddr: 0x41390, symSize: 0x5C }
  - { offset: 0xDC0E2, size: 0x8, addend: 0x0, symName: '__ZN4core3ptr8non_null16NonNull$LT$T$GT$13new_unchecked17h1d82ad83ed5c8b8aE', symObjAddr: 0x0, symBinAddr: 0x413EC, symSize: 0x3C }
  - { offset: 0xDC880, size: 0x8, addend: 0x0, symName: '__ZN90_$LT$core..ptr..non_null..NonNull$LT$T$GT$$u20$as$u20$core..convert..From$LT$$RF$T$GT$$GT$4from17h08135574c2492713E', symObjAddr: 0x3C0, symBinAddr: 0x417AC, symSize: 0x14 }
  - { offset: 0xDC8B7, size: 0x8, addend: 0x0, symName: '__ZN90_$LT$core..ptr..non_null..NonNull$LT$T$GT$$u20$as$u20$core..convert..From$LT$$RF$T$GT$$GT$4from17h3b81ed809cbd64acE', symObjAddr: 0x3D4, symBinAddr: 0x417C0, symSize: 0x14 }
  - { offset: 0xDC8EE, size: 0x8, addend: 0x0, symName: '__ZN90_$LT$core..ptr..non_null..NonNull$LT$T$GT$$u20$as$u20$core..convert..From$LT$$RF$T$GT$$GT$4from17h49c0c6b94aa7d67eE', symObjAddr: 0x3E8, symBinAddr: 0x417D4, symSize: 0x14 }
  - { offset: 0xDC925, size: 0x8, addend: 0x0, symName: '__ZN90_$LT$core..ptr..non_null..NonNull$LT$T$GT$$u20$as$u20$core..convert..From$LT$$RF$T$GT$$GT$4from17h6a2bb8049bdad363E', symObjAddr: 0x3FC, symBinAddr: 0x417E8, symSize: 0x14 }
  - { offset: 0xDC95C, size: 0x8, addend: 0x0, symName: '__ZN90_$LT$core..ptr..non_null..NonNull$LT$T$GT$$u20$as$u20$core..convert..From$LT$$RF$T$GT$$GT$4from17hbd059f6b0c895596E', symObjAddr: 0x410, symBinAddr: 0x417FC, symSize: 0x14 }
  - { offset: 0xDC993, size: 0x8, addend: 0x0, symName: '__ZN90_$LT$core..ptr..non_null..NonNull$LT$T$GT$$u20$as$u20$core..convert..From$LT$$RF$T$GT$$GT$4from17hc1c922bda0452a99E', symObjAddr: 0x424, symBinAddr: 0x41810, symSize: 0x14 }
  - { offset: 0xDC9CA, size: 0x8, addend: 0x0, symName: '__ZN90_$LT$core..ptr..non_null..NonNull$LT$T$GT$$u20$as$u20$core..convert..From$LT$$RF$T$GT$$GT$4from17hdcc15066dd13e1e0E', symObjAddr: 0x438, symBinAddr: 0x41824, symSize: 0x14 }
  - { offset: 0xDDF4D, size: 0x8, addend: 0x0, symName: '__ZN4core3ptr8non_null16NonNull$LT$T$GT$13new_unchecked17h1d82ad83ed5c8b8aE', symObjAddr: 0x0, symBinAddr: 0x413EC, symSize: 0x3C }
  - { offset: 0xDE136, size: 0x8, addend: 0x0, symName: '__ZN4core3ptr8non_null16NonNull$LT$T$GT$13new_unchecked17h3492fabd7545b3a8E', symObjAddr: 0x3C, symBinAddr: 0x41428, symSize: 0x3C }
  - { offset: 0xDE222, size: 0x8, addend: 0x0, symName: '__ZN4core3ptr8non_null16NonNull$LT$T$GT$13new_unchecked17h476a87ccdbc2345bE', symObjAddr: 0x78, symBinAddr: 0x41464, symSize: 0x3C }
  - { offset: 0xDE267, size: 0x8, addend: 0x0, symName: '__ZN4core3ptr8non_null16NonNull$LT$T$GT$13new_unchecked17h6c5bf6f7af064753E', symObjAddr: 0xB4, symBinAddr: 0x414A0, symSize: 0x3C }
  - { offset: 0xDE2AC, size: 0x8, addend: 0x0, symName: '__ZN4core3ptr8non_null16NonNull$LT$T$GT$13new_unchecked17h8eef366d539eef08E', symObjAddr: 0xF0, symBinAddr: 0x414DC, symSize: 0x3C }
  - { offset: 0xDE2F1, size: 0x8, addend: 0x0, symName: '__ZN4core3ptr8non_null16NonNull$LT$T$GT$13new_unchecked17hc98db7960f72ac72E', symObjAddr: 0x12C, symBinAddr: 0x41518, symSize: 0x3C }
  - { offset: 0xDE336, size: 0x8, addend: 0x0, symName: '__ZN4core3ptr8non_null16NonNull$LT$T$GT$13new_unchecked17hccd553a02ea1e139E', symObjAddr: 0x168, symBinAddr: 0x41554, symSize: 0x3C }
  - { offset: 0xDE37B, size: 0x8, addend: 0x0, symName: '__ZN4core3ptr8non_null16NonNull$LT$T$GT$13new_unchecked17hddeb5dc65776af96E', symObjAddr: 0x1A4, symBinAddr: 0x41590, symSize: 0x3C }
  - { offset: 0xDE3C0, size: 0x8, addend: 0x0, symName: '__ZN4core3ptr8non_null16NonNull$LT$T$GT$13new_unchecked17hed3d21020cc74c15E', symObjAddr: 0x1E0, symBinAddr: 0x415CC, symSize: 0x3C }
  - { offset: 0xDE3EB, size: 0x8, addend: 0x0, symName: '__ZN4core3ptr8non_null16NonNull$LT$T$GT$4cast17h054549c660f8e5f8E', symObjAddr: 0x21C, symBinAddr: 0x41608, symSize: 0x14 }
  - { offset: 0xDE420, size: 0x8, addend: 0x0, symName: '__ZN4core3ptr8non_null16NonNull$LT$T$GT$4cast17h2af920f5dc35525cE', symObjAddr: 0x230, symBinAddr: 0x4161C, symSize: 0x14 }
  - { offset: 0xDE462, size: 0x8, addend: 0x0, symName: '__ZN4core3ptr8non_null16NonNull$LT$T$GT$4cast17h30e485834c40cdbbE', symObjAddr: 0x244, symBinAddr: 0x41630, symSize: 0x14 }
  - { offset: 0xDE497, size: 0x8, addend: 0x0, symName: '__ZN4core3ptr8non_null16NonNull$LT$T$GT$4cast17h31e88bae7db2585aE', symObjAddr: 0x258, symBinAddr: 0x41644, symSize: 0x14 }
  - { offset: 0xDE4D9, size: 0x8, addend: 0x0, symName: '__ZN4core3ptr8non_null16NonNull$LT$T$GT$4cast17h4854f5cf226423c5E', symObjAddr: 0x26C, symBinAddr: 0x41658, symSize: 0x14 }
  - { offset: 0xDE51B, size: 0x8, addend: 0x0, symName: '__ZN4core3ptr8non_null16NonNull$LT$T$GT$4cast17h49607ed995be891cE', symObjAddr: 0x280, symBinAddr: 0x4166C, symSize: 0x14 }
  - { offset: 0xDE55D, size: 0x8, addend: 0x0, symName: '__ZN4core3ptr8non_null16NonNull$LT$T$GT$4cast17h4fcbc92ff71ace31E', symObjAddr: 0x294, symBinAddr: 0x41680, symSize: 0x14 }
  - { offset: 0xDE592, size: 0x8, addend: 0x0, symName: '__ZN4core3ptr8non_null16NonNull$LT$T$GT$4cast17h5181649d323f2b9aE', symObjAddr: 0x2A8, symBinAddr: 0x41694, symSize: 0x14 }
  - { offset: 0xDE5C7, size: 0x8, addend: 0x0, symName: '__ZN4core3ptr8non_null16NonNull$LT$T$GT$4cast17h60f3ab33840bad6fE', symObjAddr: 0x2BC, symBinAddr: 0x416A8, symSize: 0x14 }
  - { offset: 0xDE5FC, size: 0x8, addend: 0x0, symName: '__ZN4core3ptr8non_null16NonNull$LT$T$GT$4cast17h79c03319105a57a9E', symObjAddr: 0x2D0, symBinAddr: 0x416BC, symSize: 0x14 }
  - { offset: 0xDE631, size: 0x8, addend: 0x0, symName: '__ZN4core3ptr8non_null16NonNull$LT$T$GT$4cast17h8b77d6315d765344E', symObjAddr: 0x2E4, symBinAddr: 0x416D0, symSize: 0x14 }
  - { offset: 0xDE666, size: 0x8, addend: 0x0, symName: '__ZN4core3ptr8non_null16NonNull$LT$T$GT$4cast17h8d37e96215f1ed4eE', symObjAddr: 0x2F8, symBinAddr: 0x416E4, symSize: 0x14 }
  - { offset: 0xDE69B, size: 0x8, addend: 0x0, symName: '__ZN4core3ptr8non_null16NonNull$LT$T$GT$4cast17h8dd5c76edb65829eE', symObjAddr: 0x30C, symBinAddr: 0x416F8, symSize: 0x14 }
  - { offset: 0xDE6D0, size: 0x8, addend: 0x0, symName: '__ZN4core3ptr8non_null16NonNull$LT$T$GT$4cast17h9542ec105fc70788E', symObjAddr: 0x320, symBinAddr: 0x4170C, symSize: 0x14 }
  - { offset: 0xDE712, size: 0x8, addend: 0x0, symName: '__ZN4core3ptr8non_null16NonNull$LT$T$GT$4cast17ha7f44e5b3f369fadE', symObjAddr: 0x334, symBinAddr: 0x41720, symSize: 0x14 }
  - { offset: 0xDE754, size: 0x8, addend: 0x0, symName: '__ZN4core3ptr8non_null16NonNull$LT$T$GT$4cast17hb9df5087b5d75f7dE', symObjAddr: 0x348, symBinAddr: 0x41734, symSize: 0x14 }
  - { offset: 0xDE789, size: 0x8, addend: 0x0, symName: '__ZN4core3ptr8non_null16NonNull$LT$T$GT$4cast17hba52c277b46b11dbE', symObjAddr: 0x35C, symBinAddr: 0x41748, symSize: 0x14 }
  - { offset: 0xDE7CB, size: 0x8, addend: 0x0, symName: '__ZN4core3ptr8non_null16NonNull$LT$T$GT$4cast17hcd904ce8deb9bda8E', symObjAddr: 0x370, symBinAddr: 0x4175C, symSize: 0x14 }
  - { offset: 0xDE800, size: 0x8, addend: 0x0, symName: '__ZN4core3ptr8non_null16NonNull$LT$T$GT$4cast17hde694c6ed1b4afecE', symObjAddr: 0x384, symBinAddr: 0x41770, symSize: 0x14 }
  - { offset: 0xDE835, size: 0x8, addend: 0x0, symName: '__ZN4core3ptr8non_null16NonNull$LT$T$GT$4cast17he8bd57f177bba2c1E', symObjAddr: 0x398, symBinAddr: 0x41784, symSize: 0x14 }
  - { offset: 0xDE86A, size: 0x8, addend: 0x0, symName: '__ZN4core3ptr8non_null16NonNull$LT$T$GT$4cast17hf280993632a11cddE', symObjAddr: 0x3AC, symBinAddr: 0x41798, symSize: 0x14 }
  - { offset: 0xDE925, size: 0x8, addend: 0x0, symName: '__ZN4core3str21_$LT$impl$u20$str$GT$10split_once17h8e1d3416d9b19f07E', symObjAddr: 0x0, symBinAddr: 0x41838, symSize: 0x184 }
  - { offset: 0xDEB15, size: 0x8, addend: 0x0, symName: '__ZN4core3str21_$LT$impl$u20$str$GT$10split_once17h8e1d3416d9b19f07E', symObjAddr: 0x0, symBinAddr: 0x41838, symSize: 0x184 }
  - { offset: 0xDEE15, size: 0x8, addend: 0x0, symName: '__ZN4core3str21_$LT$impl$u20$str$GT$12strip_prefix17hb32556c7c7b7bb42E', symObjAddr: 0x184, symBinAddr: 0x419BC, symSize: 0x4C }
  - { offset: 0xDEE8F, size: 0x8, addend: 0x0, symName: '__ZN4core3str21_$LT$impl$u20$str$GT$12trim_matches17hfb317611b907b3abE', symObjAddr: 0x1D0, symBinAddr: 0x41A08, symSize: 0x108 }
  - { offset: 0xDF036, size: 0x8, addend: 0x0, symName: '__ZN4core3str21_$LT$impl$u20$str$GT$5parse17h17d7c6eda858846dE', symObjAddr: 0x2D8, symBinAddr: 0x41B10, symSize: 0x2C }
  - { offset: 0xDF06D, size: 0x8, addend: 0x0, symName: '__ZN4core3str21_$LT$impl$u20$str$GT$5parse17h3dcf38e0a5cee361E', symObjAddr: 0x304, symBinAddr: 0x41B3C, symSize: 0x38 }
  - { offset: 0xDF7E9, size: 0x8, addend: 0x0, symName: __ZN10rayon_core6unwind14halt_unwinding17h0498ef7f34285ae3E, symObjAddr: 0x0, symBinAddr: 0x41B74, symSize: 0x40 }
  - { offset: 0xE18D4, size: 0x8, addend: 0x0, symName: __ZN10rayon_core6unwind14halt_unwinding17h0498ef7f34285ae3E, symObjAddr: 0x0, symBinAddr: 0x41B74, symSize: 0x40 }
  - { offset: 0xE1913, size: 0x8, addend: 0x0, symName: __ZN10rayon_core6unwind14halt_unwinding17h081bda25c28e1a8dE, symObjAddr: 0x40, symBinAddr: 0x41BB4, symSize: 0x40 }
  - { offset: 0xE1952, size: 0x8, addend: 0x0, symName: __ZN10rayon_core6unwind14halt_unwinding17h1d067536e907abd3E, symObjAddr: 0x80, symBinAddr: 0x41BF4, symSize: 0x40 }
  - { offset: 0xE1991, size: 0x8, addend: 0x0, symName: __ZN10rayon_core6unwind14halt_unwinding17h26560e9986037769E, symObjAddr: 0xC0, symBinAddr: 0x41C34, symSize: 0x40 }
  - { offset: 0xE19D0, size: 0x8, addend: 0x0, symName: __ZN10rayon_core6unwind14halt_unwinding17h2eb34ef80b1f8837E, symObjAddr: 0x100, symBinAddr: 0x41C74, symSize: 0x40 }
  - { offset: 0xE1A0F, size: 0x8, addend: 0x0, symName: __ZN10rayon_core6unwind14halt_unwinding17h3d35cd62f98258dbE, symObjAddr: 0x140, symBinAddr: 0x41CB4, symSize: 0x40 }
  - { offset: 0xE1A4E, size: 0x8, addend: 0x0, symName: __ZN10rayon_core6unwind14halt_unwinding17h3d632b70b22e7e12E, symObjAddr: 0x180, symBinAddr: 0x41CF4, symSize: 0x40 }
  - { offset: 0xE1A8D, size: 0x8, addend: 0x0, symName: __ZN10rayon_core6unwind14halt_unwinding17h43b9d2cd3aa05562E, symObjAddr: 0x1C0, symBinAddr: 0x41D34, symSize: 0x40 }
  - { offset: 0xE1ACC, size: 0x8, addend: 0x0, symName: __ZN10rayon_core6unwind14halt_unwinding17h47af8fb4d8dbf595E, symObjAddr: 0x200, symBinAddr: 0x41D74, symSize: 0x40 }
  - { offset: 0xE1B0B, size: 0x8, addend: 0x0, symName: __ZN10rayon_core6unwind14halt_unwinding17h51f83b96c83723adE, symObjAddr: 0x240, symBinAddr: 0x41DB4, symSize: 0x40 }
  - { offset: 0xE1B4A, size: 0x8, addend: 0x0, symName: __ZN10rayon_core6unwind14halt_unwinding17h6edd3965aa369e22E, symObjAddr: 0x280, symBinAddr: 0x41DF4, symSize: 0x40 }
  - { offset: 0xE1B89, size: 0x8, addend: 0x0, symName: __ZN10rayon_core6unwind14halt_unwinding17h85190e750947bb56E, symObjAddr: 0x2C0, symBinAddr: 0x41E34, symSize: 0x40 }
  - { offset: 0xE1BC8, size: 0x8, addend: 0x0, symName: __ZN10rayon_core6unwind14halt_unwinding17h87fac54d19aeae37E, symObjAddr: 0x300, symBinAddr: 0x41E74, symSize: 0x40 }
  - { offset: 0xE1C07, size: 0x8, addend: 0x0, symName: __ZN10rayon_core6unwind14halt_unwinding17h895024bf72b87de0E, symObjAddr: 0x340, symBinAddr: 0x41EB4, symSize: 0x2C }
  - { offset: 0xE1C45, size: 0x8, addend: 0x0, symName: __ZN10rayon_core6unwind14halt_unwinding17h8ae14654b1477a07E, symObjAddr: 0x36C, symBinAddr: 0x41EE0, symSize: 0x40 }
  - { offset: 0xE1C84, size: 0x8, addend: 0x0, symName: __ZN10rayon_core6unwind14halt_unwinding17h977bbcae2296d6d6E, symObjAddr: 0x3AC, symBinAddr: 0x41F20, symSize: 0x40 }
  - { offset: 0xE1CC3, size: 0x8, addend: 0x0, symName: __ZN10rayon_core6unwind14halt_unwinding17ha092317ee0e3cd78E, symObjAddr: 0x3EC, symBinAddr: 0x41F60, symSize: 0x40 }
  - { offset: 0xE1D02, size: 0x8, addend: 0x0, symName: __ZN10rayon_core6unwind14halt_unwinding17ha375510a44b880e5E, symObjAddr: 0x42C, symBinAddr: 0x41FA0, symSize: 0x40 }
  - { offset: 0xE1D41, size: 0x8, addend: 0x0, symName: __ZN10rayon_core6unwind14halt_unwinding17haee70b5c58511c23E, symObjAddr: 0x46C, symBinAddr: 0x41FE0, symSize: 0x40 }
  - { offset: 0xE1D80, size: 0x8, addend: 0x0, symName: __ZN10rayon_core6unwind14halt_unwinding17hb06477963857da85E, symObjAddr: 0x4AC, symBinAddr: 0x42020, symSize: 0x40 }
  - { offset: 0xE1DBF, size: 0x8, addend: 0x0, symName: __ZN10rayon_core6unwind14halt_unwinding17hb1af0a15888779a7E, symObjAddr: 0x4EC, symBinAddr: 0x42060, symSize: 0x40 }
  - { offset: 0xE1DFE, size: 0x8, addend: 0x0, symName: __ZN10rayon_core6unwind14halt_unwinding17hb462842d44d22535E, symObjAddr: 0x52C, symBinAddr: 0x420A0, symSize: 0x40 }
  - { offset: 0xE1E3D, size: 0x8, addend: 0x0, symName: __ZN10rayon_core6unwind14halt_unwinding17hba6f2dca2c263f8cE, symObjAddr: 0x56C, symBinAddr: 0x420E0, symSize: 0x40 }
  - { offset: 0xE1E7C, size: 0x8, addend: 0x0, symName: __ZN10rayon_core6unwind14halt_unwinding17hcea543716e1616fbE, symObjAddr: 0x5AC, symBinAddr: 0x42120, symSize: 0x2C }
  - { offset: 0xE1EBA, size: 0x8, addend: 0x0, symName: __ZN10rayon_core6unwind14halt_unwinding17he44ac9bcd91e117cE, symObjAddr: 0x5D8, symBinAddr: 0x4214C, symSize: 0x40 }
  - { offset: 0xE1EF9, size: 0x8, addend: 0x0, symName: __ZN10rayon_core6unwind14halt_unwinding17hf7284ead80f026c5E, symObjAddr: 0x618, symBinAddr: 0x4218C, symSize: 0x40 }
  - { offset: 0xE4AFA, size: 0x8, addend: 0x0, symName: '__ZN45_$LT$T$u20$as$u20$alloc..string..ToString$GT$9to_string17h6c38cacbe34f7095E', symObjAddr: 0x0, symBinAddr: 0x421CC, symSize: 0x24 }
  - { offset: 0xE4B49, size: 0x8, addend: 0x0, symName: '__ZN45_$LT$T$u20$as$u20$alloc..string..ToString$GT$9to_string17h6c38cacbe34f7095E', symObjAddr: 0x0, symBinAddr: 0x421CC, symSize: 0x24 }
  - { offset: 0xE4B86, size: 0x8, addend: 0x0, symName: '__ZN49_$LT$T$u20$as$u20$alloc..string..SpecToString$GT$14spec_to_string17hd17afdefd2373feeE', symObjAddr: 0x24, symBinAddr: 0x421F0, symSize: 0xF4 }
  - { offset: 0xE4E7B, size: 0x8, addend: 0x0, symName: '__ZN4core5slice29_$LT$impl$u20$$u5b$T$u5d$$GT$4iter17h8637429c93e54d19E', symObjAddr: 0x118, symBinAddr: 0x422E4, symSize: 0x28 }
  - { offset: 0xE4F27, size: 0x8, addend: 0x0, symName: '__ZN50_$LT$T$u20$as$u20$core..convert..Into$LT$U$GT$$GT$4into17h7602216aafecb80cE', symObjAddr: 0x140, symBinAddr: 0x4230C, symSize: 0x18 }
  - { offset: 0xE5184, size: 0x8, addend: 0x0, symName: '__ZN4core5slice29_$LT$impl$u20$$u5b$T$u5d$$GT$14swap_unchecked18precondition_check17h857f21c6e56fd5e6E', symObjAddr: 0x0, symBinAddr: 0x42324, symSize: 0x80 }
  - { offset: 0xE51A5, size: 0x8, addend: 0x0, symName: '__ZN4core5slice29_$LT$impl$u20$$u5b$T$u5d$$GT$14swap_unchecked18precondition_check17h857f21c6e56fd5e6E', symObjAddr: 0x0, symBinAddr: 0x42324, symSize: 0x80 }
  - { offset: 0xE520C, size: 0x8, addend: 0x0, symName: '__ZN4core5slice29_$LT$impl$u20$$u5b$T$u5d$$GT$18split_at_unchecked18precondition_check17hed006d4390f6bf59E', symObjAddr: 0x80, symBinAddr: 0x423A4, symSize: 0x60 }
  - { offset: 0xE5265, size: 0x8, addend: 0x0, symName: '__ZN4core5slice29_$LT$impl$u20$$u5b$T$u5d$$GT$22split_at_mut_unchecked18precondition_check17hd6fc22db4345727bE', symObjAddr: 0xE0, symBinAddr: 0x42404, symSize: 0x60 }
  - { offset: 0xE530F, size: 0x8, addend: 0x0, symName: __ZN4core9ub_checks23maybe_is_nonoverlapping7runtime17hdf8e2abe0b3526cbE, symObjAddr: 0x0, symBinAddr: 0x42464, symSize: 0xD8 }
  - { offset: 0xE5494, size: 0x8, addend: 0x0, symName: __ZN4core9ub_checks23maybe_is_nonoverlapping7runtime17hdf8e2abe0b3526cbE, symObjAddr: 0x0, symBinAddr: 0x42464, symSize: 0xD8 }
  - { offset: 0xE56A7, size: 0x8, addend: 0x0, symName: '__ZN10rayon_core8registry8Registry14in_worker_cold10LOCK_LATCH29_$u7b$$u7b$constant$u7d$$u7d$28_$u7b$$u7b$closure$u7d$$u7d$17hc021fd0b74ec1412E', symObjAddr: 0x0, symBinAddr: 0x4253C, symSize: 0x34 }
  - { offset: 0xE80A7, size: 0x8, addend: 0x0, symName: __ZN4core3cmp9PartialEq2ne17hb72aa302e3b6d399E, symObjAddr: 0x48CC, symBinAddr: 0x45DB8, symSize: 0x30 }
  - { offset: 0xE8117, size: 0x8, addend: 0x0, symName: '__ZN10rayon_core8registry8Registry14in_worker_cold10LOCK_LATCH29_$u7b$$u7b$constant$u7d$$u7d$28_$u7b$$u7b$closure$u7d$$u7d$17hc021fd0b74ec1412E', symObjAddr: 0x0, symBinAddr: 0x4253C, symSize: 0x34 }
  - { offset: 0xE8152, size: 0x8, addend: 0x0, symName: '__ZN10rayon_core8registry8Registry14in_worker_cold28_$u7b$$u7b$closure$u7d$$u7d$17h00b636c8ca15eb1cE', symObjAddr: 0x27C, symBinAddr: 0x42570, symSize: 0x1D8 }
  - { offset: 0xE81CC, size: 0x8, addend: 0x0, symName: '__ZN10rayon_core8registry8Registry14in_worker_cold28_$u7b$$u7b$closure$u7d$$u7d$17h1598e8596a8a2f56E', symObjAddr: 0x454, symBinAddr: 0x42748, symSize: 0x1D8 }
  - { offset: 0xE8246, size: 0x8, addend: 0x0, symName: '__ZN10rayon_core8registry8Registry14in_worker_cold28_$u7b$$u7b$closure$u7d$$u7d$17h6d383d58353d22c8E', symObjAddr: 0x62C, symBinAddr: 0x42920, symSize: 0x1E8 }
  - { offset: 0xE82C0, size: 0x8, addend: 0x0, symName: '__ZN10rayon_core8registry8Registry14in_worker_cold28_$u7b$$u7b$closure$u7d$$u7d$17h8d62e7af0d926360E', symObjAddr: 0x814, symBinAddr: 0x42B08, symSize: 0x1E0 }
  - { offset: 0xE833A, size: 0x8, addend: 0x0, symName: '__ZN10rayon_core8registry8Registry14in_worker_cold28_$u7b$$u7b$closure$u7d$$u7d$17hc12885d5d023b745E', symObjAddr: 0x9F4, symBinAddr: 0x42CE8, symSize: 0x1E8 }
  - { offset: 0xE83B4, size: 0x8, addend: 0x0, symName: '__ZN10rayon_core8registry8Registry14in_worker_cold28_$u7b$$u7b$closure$u7d$$u7d$17hfa8eaecac9c848a7E', symObjAddr: 0xBDC, symBinAddr: 0x42ED0, symSize: 0x1E8 }
  - { offset: 0xE842E, size: 0x8, addend: 0x0, symName: '__ZN10rayon_core8registry8Registry14in_worker_cold28_$u7b$$u7b$closure$u7d$$u7d$17hfc54014253e18e67E', symObjAddr: 0xDC4, symBinAddr: 0x430B8, symSize: 0x1E8 }
  - { offset: 0xE84AD, size: 0x8, addend: 0x0, symName: '__ZN10rayon_core8registry8Registry14in_worker_cold28_$u7b$$u7b$closure$u7d$$u7d$28_$u7b$$u7b$closure$u7d$$u7d$17h081a10dfb11f2913E', symObjAddr: 0xFAC, symBinAddr: 0x432A0, symSize: 0x13C }
  - { offset: 0xE851B, size: 0x8, addend: 0x0, symName: '__ZN10rayon_core8registry8Registry14in_worker_cold28_$u7b$$u7b$closure$u7d$$u7d$28_$u7b$$u7b$closure$u7d$$u7d$17h2397482ec87f8583E', symObjAddr: 0x10E8, symBinAddr: 0x433DC, symSize: 0x144 }
  - { offset: 0xE858A, size: 0x8, addend: 0x0, symName: '__ZN10rayon_core8registry8Registry14in_worker_cold28_$u7b$$u7b$closure$u7d$$u7d$28_$u7b$$u7b$closure$u7d$$u7d$17h5d892fb00e623359E', symObjAddr: 0x122C, symBinAddr: 0x43520, symSize: 0x144 }
  - { offset: 0xE85F9, size: 0x8, addend: 0x0, symName: '__ZN10rayon_core8registry8Registry14in_worker_cold28_$u7b$$u7b$closure$u7d$$u7d$28_$u7b$$u7b$closure$u7d$$u7d$17h5ef7a5996790f81bE', symObjAddr: 0x1370, symBinAddr: 0x43664, symSize: 0x138 }
  - { offset: 0xE8668, size: 0x8, addend: 0x0, symName: '__ZN10rayon_core8registry8Registry14in_worker_cold28_$u7b$$u7b$closure$u7d$$u7d$28_$u7b$$u7b$closure$u7d$$u7d$17h742f233d156519a3E', symObjAddr: 0x14A8, symBinAddr: 0x4379C, symSize: 0x138 }
  - { offset: 0xE86D7, size: 0x8, addend: 0x0, symName: '__ZN10rayon_core8registry8Registry14in_worker_cold28_$u7b$$u7b$closure$u7d$$u7d$28_$u7b$$u7b$closure$u7d$$u7d$17h7db08513a8dfb65cE', symObjAddr: 0x15E0, symBinAddr: 0x438D4, symSize: 0x144 }
  - { offset: 0xE8746, size: 0x8, addend: 0x0, symName: '__ZN10rayon_core8registry8Registry14in_worker_cold28_$u7b$$u7b$closure$u7d$$u7d$28_$u7b$$u7b$closure$u7d$$u7d$17hecfeb45eeffc8c33E', symObjAddr: 0x1724, symBinAddr: 0x43A18, symSize: 0x144 }
  - { offset: 0xE8841, size: 0x8, addend: 0x0, symName: '__ZN10rayon_core8registry8Registry15in_worker_cross28_$u7b$$u7b$closure$u7d$$u7d$17h04969c9277b50ee1E', symObjAddr: 0x2670, symBinAddr: 0x43B5C, symSize: 0x144 }
  - { offset: 0xE88B0, size: 0x8, addend: 0x0, symName: '__ZN10rayon_core8registry8Registry15in_worker_cross28_$u7b$$u7b$closure$u7d$$u7d$17h09ebc4164a4585a0E', symObjAddr: 0x27B4, symBinAddr: 0x43CA0, symSize: 0x144 }
  - { offset: 0xE891F, size: 0x8, addend: 0x0, symName: '__ZN10rayon_core8registry8Registry15in_worker_cross28_$u7b$$u7b$closure$u7d$$u7d$17h1ca37b7684565f8fE', symObjAddr: 0x28F8, symBinAddr: 0x43DE4, symSize: 0x13C }
  - { offset: 0xE898D, size: 0x8, addend: 0x0, symName: '__ZN10rayon_core8registry8Registry15in_worker_cross28_$u7b$$u7b$closure$u7d$$u7d$17h5cc1ccfa8d801213E', symObjAddr: 0x2A34, symBinAddr: 0x43F20, symSize: 0x144 }
  - { offset: 0xE89FC, size: 0x8, addend: 0x0, symName: '__ZN10rayon_core8registry8Registry15in_worker_cross28_$u7b$$u7b$closure$u7d$$u7d$17h6b4c58292a474871E', symObjAddr: 0x2B78, symBinAddr: 0x44064, symSize: 0x138 }
  - { offset: 0xE8A6B, size: 0x8, addend: 0x0, symName: '__ZN10rayon_core8registry8Registry15in_worker_cross28_$u7b$$u7b$closure$u7d$$u7d$17h6dae00b6bd95b7a9E', symObjAddr: 0x2CB0, symBinAddr: 0x4419C, symSize: 0x144 }
  - { offset: 0xE8ADA, size: 0x8, addend: 0x0, symName: '__ZN10rayon_core8registry8Registry15in_worker_cross28_$u7b$$u7b$closure$u7d$$u7d$17h7ec1f1fba476eed9E', symObjAddr: 0x2DF4, symBinAddr: 0x442E0, symSize: 0x138 }
  - { offset: 0xE90BE, size: 0x8, addend: 0x0, symName: __ZN10rayon_core8registry9in_worker17h0cd15bd698752244E, symObjAddr: 0x408C, symBinAddr: 0x45578, symSize: 0x164 }
  - { offset: 0xE9115, size: 0x8, addend: 0x0, symName: __ZN10rayon_core8registry9in_worker17h9ec54d0ad2460ddfE, symObjAddr: 0x41F0, symBinAddr: 0x456DC, symSize: 0x158 }
  - { offset: 0xE916C, size: 0x8, addend: 0x0, symName: __ZN10rayon_core8registry9in_worker17hb19f5b21d44d44c8E, symObjAddr: 0x4348, symBinAddr: 0x45834, symSize: 0x164 }
  - { offset: 0xE91C3, size: 0x8, addend: 0x0, symName: __ZN10rayon_core8registry9in_worker17hb1f6c42fac2f2ad9E, symObjAddr: 0x44AC, symBinAddr: 0x45998, symSize: 0x164 }
  - { offset: 0xE921A, size: 0x8, addend: 0x0, symName: __ZN10rayon_core8registry9in_worker17he4707db5f04d6afaE, symObjAddr: 0x4610, symBinAddr: 0x45AFC, symSize: 0x164 }
  - { offset: 0xE9271, size: 0x8, addend: 0x0, symName: __ZN10rayon_core8registry9in_worker17hf6e3d7be73be0e1cE, symObjAddr: 0x4774, symBinAddr: 0x45C60, symSize: 0x158 }
  - { offset: 0xEC321, size: 0x8, addend: 0x0, symName: __ZN10rayon_core8registry8Registry14in_worker_cold17h3ef114e594be2d45E, symObjAddr: 0x34, symBinAddr: 0x2D4BE8, symSize: 0x54 }
  - { offset: 0xEC701, size: 0x8, addend: 0x0, symName: __ZN10rayon_core8registry8Registry14in_worker_cold17h48836184183c5cc6E, symObjAddr: 0x88, symBinAddr: 0x2D4C3C, symSize: 0x54 }
  - { offset: 0xEC77E, size: 0x8, addend: 0x0, symName: __ZN10rayon_core8registry8Registry14in_worker_cold17h5177fb95350f3124E, symObjAddr: 0xDC, symBinAddr: 0x2D4C90, symSize: 0x54 }
  - { offset: 0xEC7FB, size: 0x8, addend: 0x0, symName: __ZN10rayon_core8registry8Registry14in_worker_cold17h98027a10df83998aE, symObjAddr: 0x130, symBinAddr: 0x2D4CE4, symSize: 0x54 }
  - { offset: 0xEC840, size: 0x8, addend: 0x0, symName: __ZN10rayon_core8registry8Registry14in_worker_cold17hb2f9bf4129e79d8fE, symObjAddr: 0x184, symBinAddr: 0x2D4D38, symSize: 0x54 }
  - { offset: 0xEC885, size: 0x8, addend: 0x0, symName: __ZN10rayon_core8registry8Registry14in_worker_cold17hd9d0e7c0eeee6831E, symObjAddr: 0x1D8, symBinAddr: 0x2D4D8C, symSize: 0x54 }
  - { offset: 0xEC8D7, size: 0x8, addend: 0x0, symName: __ZN10rayon_core8registry8Registry14in_worker_cold17hdc8e8b20b398277bE, symObjAddr: 0x22C, symBinAddr: 0x2D4DE0, symSize: 0x50 }
  - { offset: 0xEC935, size: 0x8, addend: 0x0, symName: __ZN10rayon_core8registry8Registry15in_worker_cross17h0f4a39dd378f1b88E, symObjAddr: 0x1868, symBinAddr: 0x2D4E30, symSize: 0x200 }
  - { offset: 0xEC9B9, size: 0x8, addend: 0x0, symName: __ZN10rayon_core8registry8Registry15in_worker_cross17h2caa692b5778762eE, symObjAddr: 0x1A68, symBinAddr: 0x2D5030, symSize: 0x204 }
  - { offset: 0xECA3D, size: 0x8, addend: 0x0, symName: __ZN10rayon_core8registry8Registry15in_worker_cross17h3d58918ca5edc789E, symObjAddr: 0x1C6C, symBinAddr: 0x2D5234, symSize: 0x204 }
  - { offset: 0xECAC1, size: 0x8, addend: 0x0, symName: __ZN10rayon_core8registry8Registry15in_worker_cross17h5d03390f44d737b6E, symObjAddr: 0x1E70, symBinAddr: 0x2D5438, symSize: 0x1FC }
  - { offset: 0xECB45, size: 0x8, addend: 0x0, symName: __ZN10rayon_core8registry8Registry15in_worker_cross17h8b9a777ff9b28c40E, symObjAddr: 0x206C, symBinAddr: 0x2D5634, symSize: 0x1FC }
  - { offset: 0xECBC9, size: 0x8, addend: 0x0, symName: __ZN10rayon_core8registry8Registry15in_worker_cross17h90be20fce71c6c5fE, symObjAddr: 0x2268, symBinAddr: 0x2D5830, symSize: 0x204 }
  - { offset: 0xECC4D, size: 0x8, addend: 0x0, symName: __ZN10rayon_core8registry8Registry15in_worker_cross17hf38e866d506e7386E, symObjAddr: 0x246C, symBinAddr: 0x2D5A34, symSize: 0x204 }
  - { offset: 0xECCD1, size: 0x8, addend: 0x0, symName: __ZN10rayon_core8registry8Registry9in_worker17h1a31d16c45a70fc2E, symObjAddr: 0x2F2C, symBinAddr: 0x44418, symSize: 0x27C }
  - { offset: 0xECD2C, size: 0x8, addend: 0x0, symName: __ZN10rayon_core8registry8Registry9in_worker17h2c4208b97c23b8ccE, symObjAddr: 0x31A8, symBinAddr: 0x44694, symSize: 0x288 }
  - { offset: 0xECD87, size: 0x8, addend: 0x0, symName: __ZN10rayon_core8registry8Registry9in_worker17h4b6b2370ed968eb2E, symObjAddr: 0x3430, symBinAddr: 0x4491C, symSize: 0x288 }
  - { offset: 0xECDE2, size: 0x8, addend: 0x0, symName: __ZN10rayon_core8registry8Registry9in_worker17h4fd3dd37dfa9e824E, symObjAddr: 0x36B8, symBinAddr: 0x44BA4, symSize: 0x248 }
  - { offset: 0xECE3C, size: 0x8, addend: 0x0, symName: __ZN10rayon_core8registry8Registry9in_worker17h508a7c5313909178E, symObjAddr: 0x3900, symBinAddr: 0x44DEC, symSize: 0x288 }
  - { offset: 0xECE97, size: 0x8, addend: 0x0, symName: __ZN10rayon_core8registry8Registry9in_worker17ha58592b14f69a24bE, symObjAddr: 0x3B88, symBinAddr: 0x45074, symSize: 0x288 }
  - { offset: 0xECEF2, size: 0x8, addend: 0x0, symName: __ZN10rayon_core8registry8Registry9in_worker17hb7a295dac780b8faE, symObjAddr: 0x3E10, symBinAddr: 0x452FC, symSize: 0x27C }
  - { offset: 0xED00E, size: 0x8, addend: 0x0, symName: '__ZN185_$LT$core..ops..control_flow..ControlFlow$LT$B$C$C$GT$$u20$as$u20$core..ops..try_trait..FromResidual$LT$core..ops..control_flow..ControlFlow$LT$B$C$core..convert..Infallible$GT$$GT$$GT$13from_residual17ha5c698c5b4881975E', symObjAddr: 0x0, symBinAddr: 0x45DE8, symSize: 0x44 }
  - { offset: 0xED02F, size: 0x8, addend: 0x0, symName: '__ZN185_$LT$core..ops..control_flow..ControlFlow$LT$B$C$C$GT$$u20$as$u20$core..ops..try_trait..FromResidual$LT$core..ops..control_flow..ControlFlow$LT$B$C$core..convert..Infallible$GT$$GT$$GT$13from_residual17ha5c698c5b4881975E', symObjAddr: 0x0, symBinAddr: 0x45DE8, symSize: 0x44 }
  - { offset: 0xED06D, size: 0x8, addend: 0x0, symName: '__ZN185_$LT$core..ops..control_flow..ControlFlow$LT$B$C$C$GT$$u20$as$u20$core..ops..try_trait..FromResidual$LT$core..ops..control_flow..ControlFlow$LT$B$C$core..convert..Infallible$GT$$GT$$GT$13from_residual17hcd724c85ef5f98faE', symObjAddr: 0x44, symBinAddr: 0x45E2C, symSize: 0x5C }
  - { offset: 0xED0B6, size: 0x8, addend: 0x0, symName: __ZN4core3ops12control_flow11ControlFlow5Break17h59372ff537a1d9c3E, symObjAddr: 0xA0, symBinAddr: 0x45E88, symSize: 0x3C }
  - { offset: 0xED0F7, size: 0x8, addend: 0x0, symName: '__ZN95_$LT$core..ops..control_flow..ControlFlow$LT$B$C$C$GT$$u20$as$u20$core..ops..try_trait..Try$GT$11from_output17h0c94333c5950de67E', symObjAddr: 0xDC, symBinAddr: 0x45EC4, symSize: 0x20 }
  - { offset: 0xED135, size: 0x8, addend: 0x0, symName: '__ZN95_$LT$core..ops..control_flow..ControlFlow$LT$B$C$C$GT$$u20$as$u20$core..ops..try_trait..Try$GT$11from_output17ha2137e068b494fa0E', symObjAddr: 0xFC, symBinAddr: 0x45EE4, symSize: 0x24 }
  - { offset: 0xED173, size: 0x8, addend: 0x0, symName: '__ZN95_$LT$core..ops..control_flow..ControlFlow$LT$B$C$C$GT$$u20$as$u20$core..ops..try_trait..Try$GT$6branch17h17458b24c356aebdE', symObjAddr: 0x120, symBinAddr: 0x45F08, symSize: 0x90 }
  - { offset: 0xED1EB, size: 0x8, addend: 0x0, symName: '__ZN95_$LT$core..ops..control_flow..ControlFlow$LT$B$C$C$GT$$u20$as$u20$core..ops..try_trait..Try$GT$6branch17h5d3bd8faa45d0df3E', symObjAddr: 0x1B0, symBinAddr: 0x45F98, symSize: 0x7C }
  - { offset: 0xED5BC, size: 0x8, addend: 0x0, symName: __ZN10rayon_core5latch9CoreLatch3new17hb93e99bf3924d4dfE, symObjAddr: 0x0, symBinAddr: 0x46014, symSize: 0x38 }
  - { offset: 0xEE17D, size: 0x8, addend: 0x0, symName: '__ZN73_$LT$rayon_core..latch..LockLatch$u20$as$u20$rayon_core..latch..Latch$GT$3set17h4feb327e3a52cdc5E', symObjAddr: 0x1CC, symBinAddr: 0x461E0, symSize: 0x1BC }
  - { offset: 0xEE1FC, size: 0x8, addend: 0x0, symName: '__ZN73_$LT$rayon_core..latch..SpinLatch$u20$as$u20$rayon_core..latch..Latch$GT$3set17h22ca14ddab3e04fdE', symObjAddr: 0x388, symBinAddr: 0x4639C, symSize: 0x298 }
  - { offset: 0xEE413, size: 0x8, addend: 0x0, symName: __ZN10rayon_core5latch9CoreLatch3new17hb93e99bf3924d4dfE, symObjAddr: 0x0, symBinAddr: 0x46014, symSize: 0x38 }
  - { offset: 0xEE433, size: 0x8, addend: 0x0, symName: __ZN10rayon_core5latch9CoreLatch3set17h64fe606502c0652eE, symObjAddr: 0x38, symBinAddr: 0x4604C, symSize: 0x84 }
  - { offset: 0xEE47F, size: 0x8, addend: 0x0, symName: __ZN10rayon_core5latch9CoreLatch5probe17h185115f21ad39196E, symObjAddr: 0xBC, symBinAddr: 0x460D0, symSize: 0x30 }
  - { offset: 0xEE913, size: 0x8, addend: 0x0, symName: __ZN10rayon_core5latch9SpinLatch3new17hd3192e748653c637E, symObjAddr: 0xEC, symBinAddr: 0x46100, symSize: 0x6C }
  - { offset: 0xEE935, size: 0x8, addend: 0x0, symName: __ZN10rayon_core5latch9SpinLatch5cross17h29666b3facbcec6fE, symObjAddr: 0x158, symBinAddr: 0x4616C, symSize: 0x50 }
  - { offset: 0xEE964, size: 0x8, addend: 0x0, symName: __ZN10rayon_core5latch9SpinLatch5probe17hb28c6f98d6b56675E, symObjAddr: 0x1A8, symBinAddr: 0x461BC, symSize: 0x24 }
  - { offset: 0xEEA67, size: 0x8, addend: 0x0, symName: __ZN4core3cmp10PartialOrd2lt17h14515642dea920caE, symObjAddr: 0x0, symBinAddr: 0x46634, symSize: 0x70 }
  - { offset: 0xEEAB7, size: 0x8, addend: 0x0, symName: __ZN4core3cmp10PartialOrd2lt17h14515642dea920caE, symObjAddr: 0x0, symBinAddr: 0x46634, symSize: 0x70 }
  - { offset: 0xEED73, size: 0x8, addend: 0x0, symName: '__ZN4core5slice29_$LT$impl$u20$$u5b$T$u5d$$GT$12split_at_mut17hdfb1d8c0a3d0757fE', symObjAddr: 0x70, symBinAddr: 0x466A4, symSize: 0xAC }
  - { offset: 0xEEDD7, size: 0x8, addend: 0x0, symName: '__ZN4core5slice29_$LT$impl$u20$$u5b$T$u5d$$GT$13sort_unstable17hac52a96d2a8cffe7E', symObjAddr: 0x11C, symBinAddr: 0x46750, symSize: 0xA8 }
  - { offset: 0xEEEAB, size: 0x8, addend: 0x0, symName: '__ZN4core5slice29_$LT$impl$u20$$u5b$T$u5d$$GT$14swap_unchecked17h0fb6a37ba34523f0E', symObjAddr: 0x1C4, symBinAddr: 0x467F8, symSize: 0x80 }
  - { offset: 0xEEFAB, size: 0x8, addend: 0x0, symName: '__ZN4core5slice29_$LT$impl$u20$$u5b$T$u5d$$GT$22split_at_mut_unchecked17he9f783815a1b9ddcE', symObjAddr: 0x244, symBinAddr: 0x46878, symSize: 0xF8 }
  - { offset: 0xEF10B, size: 0x8, addend: 0x0, symName: '__ZN4core5slice29_$LT$impl$u20$$u5b$T$u5d$$GT$7reverse17h69fb6d6c613b6e34E', symObjAddr: 0x33C, symBinAddr: 0x46970, symSize: 0xFC }
  - { offset: 0xEF297, size: 0x8, addend: 0x0, symName: '__ZN4core5slice29_$LT$impl$u20$$u5b$T$u5d$$GT$8iter_mut17h34b79da2bbd5b636E', symObjAddr: 0x438, symBinAddr: 0x46A6C, symSize: 0x28 }
